
aes.elf:     file format elf32-tradbigmips


Disassembly of section .text:

00000000 <.text>:
       0:	0c001876 	jal	0x61d8
       4:	00000000 	sll	zero,zero,0x0
       8:	08000002 	j	0x8
       c:	00000000 	sll	zero,zero,0x0
      10:	27bdffe8 	addiu	sp,sp,-24
      14:	afbe0014 	sw	s8,20(sp)
      18:	03a0f021 	addu	s8,sp,zero
      1c:	afc40018 	sw	a0,24(s8)
      20:	afc5001c 	sw	a1,28(s8)
      24:	afc60020 	sw	a2,32(s8)
      28:	8fc30018 	lw	v1,24(s8)
      2c:	8fc2001c 	lw	v0,28(s8)
      30:	00000000 	sll	zero,zero,0x0
      34:	00621825 	or	v1,v1,v0
      38:	8fc20020 	lw	v0,32(s8)
      3c:	00000000 	sll	zero,zero,0x0
      40:	00621025 	or	v0,v1,v0
      44:	30420003 	andi	v0,v0,0x3
      48:	10400023 	beqz	v0,0xd8
      4c:	00000000 	sll	zero,zero,0x0
      50:	8fc20018 	lw	v0,24(s8)
      54:	00000000 	sll	zero,zero,0x0
      58:	afc2000c 	sw	v0,12(s8)
      5c:	8fc2001c 	lw	v0,28(s8)
      60:	00000000 	sll	zero,zero,0x0
      64:	afc20008 	sw	v0,8(s8)
      68:	0800002a 	j	0xa8
      6c:	00000000 	sll	zero,zero,0x0
      70:	8fc20008 	lw	v0,8(s8)
      74:	00000000 	sll	zero,zero,0x0
      78:	90430000 	lbu	v1,0(v0)
      7c:	8fc2000c 	lw	v0,12(s8)
      80:	00000000 	sll	zero,zero,0x0
      84:	a0430000 	sb	v1,0(v0)
      88:	8fc2000c 	lw	v0,12(s8)
      8c:	00000000 	sll	zero,zero,0x0
      90:	24420001 	addiu	v0,v0,1
      94:	afc2000c 	sw	v0,12(s8)
      98:	8fc20008 	lw	v0,8(s8)
      9c:	00000000 	sll	zero,zero,0x0
      a0:	24420001 	addiu	v0,v0,1
      a4:	afc20008 	sw	v0,8(s8)
      a8:	8fc20020 	lw	v0,32(s8)
      ac:	00000000 	sll	zero,zero,0x0
      b0:	0002102a 	slt	v0,zero,v0
      b4:	304200ff 	andi	v0,v0,0xff
      b8:	8fc30020 	lw	v1,32(s8)
      bc:	00000000 	sll	zero,zero,0x0
      c0:	2463ffff 	addiu	v1,v1,-1
      c4:	afc30020 	sw	v1,32(s8)
      c8:	1440ffe9 	bnez	v0,0x70
      cc:	00000000 	sll	zero,zero,0x0
      d0:	0800005a 	j	0x168
      d4:	00000000 	sll	zero,zero,0x0
      d8:	8fc20018 	lw	v0,24(s8)
      dc:	00000000 	sll	zero,zero,0x0
      e0:	afc20004 	sw	v0,4(s8)
      e4:	8fc2001c 	lw	v0,28(s8)
      e8:	00000000 	sll	zero,zero,0x0
      ec:	afc20000 	sw	v0,0(s8)
      f0:	8fc20020 	lw	v0,32(s8)
      f4:	00000000 	sll	zero,zero,0x0
      f8:	00021082 	srl	v0,v0,0x2
      fc:	afc20020 	sw	v0,32(s8)
     100:	08000050 	j	0x140
     104:	00000000 	sll	zero,zero,0x0
     108:	8fc20000 	lw	v0,0(s8)
     10c:	00000000 	sll	zero,zero,0x0
     110:	8c430000 	lw	v1,0(v0)
     114:	8fc20004 	lw	v0,4(s8)
     118:	00000000 	sll	zero,zero,0x0
     11c:	ac430000 	sw	v1,0(v0)
     120:	8fc20004 	lw	v0,4(s8)
     124:	00000000 	sll	zero,zero,0x0
     128:	24420004 	addiu	v0,v0,4
     12c:	afc20004 	sw	v0,4(s8)
     130:	8fc20000 	lw	v0,0(s8)
     134:	00000000 	sll	zero,zero,0x0
     138:	24420004 	addiu	v0,v0,4
     13c:	afc20000 	sw	v0,0(s8)
     140:	8fc20020 	lw	v0,32(s8)
     144:	00000000 	sll	zero,zero,0x0
     148:	0002102a 	slt	v0,zero,v0
     14c:	304200ff 	andi	v0,v0,0xff
     150:	8fc30020 	lw	v1,32(s8)
     154:	00000000 	sll	zero,zero,0x0
     158:	2463ffff 	addiu	v1,v1,-1
     15c:	afc30020 	sw	v1,32(s8)
     160:	1440ffe9 	bnez	v0,0x108
     164:	00000000 	sll	zero,zero,0x0
     168:	8fc20018 	lw	v0,24(s8)
     16c:	03c0e821 	addu	sp,s8,zero
     170:	8fbe0014 	lw	s8,20(sp)
     174:	27bd0018 	addiu	sp,sp,24
     178:	03e00008 	jr	ra
     17c:	00000000 	sll	zero,zero,0x0
     180:	27bdffa0 	addiu	sp,sp,-96
     184:	afbf005c 	sw	ra,92(sp)
     188:	afbe0058 	sw	s8,88(sp)
     18c:	03a0f021 	addu	s8,sp,zero
     190:	afc40060 	sw	a0,96(s8)
     194:	afc50064 	sw	a1,100(s8)
     198:	afc60068 	sw	a2,104(s8)
     19c:	3c020000 	lui	v0,0x0
     1a0:	27c40014 	addiu	a0,s8,20
     1a4:	24436ad8 	addiu	v1,v0,27352
     1a8:	24020040 	addiu	v0,zero,64
     1ac:	00602821 	addu	a1,v1,zero
     1b0:	00403021 	addu	a2,v0,zero
     1b4:	0c000004 	jal	0x10
     1b8:	00000000 	sll	zero,zero,0x0
     1bc:	8fc40068 	lw	a0,104(s8)
     1c0:	8fc50064 	lw	a1,100(s8)
     1c4:	0c00020f 	jal	0x83c
     1c8:	00000000 	sll	zero,zero,0x0
     1cc:	8fc20068 	lw	v0,104(s8)
     1d0:	3c030002 	lui	v1,0x2
     1d4:	3463eec0 	ori	v1,v1,0xeec0
     1d8:	1043004f 	beq	v0,v1,0x318
     1dc:	00000000 	sll	zero,zero,0x0
     1e0:	3c030002 	lui	v1,0x2
     1e4:	3463eec1 	ori	v1,v1,0xeec1
     1e8:	0043182a 	slt	v1,v0,v1
     1ec:	1060001a 	beqz	v1,0x258
     1f0:	00000000 	sll	zero,zero,0x0
     1f4:	3c030001 	lui	v1,0x1
     1f8:	3463f4c0 	ori	v1,v1,0xf4c0
     1fc:	10430046 	beq	v0,v1,0x318
     200:	00000000 	sll	zero,zero,0x0
     204:	3c030001 	lui	v1,0x1
     208:	3463f4c1 	ori	v1,v1,0xf4c1
     20c:	0043182a 	slt	v1,v0,v1
     210:	10600007 	beqz	v1,0x230
     214:	00000000 	sll	zero,zero,0x0
     218:	3c030001 	lui	v1,0x1
     21c:	3463f480 	ori	v1,v1,0xf480
     220:	10430026 	beq	v0,v1,0x2bc
     224:	00000000 	sll	zero,zero,0x0
     228:	080000dc 	j	0x370
     22c:	00000000 	sll	zero,zero,0x0
     230:	3c030001 	lui	v1,0x1
     234:	3463f500 	ori	v1,v1,0xf500
     238:	10430047 	beq	v0,v1,0x358
     23c:	00000000 	sll	zero,zero,0x0
     240:	3c030002 	lui	v1,0x2
     244:	3463ee80 	ori	v1,v1,0xee80
     248:	10430023 	beq	v0,v1,0x2d8
     24c:	00000000 	sll	zero,zero,0x0
     250:	080000dc 	j	0x370
     254:	00000000 	sll	zero,zero,0x0
     258:	3c030003 	lui	v1,0x3
     25c:	3463e880 	ori	v1,v1,0xe880
     260:	10430025 	beq	v0,v1,0x2f8
     264:	00000000 	sll	zero,zero,0x0
     268:	3c030003 	lui	v1,0x3
     26c:	3463e881 	ori	v1,v1,0xe881
     270:	0043182a 	slt	v1,v0,v1
     274:	10600007 	beqz	v1,0x294
     278:	00000000 	sll	zero,zero,0x0
     27c:	3c030002 	lui	v1,0x2
     280:	3463ef00 	ori	v1,v1,0xef00
     284:	10430034 	beq	v0,v1,0x358
     288:	00000000 	sll	zero,zero,0x0
     28c:	080000dc 	j	0x370
     290:	00000000 	sll	zero,zero,0x0
     294:	3c030003 	lui	v1,0x3
     298:	3463e8c0 	ori	v1,v1,0xe8c0
     29c:	10430026 	beq	v0,v1,0x338
     2a0:	00000000 	sll	zero,zero,0x0
     2a4:	3c030003 	lui	v1,0x3
     2a8:	3463e900 	ori	v1,v1,0xe900
     2ac:	1043002a 	beq	v0,v1,0x358
     2b0:	00000000 	sll	zero,zero,0x0
     2b4:	080000dc 	j	0x370
     2b8:	00000000 	sll	zero,zero,0x0
     2bc:	3c020000 	lui	v0,0x0
     2c0:	ac406b20 	sw	zero,27424(v0)
     2c4:	3c020000 	lui	v0,0x0
     2c8:	24030004 	addiu	v1,zero,4
     2cc:	ac436b2c 	sw	v1,27436(v0)
     2d0:	080000dc 	j	0x370
     2d4:	00000000 	sll	zero,zero,0x0
     2d8:	3c020000 	lui	v0,0x0
     2dc:	24030002 	addiu	v1,zero,2
     2e0:	ac436b20 	sw	v1,27424(v0)
     2e4:	3c020000 	lui	v0,0x0
     2e8:	24030004 	addiu	v1,zero,4
     2ec:	ac436b2c 	sw	v1,27436(v0)
     2f0:	080000dc 	j	0x370
     2f4:	00000000 	sll	zero,zero,0x0
     2f8:	3c020000 	lui	v0,0x0
     2fc:	24030004 	addiu	v1,zero,4
     300:	ac436b20 	sw	v1,27424(v0)
     304:	3c020000 	lui	v0,0x0
     308:	24030004 	addiu	v1,zero,4
     30c:	ac436b2c 	sw	v1,27436(v0)
     310:	080000dc 	j	0x370
     314:	00000000 	sll	zero,zero,0x0
     318:	3c020000 	lui	v0,0x0
     31c:	24030002 	addiu	v1,zero,2
     320:	ac436b20 	sw	v1,27424(v0)
     324:	3c020000 	lui	v0,0x0
     328:	24030006 	addiu	v1,zero,6
     32c:	ac436b2c 	sw	v1,27436(v0)
     330:	080000dc 	j	0x370
     334:	00000000 	sll	zero,zero,0x0
     338:	3c020000 	lui	v0,0x0
     33c:	24030004 	addiu	v1,zero,4
     340:	ac436b20 	sw	v1,27424(v0)
     344:	3c020000 	lui	v0,0x0
     348:	24030006 	addiu	v1,zero,6
     34c:	ac436b2c 	sw	v1,27436(v0)
     350:	080000dc 	j	0x370
     354:	00000000 	sll	zero,zero,0x0
     358:	3c020000 	lui	v0,0x0
     35c:	24030004 	addiu	v1,zero,4
     360:	ac436b20 	sw	v1,27424(v0)
     364:	3c020000 	lui	v0,0x0
     368:	24030008 	addiu	v1,zero,8
     36c:	ac436b2c 	sw	v1,27436(v0)
     370:	8fc40060 	lw	a0,96(s8)
     374:	8fc50068 	lw	a1,104(s8)
     378:	00003021 	addu	a2,zero,zero
     37c:	0c0016fd 	jal	0x5bf4
     380:	00000000 	sll	zero,zero,0x0
     384:	24020001 	addiu	v0,zero,1
     388:	afc20010 	sw	v0,16(s8)
     38c:	080000f6 	j	0x3d8
     390:	00000000 	sll	zero,zero,0x0
     394:	3c020000 	lui	v0,0x0
     398:	8c426b2c 	lw	v0,27436(v0)
     39c:	8fc40060 	lw	a0,96(s8)
     3a0:	00402821 	addu	a1,v0,zero
     3a4:	0c0003c8 	jal	0xf20
     3a8:	00000000 	sll	zero,zero,0x0
     3ac:	3c020000 	lui	v0,0x0
     3b0:	8c426b2c 	lw	v0,27436(v0)
     3b4:	8fc40060 	lw	a0,96(s8)
     3b8:	00402821 	addu	a1,v0,zero
     3bc:	8fc60010 	lw	a2,16(s8)
     3c0:	0c0011e2 	jal	0x4788
     3c4:	00000000 	sll	zero,zero,0x0
     3c8:	8fc20010 	lw	v0,16(s8)
     3cc:	00000000 	sll	zero,zero,0x0
     3d0:	24420001 	addiu	v0,v0,1
     3d4:	afc20010 	sw	v0,16(s8)
     3d8:	3c020000 	lui	v0,0x0
     3dc:	8c426b20 	lw	v0,27424(v0)
     3e0:	00000000 	sll	zero,zero,0x0
     3e4:	24430009 	addiu	v1,v0,9
     3e8:	8fc20010 	lw	v0,16(s8)
     3ec:	00000000 	sll	zero,zero,0x0
     3f0:	0062102a 	slt	v0,v1,v0
     3f4:	1040ffe7 	beqz	v0,0x394
     3f8:	00000000 	sll	zero,zero,0x0
     3fc:	3c020000 	lui	v0,0x0
     400:	8c426b2c 	lw	v0,27436(v0)
     404:	8fc40060 	lw	a0,96(s8)
     408:	00402821 	addu	a1,v0,zero
     40c:	0c0003c8 	jal	0xf20
     410:	00000000 	sll	zero,zero,0x0
     414:	8fc40060 	lw	a0,96(s8)
     418:	8fc50068 	lw	a1,104(s8)
     41c:	8fc60010 	lw	a2,16(s8)
     420:	0c0016fd 	jal	0x5bf4
     424:	00000000 	sll	zero,zero,0x0
     428:	afc00010 	sw	zero,16(s8)
     42c:	08000127 	j	0x49c
     430:	00000000 	sll	zero,zero,0x0
     434:	8fc20010 	lw	v0,16(s8)
     438:	00000000 	sll	zero,zero,0x0
     43c:	00021080 	sll	v0,v0,0x2
     440:	8fc30060 	lw	v1,96(s8)
     444:	00000000 	sll	zero,zero,0x0
     448:	00621021 	addu	v0,v1,v0
     44c:	8c430000 	lw	v1,0(v0)
     450:	8fc20010 	lw	v0,16(s8)
     454:	00000000 	sll	zero,zero,0x0
     458:	00021080 	sll	v0,v0,0x2
     45c:	27c40010 	addiu	a0,s8,16
     460:	00821021 	addu	v0,a0,v0
     464:	8c420004 	lw	v0,4(v0)
     468:	00000000 	sll	zero,zero,0x0
     46c:	00621026 	xor	v0,v1,v0
     470:	0002182b 	sltu	v1,zero,v0
     474:	3c020000 	lui	v0,0x0
     478:	8c426b28 	lw	v0,27432(v0)
     47c:	00000000 	sll	zero,zero,0x0
     480:	00621821 	addu	v1,v1,v0
     484:	3c020000 	lui	v0,0x0
     488:	ac436b28 	sw	v1,27432(v0)
     48c:	8fc20010 	lw	v0,16(s8)
     490:	00000000 	sll	zero,zero,0x0
     494:	24420001 	addiu	v0,v0,1
     498:	afc20010 	sw	v0,16(s8)
     49c:	8fc20010 	lw	v0,16(s8)
     4a0:	00000000 	sll	zero,zero,0x0
     4a4:	28420010 	slti	v0,v0,16
     4a8:	1440ffe2 	bnez	v0,0x434
     4ac:	00000000 	sll	zero,zero,0x0
     4b0:	00001021 	addu	v0,zero,zero
     4b4:	03c0e821 	addu	sp,s8,zero
     4b8:	8fbf005c 	lw	ra,92(sp)
     4bc:	8fbe0058 	lw	s8,88(sp)
     4c0:	27bd0060 	addiu	sp,sp,96
     4c4:	03e00008 	jr	ra
     4c8:	00000000 	sll	zero,zero,0x0
     4cc:	27bdffa0 	addiu	sp,sp,-96
     4d0:	afbf005c 	sw	ra,92(sp)
     4d4:	afbe0058 	sw	s8,88(sp)
     4d8:	03a0f021 	addu	s8,sp,zero
     4dc:	afc40060 	sw	a0,96(s8)
     4e0:	afc50064 	sw	a1,100(s8)
     4e4:	afc60068 	sw	a2,104(s8)
     4e8:	3c020000 	lui	v0,0x0
     4ec:	27c40014 	addiu	a0,s8,20
     4f0:	24436a98 	addiu	v1,v0,27288
     4f4:	24020040 	addiu	v0,zero,64
     4f8:	00602821 	addu	a1,v1,zero
     4fc:	00403021 	addu	a2,v0,zero
     500:	0c000004 	jal	0x10
     504:	00000000 	sll	zero,zero,0x0
     508:	8fc40068 	lw	a0,104(s8)
     50c:	8fc50064 	lw	a1,100(s8)
     510:	0c00020f 	jal	0x83c
     514:	00000000 	sll	zero,zero,0x0
     518:	8fc20068 	lw	v0,104(s8)
     51c:	3c030002 	lui	v1,0x2
     520:	3463eec0 	ori	v1,v1,0xeec0
     524:	10430040 	beq	v0,v1,0x628
     528:	00000000 	sll	zero,zero,0x0
     52c:	3c030002 	lui	v1,0x2
     530:	3463eec1 	ori	v1,v1,0xeec1
     534:	0043182a 	slt	v1,v0,v1
     538:	1060001a 	beqz	v1,0x5a4
     53c:	00000000 	sll	zero,zero,0x0
     540:	3c030001 	lui	v1,0x1
     544:	3463f4c0 	ori	v1,v1,0xf4c0
     548:	10430037 	beq	v0,v1,0x628
     54c:	00000000 	sll	zero,zero,0x0
     550:	3c030001 	lui	v1,0x1
     554:	3463f4c1 	ori	v1,v1,0xf4c1
     558:	0043182a 	slt	v1,v0,v1
     55c:	10600007 	beqz	v1,0x57c
     560:	00000000 	sll	zero,zero,0x0
     564:	3c030001 	lui	v1,0x1
     568:	3463f480 	ori	v1,v1,0xf480
     56c:	10430026 	beq	v0,v1,0x608
     570:	00000000 	sll	zero,zero,0x0
     574:	080001b8 	j	0x6e0
     578:	00000000 	sll	zero,zero,0x0
     57c:	3c030001 	lui	v1,0x1
     580:	3463f500 	ori	v1,v1,0xf500
     584:	10430038 	beq	v0,v1,0x668
     588:	00000000 	sll	zero,zero,0x0
     58c:	3c030002 	lui	v1,0x2
     590:	3463ee80 	ori	v1,v1,0xee80
     594:	1043002c 	beq	v0,v1,0x648
     598:	00000000 	sll	zero,zero,0x0
     59c:	080001b8 	j	0x6e0
     5a0:	00000000 	sll	zero,zero,0x0
     5a4:	3c030003 	lui	v1,0x3
     5a8:	3463e880 	ori	v1,v1,0xe880
     5ac:	10430036 	beq	v0,v1,0x688
     5b0:	00000000 	sll	zero,zero,0x0
     5b4:	3c030003 	lui	v1,0x3
     5b8:	3463e881 	ori	v1,v1,0xe881
     5bc:	0043182a 	slt	v1,v0,v1
     5c0:	10600007 	beqz	v1,0x5e0
     5c4:	00000000 	sll	zero,zero,0x0
     5c8:	3c030002 	lui	v1,0x2
     5cc:	3463ef00 	ori	v1,v1,0xef00
     5d0:	10430025 	beq	v0,v1,0x668
     5d4:	00000000 	sll	zero,zero,0x0
     5d8:	080001b8 	j	0x6e0
     5dc:	00000000 	sll	zero,zero,0x0
     5e0:	3c030003 	lui	v1,0x3
     5e4:	3463e8c0 	ori	v1,v1,0xe8c0
     5e8:	1043002f 	beq	v0,v1,0x6a8
     5ec:	00000000 	sll	zero,zero,0x0
     5f0:	3c030003 	lui	v1,0x3
     5f4:	3463e900 	ori	v1,v1,0xe900
     5f8:	10430033 	beq	v0,v1,0x6c8
     5fc:	00000000 	sll	zero,zero,0x0
     600:	080001b8 	j	0x6e0
     604:	00000000 	sll	zero,zero,0x0
     608:	3c020000 	lui	v0,0x0
     60c:	2403000a 	addiu	v1,zero,10
     610:	ac436b20 	sw	v1,27424(v0)
     614:	3c020000 	lui	v0,0x0
     618:	24030004 	addiu	v1,zero,4
     61c:	ac436b2c 	sw	v1,27436(v0)
     620:	080001b8 	j	0x6e0
     624:	00000000 	sll	zero,zero,0x0
     628:	3c020000 	lui	v0,0x0
     62c:	2403000c 	addiu	v1,zero,12
     630:	ac436b20 	sw	v1,27424(v0)
     634:	3c020000 	lui	v0,0x0
     638:	24030006 	addiu	v1,zero,6
     63c:	ac436b2c 	sw	v1,27436(v0)
     640:	080001b8 	j	0x6e0
     644:	00000000 	sll	zero,zero,0x0
     648:	3c020000 	lui	v0,0x0
     64c:	2403000c 	addiu	v1,zero,12
     650:	ac436b20 	sw	v1,27424(v0)
     654:	3c020000 	lui	v0,0x0
     658:	24030004 	addiu	v1,zero,4
     65c:	ac436b2c 	sw	v1,27436(v0)
     660:	080001b8 	j	0x6e0
     664:	00000000 	sll	zero,zero,0x0
     668:	3c020000 	lui	v0,0x0
     66c:	2403000e 	addiu	v1,zero,14
     670:	ac436b20 	sw	v1,27424(v0)
     674:	3c020000 	lui	v0,0x0
     678:	24030008 	addiu	v1,zero,8
     67c:	ac436b2c 	sw	v1,27436(v0)
     680:	080001b8 	j	0x6e0
     684:	00000000 	sll	zero,zero,0x0
     688:	3c020000 	lui	v0,0x0
     68c:	2403000e 	addiu	v1,zero,14
     690:	ac436b20 	sw	v1,27424(v0)
     694:	3c020000 	lui	v0,0x0
     698:	24030004 	addiu	v1,zero,4
     69c:	ac436b2c 	sw	v1,27436(v0)
     6a0:	080001b8 	j	0x6e0
     6a4:	00000000 	sll	zero,zero,0x0
     6a8:	3c020000 	lui	v0,0x0
     6ac:	2403000e 	addiu	v1,zero,14
     6b0:	ac436b20 	sw	v1,27424(v0)
     6b4:	3c020000 	lui	v0,0x0
     6b8:	24030006 	addiu	v1,zero,6
     6bc:	ac436b2c 	sw	v1,27436(v0)
     6c0:	080001b8 	j	0x6e0
     6c4:	00000000 	sll	zero,zero,0x0
     6c8:	3c020000 	lui	v0,0x0
     6cc:	2403000e 	addiu	v1,zero,14
     6d0:	ac436b20 	sw	v1,27424(v0)
     6d4:	3c020000 	lui	v0,0x0
     6d8:	24030008 	addiu	v1,zero,8
     6dc:	ac436b2c 	sw	v1,27436(v0)
     6e0:	3c020000 	lui	v0,0x0
     6e4:	8c426b20 	lw	v0,27424(v0)
     6e8:	8fc40060 	lw	a0,96(s8)
     6ec:	8fc50068 	lw	a1,104(s8)
     6f0:	00403021 	addu	a2,v0,zero
     6f4:	0c0016fd 	jal	0x5bf4
     6f8:	00000000 	sll	zero,zero,0x0
     6fc:	3c020000 	lui	v0,0x0
     700:	8c426b2c 	lw	v0,27436(v0)
     704:	8fc40060 	lw	a0,96(s8)
     708:	00402821 	addu	a1,v0,zero
     70c:	0c000ae6 	jal	0x2b98
     710:	00000000 	sll	zero,zero,0x0
     714:	3c020000 	lui	v0,0x0
     718:	8c426b20 	lw	v0,27424(v0)
     71c:	00000000 	sll	zero,zero,0x0
     720:	2442ffff 	addiu	v0,v0,-1
     724:	afc20010 	sw	v0,16(s8)
     728:	080001dd 	j	0x774
     72c:	00000000 	sll	zero,zero,0x0
     730:	3c020000 	lui	v0,0x0
     734:	8c426b2c 	lw	v0,27436(v0)
     738:	8fc40060 	lw	a0,96(s8)
     73c:	00402821 	addu	a1,v0,zero
     740:	8fc60010 	lw	a2,16(s8)
     744:	0c00148a 	jal	0x5228
     748:	00000000 	sll	zero,zero,0x0
     74c:	3c020000 	lui	v0,0x0
     750:	8c426b2c 	lw	v0,27436(v0)
     754:	8fc40060 	lw	a0,96(s8)
     758:	00402821 	addu	a1,v0,zero
     75c:	0c000ae6 	jal	0x2b98
     760:	00000000 	sll	zero,zero,0x0
     764:	8fc20010 	lw	v0,16(s8)
     768:	00000000 	sll	zero,zero,0x0
     76c:	2442ffff 	addiu	v0,v0,-1
     770:	afc20010 	sw	v0,16(s8)
     774:	8fc20010 	lw	v0,16(s8)
     778:	00000000 	sll	zero,zero,0x0
     77c:	1c40ffec 	bgtz	v0,0x730
     780:	00000000 	sll	zero,zero,0x0
     784:	8fc40060 	lw	a0,96(s8)
     788:	8fc50068 	lw	a1,104(s8)
     78c:	00003021 	addu	a2,zero,zero
     790:	0c0016fd 	jal	0x5bf4
     794:	00000000 	sll	zero,zero,0x0
     798:	afc00010 	sw	zero,16(s8)
     79c:	08000203 	j	0x80c
     7a0:	00000000 	sll	zero,zero,0x0
     7a4:	8fc20010 	lw	v0,16(s8)
     7a8:	00000000 	sll	zero,zero,0x0
     7ac:	00021080 	sll	v0,v0,0x2
     7b0:	8fc30060 	lw	v1,96(s8)
     7b4:	00000000 	sll	zero,zero,0x0
     7b8:	00621021 	addu	v0,v1,v0
     7bc:	8c430000 	lw	v1,0(v0)
     7c0:	8fc20010 	lw	v0,16(s8)
     7c4:	00000000 	sll	zero,zero,0x0
     7c8:	00021080 	sll	v0,v0,0x2
     7cc:	27c40010 	addiu	a0,s8,16
     7d0:	00821021 	addu	v0,a0,v0
     7d4:	8c420004 	lw	v0,4(v0)
     7d8:	00000000 	sll	zero,zero,0x0
     7dc:	00621026 	xor	v0,v1,v0
     7e0:	0002182b 	sltu	v1,zero,v0
     7e4:	3c020000 	lui	v0,0x0
     7e8:	8c426b28 	lw	v0,27432(v0)
     7ec:	00000000 	sll	zero,zero,0x0
     7f0:	00621821 	addu	v1,v1,v0
     7f4:	3c020000 	lui	v0,0x0
     7f8:	ac436b28 	sw	v1,27432(v0)
     7fc:	8fc20010 	lw	v0,16(s8)
     800:	00000000 	sll	zero,zero,0x0
     804:	24420001 	addiu	v0,v0,1
     808:	afc20010 	sw	v0,16(s8)
     80c:	8fc20010 	lw	v0,16(s8)
     810:	00000000 	sll	zero,zero,0x0
     814:	28420010 	slti	v0,v0,16
     818:	1440ffe2 	bnez	v0,0x7a4
     81c:	00000000 	sll	zero,zero,0x0
     820:	00001021 	addu	v0,zero,zero
     824:	03c0e821 	addu	sp,s8,zero
     828:	8fbf005c 	lw	ra,92(sp)
     82c:	8fbe0058 	lw	s8,88(sp)
     830:	27bd0060 	addiu	sp,sp,96
     834:	03e00008 	jr	ra
     838:	00000000 	sll	zero,zero,0x0
     83c:	27bdffb8 	addiu	sp,sp,-72
     840:	afbf0044 	sw	ra,68(sp)
     844:	afbe0040 	sw	s8,64(sp)
     848:	afb0003c 	sw	s0,60(sp)
     84c:	03a0f021 	addu	s8,sp,zero
     850:	afc40048 	sw	a0,72(s8)
     854:	afc5004c 	sw	a1,76(s8)
     858:	8fc20048 	lw	v0,72(s8)
     85c:	3c030002 	lui	v1,0x2
     860:	3463eec0 	ori	v1,v1,0xeec0
     864:	10430058 	beq	v0,v1,0x9c8
     868:	00000000 	sll	zero,zero,0x0
     86c:	3c030002 	lui	v1,0x2
     870:	3463eec1 	ori	v1,v1,0xeec1
     874:	0043182a 	slt	v1,v0,v1
     878:	1060001a 	beqz	v1,0x8e4
     87c:	00000000 	sll	zero,zero,0x0
     880:	3c030001 	lui	v1,0x1
     884:	3463f4c0 	ori	v1,v1,0xf4c0
     888:	10430037 	beq	v0,v1,0x968
     88c:	00000000 	sll	zero,zero,0x0
     890:	3c030001 	lui	v1,0x1
     894:	3463f4c1 	ori	v1,v1,0xf4c1
     898:	0043182a 	slt	v1,v0,v1
     89c:	10600007 	beqz	v1,0x8bc
     8a0:	00000000 	sll	zero,zero,0x0
     8a4:	3c030001 	lui	v1,0x1
     8a8:	3463f480 	ori	v1,v1,0xf480
     8ac:	10430026 	beq	v0,v1,0x948
     8b0:	00000000 	sll	zero,zero,0x0
     8b4:	0800029a 	j	0xa68
     8b8:	00000000 	sll	zero,zero,0x0
     8bc:	3c030001 	lui	v1,0x1
     8c0:	3463f500 	ori	v1,v1,0xf500
     8c4:	10430030 	beq	v0,v1,0x988
     8c8:	00000000 	sll	zero,zero,0x0
     8cc:	3c030002 	lui	v1,0x2
     8d0:	3463ee80 	ori	v1,v1,0xee80
     8d4:	10430034 	beq	v0,v1,0x9a8
     8d8:	00000000 	sll	zero,zero,0x0
     8dc:	0800029a 	j	0xa68
     8e0:	00000000 	sll	zero,zero,0x0
     8e4:	3c030003 	lui	v1,0x3
     8e8:	3463e880 	ori	v1,v1,0xe880
     8ec:	10430046 	beq	v0,v1,0xa08
     8f0:	00000000 	sll	zero,zero,0x0
     8f4:	3c030003 	lui	v1,0x3
     8f8:	3463e881 	ori	v1,v1,0xe881
     8fc:	0043182a 	slt	v1,v0,v1
     900:	10600007 	beqz	v1,0x920
     904:	00000000 	sll	zero,zero,0x0
     908:	3c030002 	lui	v1,0x2
     90c:	3463ef00 	ori	v1,v1,0xef00
     910:	10430035 	beq	v0,v1,0x9e8
     914:	00000000 	sll	zero,zero,0x0
     918:	0800029a 	j	0xa68
     91c:	00000000 	sll	zero,zero,0x0
     920:	3c030003 	lui	v1,0x3
     924:	3463e8c0 	ori	v1,v1,0xe8c0
     928:	1043003f 	beq	v0,v1,0xa28
     92c:	00000000 	sll	zero,zero,0x0
     930:	3c030003 	lui	v1,0x3
     934:	3463e900 	ori	v1,v1,0xe900
     938:	10430043 	beq	v0,v1,0xa48
     93c:	00000000 	sll	zero,zero,0x0
     940:	0800029a 	j	0xa68
     944:	00000000 	sll	zero,zero,0x0
     948:	24020004 	addiu	v0,zero,4
     94c:	afc20020 	sw	v0,32(s8)
     950:	24020004 	addiu	v0,zero,4
     954:	afc2001c 	sw	v0,28(s8)
     958:	2402000a 	addiu	v0,zero,10
     95c:	afc20018 	sw	v0,24(s8)
     960:	0800029d 	j	0xa74
     964:	00000000 	sll	zero,zero,0x0
     968:	24020004 	addiu	v0,zero,4
     96c:	afc20020 	sw	v0,32(s8)
     970:	24020006 	addiu	v0,zero,6
     974:	afc2001c 	sw	v0,28(s8)
     978:	2402000c 	addiu	v0,zero,12
     97c:	afc20018 	sw	v0,24(s8)
     980:	0800029d 	j	0xa74
     984:	00000000 	sll	zero,zero,0x0
     988:	24020004 	addiu	v0,zero,4
     98c:	afc20020 	sw	v0,32(s8)
     990:	24020008 	addiu	v0,zero,8
     994:	afc2001c 	sw	v0,28(s8)
     998:	2402000e 	addiu	v0,zero,14
     99c:	afc20018 	sw	v0,24(s8)
     9a0:	0800029d 	j	0xa74
     9a4:	00000000 	sll	zero,zero,0x0
     9a8:	24020006 	addiu	v0,zero,6
     9ac:	afc20020 	sw	v0,32(s8)
     9b0:	24020004 	addiu	v0,zero,4
     9b4:	afc2001c 	sw	v0,28(s8)
     9b8:	2402000c 	addiu	v0,zero,12
     9bc:	afc20018 	sw	v0,24(s8)
     9c0:	0800029d 	j	0xa74
     9c4:	00000000 	sll	zero,zero,0x0
     9c8:	24020006 	addiu	v0,zero,6
     9cc:	afc20020 	sw	v0,32(s8)
     9d0:	24020006 	addiu	v0,zero,6
     9d4:	afc2001c 	sw	v0,28(s8)
     9d8:	2402000c 	addiu	v0,zero,12
     9dc:	afc20018 	sw	v0,24(s8)
     9e0:	0800029d 	j	0xa74
     9e4:	00000000 	sll	zero,zero,0x0
     9e8:	24020006 	addiu	v0,zero,6
     9ec:	afc20020 	sw	v0,32(s8)
     9f0:	24020008 	addiu	v0,zero,8
     9f4:	afc2001c 	sw	v0,28(s8)
     9f8:	2402000e 	addiu	v0,zero,14
     9fc:	afc20018 	sw	v0,24(s8)
     a00:	0800029d 	j	0xa74
     a04:	00000000 	sll	zero,zero,0x0
     a08:	24020008 	addiu	v0,zero,8
     a0c:	afc20020 	sw	v0,32(s8)
     a10:	24020004 	addiu	v0,zero,4
     a14:	afc2001c 	sw	v0,28(s8)
     a18:	2402000e 	addiu	v0,zero,14
     a1c:	afc20018 	sw	v0,24(s8)
     a20:	0800029d 	j	0xa74
     a24:	00000000 	sll	zero,zero,0x0
     a28:	24020008 	addiu	v0,zero,8
     a2c:	afc20020 	sw	v0,32(s8)
     a30:	24020006 	addiu	v0,zero,6
     a34:	afc2001c 	sw	v0,28(s8)
     a38:	2402000e 	addiu	v0,zero,14
     a3c:	afc20018 	sw	v0,24(s8)
     a40:	0800029d 	j	0xa74
     a44:	00000000 	sll	zero,zero,0x0
     a48:	24020008 	addiu	v0,zero,8
     a4c:	afc20020 	sw	v0,32(s8)
     a50:	24020008 	addiu	v0,zero,8
     a54:	afc2001c 	sw	v0,28(s8)
     a58:	2402000e 	addiu	v0,zero,14
     a5c:	afc20018 	sw	v0,24(s8)
     a60:	0800029d 	j	0xa74
     a64:	00000000 	sll	zero,zero,0x0
     a68:	2402ffff 	addiu	v0,zero,-1
     a6c:	080003c1 	j	0xf04
     a70:	00000000 	sll	zero,zero,0x0
     a74:	afc00010 	sw	zero,16(s8)
     a78:	080002c6 	j	0xb18
     a7c:	00000000 	sll	zero,zero,0x0
     a80:	afc00014 	sw	zero,20(s8)
     a84:	080002bd 	j	0xaf4
     a88:	00000000 	sll	zero,zero,0x0
     a8c:	8fc20014 	lw	v0,20(s8)
     a90:	8fc60010 	lw	a2,16(s8)
     a94:	8fc30010 	lw	v1,16(s8)
     a98:	00000000 	sll	zero,zero,0x0
     a9c:	00032080 	sll	a0,v1,0x2
     aa0:	8fc30014 	lw	v1,20(s8)
     aa4:	00000000 	sll	zero,zero,0x0
     aa8:	00831821 	addu	v1,a0,v1
     aac:	00031880 	sll	v1,v1,0x2
     ab0:	8fc4004c 	lw	a0,76(s8)
     ab4:	00000000 	sll	zero,zero,0x0
     ab8:	00831821 	addu	v1,a0,v1
     abc:	8c640000 	lw	a0,0(v1)
     ac0:	3c050000 	lui	a1,0x0
     ac4:	000210c0 	sll	v0,v0,0x3
     ac8:	00021900 	sll	v1,v0,0x4
     acc:	00621823 	subu	v1,v1,v0
     ad0:	00661021 	addu	v0,v1,a2
     ad4:	00021880 	sll	v1,v0,0x2
     ad8:	24a26e30 	addiu	v0,a1,28208
     adc:	00621021 	addu	v0,v1,v0
     ae0:	ac440000 	sw	a0,0(v0)
     ae4:	8fc20014 	lw	v0,20(s8)
     ae8:	00000000 	sll	zero,zero,0x0
     aec:	24420001 	addiu	v0,v0,1
     af0:	afc20014 	sw	v0,20(s8)
     af4:	8fc20014 	lw	v0,20(s8)
     af8:	00000000 	sll	zero,zero,0x0
     afc:	28420004 	slti	v0,v0,4
     b00:	1440ffe2 	bnez	v0,0xa8c
     b04:	00000000 	sll	zero,zero,0x0
     b08:	8fc20010 	lw	v0,16(s8)
     b0c:	00000000 	sll	zero,zero,0x0
     b10:	24420001 	addiu	v0,v0,1
     b14:	afc20010 	sw	v0,16(s8)
     b18:	8fc30010 	lw	v1,16(s8)
     b1c:	8fc20020 	lw	v0,32(s8)
     b20:	00000000 	sll	zero,zero,0x0
     b24:	0062102a 	slt	v0,v1,v0
     b28:	1440ffd5 	bnez	v0,0xa80
     b2c:	00000000 	sll	zero,zero,0x0
     b30:	8fc20020 	lw	v0,32(s8)
     b34:	00000000 	sll	zero,zero,0x0
     b38:	afc20010 	sw	v0,16(s8)
     b3c:	080003b4 	j	0xed0
     b40:	00000000 	sll	zero,zero,0x0
     b44:	8fc30010 	lw	v1,16(s8)
     b48:	8fc20020 	lw	v0,32(s8)
     b4c:	00000000 	sll	zero,zero,0x0
     b50:	14400002 	bnez	v0,0xb5c
     b54:	0062001a 	div	zero,v1,v0
     b58:	0007000d 	break	0x7
     b5c:	00001010 	mfhi	v0
     b60:	14400049 	bnez	v0,0xc88
     b64:	00000000 	sll	zero,zero,0x0
     b68:	8fc20010 	lw	v0,16(s8)
     b6c:	00000000 	sll	zero,zero,0x0
     b70:	2443ffff 	addiu	v1,v0,-1
     b74:	3c020000 	lui	v0,0x0
     b78:	24630078 	addiu	v1,v1,120
     b7c:	00031880 	sll	v1,v1,0x2
     b80:	24426e30 	addiu	v0,v0,28208
     b84:	00621021 	addu	v0,v1,v0
     b88:	8c420000 	lw	v0,0(v0)
     b8c:	00000000 	sll	zero,zero,0x0
     b90:	00402021 	addu	a0,v0,zero
     b94:	0c000ac4 	jal	0x2b10
     b98:	00000000 	sll	zero,zero,0x0
     b9c:	00401821 	addu	v1,v0,zero
     ba0:	8fc40010 	lw	a0,16(s8)
     ba4:	8fc20020 	lw	v0,32(s8)
     ba8:	00000000 	sll	zero,zero,0x0
     bac:	14400002 	bnez	v0,0xbb8
     bb0:	0082001a 	div	zero,a0,v0
     bb4:	0007000d 	break	0x7
     bb8:	00002010 	mfhi	a0
     bbc:	00001012 	mflo	v0
     bc0:	2444ffff 	addiu	a0,v0,-1
     bc4:	3c020000 	lui	v0,0x0
     bc8:	00042080 	sll	a0,a0,0x2
     bcc:	24426220 	addiu	v0,v0,25120
     bd0:	00821021 	addu	v0,a0,v0
     bd4:	8c420000 	lw	v0,0(v0)
     bd8:	00000000 	sll	zero,zero,0x0
     bdc:	00621026 	xor	v0,v1,v0
     be0:	afc20024 	sw	v0,36(s8)
     be4:	8fc20010 	lw	v0,16(s8)
     be8:	00000000 	sll	zero,zero,0x0
     bec:	2443ffff 	addiu	v1,v0,-1
     bf0:	3c020000 	lui	v0,0x0
     bf4:	246300f0 	addiu	v1,v1,240
     bf8:	00031880 	sll	v1,v1,0x2
     bfc:	24426e30 	addiu	v0,v0,28208
     c00:	00621021 	addu	v0,v1,v0
     c04:	8c420000 	lw	v0,0(v0)
     c08:	00000000 	sll	zero,zero,0x0
     c0c:	00402021 	addu	a0,v0,zero
     c10:	0c000ac4 	jal	0x2b10
     c14:	00000000 	sll	zero,zero,0x0
     c18:	afc20028 	sw	v0,40(s8)
     c1c:	8fc20010 	lw	v0,16(s8)
     c20:	00000000 	sll	zero,zero,0x0
     c24:	2443ffff 	addiu	v1,v0,-1
     c28:	3c020000 	lui	v0,0x0
     c2c:	24630168 	addiu	v1,v1,360
     c30:	00031880 	sll	v1,v1,0x2
     c34:	24426e30 	addiu	v0,v0,28208
     c38:	00621021 	addu	v0,v1,v0
     c3c:	8c420000 	lw	v0,0(v0)
     c40:	00000000 	sll	zero,zero,0x0
     c44:	00402021 	addu	a0,v0,zero
     c48:	0c000ac4 	jal	0x2b10
     c4c:	00000000 	sll	zero,zero,0x0
     c50:	afc2002c 	sw	v0,44(s8)
     c54:	8fc20010 	lw	v0,16(s8)
     c58:	00000000 	sll	zero,zero,0x0
     c5c:	2443ffff 	addiu	v1,v0,-1
     c60:	3c020000 	lui	v0,0x0
     c64:	00031880 	sll	v1,v1,0x2
     c68:	24426e30 	addiu	v0,v0,28208
     c6c:	00621021 	addu	v0,v1,v0
     c70:	8c420000 	lw	v0,0(v0)
     c74:	00000000 	sll	zero,zero,0x0
     c78:	00402021 	addu	a0,v0,zero
     c7c:	0c000ac4 	jal	0x2b10
     c80:	00000000 	sll	zero,zero,0x0
     c84:	afc20030 	sw	v0,48(s8)
     c88:	8fc30010 	lw	v1,16(s8)
     c8c:	8fc20020 	lw	v0,32(s8)
     c90:	00000000 	sll	zero,zero,0x0
     c94:	14400002 	bnez	v0,0xca0
     c98:	0062001a 	div	zero,v1,v0
     c9c:	0007000d 	break	0x7
     ca0:	00001010 	mfhi	v0
     ca4:	1040002c 	beqz	v0,0xd58
     ca8:	00000000 	sll	zero,zero,0x0
     cac:	8fc20010 	lw	v0,16(s8)
     cb0:	00000000 	sll	zero,zero,0x0
     cb4:	2443ffff 	addiu	v1,v0,-1
     cb8:	3c020000 	lui	v0,0x0
     cbc:	00031880 	sll	v1,v1,0x2
     cc0:	24426e30 	addiu	v0,v0,28208
     cc4:	00621021 	addu	v0,v1,v0
     cc8:	8c420000 	lw	v0,0(v0)
     ccc:	00000000 	sll	zero,zero,0x0
     cd0:	afc20024 	sw	v0,36(s8)
     cd4:	8fc20010 	lw	v0,16(s8)
     cd8:	00000000 	sll	zero,zero,0x0
     cdc:	2443ffff 	addiu	v1,v0,-1
     ce0:	3c020000 	lui	v0,0x0
     ce4:	24630078 	addiu	v1,v1,120
     ce8:	00031880 	sll	v1,v1,0x2
     cec:	24426e30 	addiu	v0,v0,28208
     cf0:	00621021 	addu	v0,v1,v0
     cf4:	8c420000 	lw	v0,0(v0)
     cf8:	00000000 	sll	zero,zero,0x0
     cfc:	afc20028 	sw	v0,40(s8)
     d00:	8fc20010 	lw	v0,16(s8)
     d04:	00000000 	sll	zero,zero,0x0
     d08:	2443ffff 	addiu	v1,v0,-1
     d0c:	3c020000 	lui	v0,0x0
     d10:	246300f0 	addiu	v1,v1,240
     d14:	00031880 	sll	v1,v1,0x2
     d18:	24426e30 	addiu	v0,v0,28208
     d1c:	00621021 	addu	v0,v1,v0
     d20:	8c420000 	lw	v0,0(v0)
     d24:	00000000 	sll	zero,zero,0x0
     d28:	afc2002c 	sw	v0,44(s8)
     d2c:	8fc20010 	lw	v0,16(s8)
     d30:	00000000 	sll	zero,zero,0x0
     d34:	2443ffff 	addiu	v1,v0,-1
     d38:	3c020000 	lui	v0,0x0
     d3c:	24630168 	addiu	v1,v1,360
     d40:	00031880 	sll	v1,v1,0x2
     d44:	24426e30 	addiu	v0,v0,28208
     d48:	00621021 	addu	v0,v1,v0
     d4c:	8c420000 	lw	v0,0(v0)
     d50:	00000000 	sll	zero,zero,0x0
     d54:	afc20030 	sw	v0,48(s8)
     d58:	8fc20020 	lw	v0,32(s8)
     d5c:	00000000 	sll	zero,zero,0x0
     d60:	28420007 	slti	v0,v0,7
     d64:	14400028 	bnez	v0,0xe08
     d68:	00000000 	sll	zero,zero,0x0
     d6c:	8fc30010 	lw	v1,16(s8)
     d70:	8fc20020 	lw	v0,32(s8)
     d74:	00000000 	sll	zero,zero,0x0
     d78:	14400002 	bnez	v0,0xd84
     d7c:	0062001a 	div	zero,v1,v0
     d80:	0007000d 	break	0x7
     d84:	00001010 	mfhi	v0
     d88:	00401821 	addu	v1,v0,zero
     d8c:	24020004 	addiu	v0,zero,4
     d90:	1462001d 	bne	v1,v0,0xe08
     d94:	00000000 	sll	zero,zero,0x0
     d98:	afc00014 	sw	zero,20(s8)
     d9c:	0800037d 	j	0xdf4
     da0:	00000000 	sll	zero,zero,0x0
     da4:	8fd00014 	lw	s0,20(s8)
     da8:	8fc20014 	lw	v0,20(s8)
     dac:	00000000 	sll	zero,zero,0x0
     db0:	00021080 	sll	v0,v0,0x2
     db4:	27c30010 	addiu	v1,s8,16
     db8:	00621021 	addu	v0,v1,v0
     dbc:	8c420014 	lw	v0,20(v0)
     dc0:	00000000 	sll	zero,zero,0x0
     dc4:	00402021 	addu	a0,v0,zero
     dc8:	0c000ac4 	jal	0x2b10
     dcc:	00000000 	sll	zero,zero,0x0
     dd0:	00401821 	addu	v1,v0,zero
     dd4:	00101080 	sll	v0,s0,0x2
     dd8:	27c40010 	addiu	a0,s8,16
     ddc:	00821021 	addu	v0,a0,v0
     de0:	ac430014 	sw	v1,20(v0)
     de4:	8fc20014 	lw	v0,20(s8)
     de8:	00000000 	sll	zero,zero,0x0
     dec:	24420001 	addiu	v0,v0,1
     df0:	afc20014 	sw	v0,20(s8)
     df4:	8fc20014 	lw	v0,20(s8)
     df8:	00000000 	sll	zero,zero,0x0
     dfc:	28420004 	slti	v0,v0,4
     e00:	1440ffe8 	bnez	v0,0xda4
     e04:	00000000 	sll	zero,zero,0x0
     e08:	afc00014 	sw	zero,20(s8)
     e0c:	080003ab 	j	0xeac
     e10:	00000000 	sll	zero,zero,0x0
     e14:	8fc70014 	lw	a3,20(s8)
     e18:	8fc60010 	lw	a2,16(s8)
     e1c:	8fc20014 	lw	v0,20(s8)
     e20:	8fc40010 	lw	a0,16(s8)
     e24:	8fc30020 	lw	v1,32(s8)
     e28:	00000000 	sll	zero,zero,0x0
     e2c:	00832823 	subu	a1,a0,v1
     e30:	3c040000 	lui	a0,0x0
     e34:	000210c0 	sll	v0,v0,0x3
     e38:	00021900 	sll	v1,v0,0x4
     e3c:	00621823 	subu	v1,v1,v0
     e40:	00651021 	addu	v0,v1,a1
     e44:	00021880 	sll	v1,v0,0x2
     e48:	24826e30 	addiu	v0,a0,28208
     e4c:	00621021 	addu	v0,v1,v0
     e50:	8c430000 	lw	v1,0(v0)
     e54:	8fc20014 	lw	v0,20(s8)
     e58:	00000000 	sll	zero,zero,0x0
     e5c:	00021080 	sll	v0,v0,0x2
     e60:	27c40010 	addiu	a0,s8,16
     e64:	00821021 	addu	v0,a0,v0
     e68:	8c420014 	lw	v0,20(v0)
     e6c:	00000000 	sll	zero,zero,0x0
     e70:	00622026 	xor	a0,v1,v0
     e74:	3c050000 	lui	a1,0x0
     e78:	00e01021 	addu	v0,a3,zero
     e7c:	000210c0 	sll	v0,v0,0x3
     e80:	00021900 	sll	v1,v0,0x4
     e84:	00621823 	subu	v1,v1,v0
     e88:	00661021 	addu	v0,v1,a2
     e8c:	00021880 	sll	v1,v0,0x2
     e90:	24a26e30 	addiu	v0,a1,28208
     e94:	00621021 	addu	v0,v1,v0
     e98:	ac440000 	sw	a0,0(v0)
     e9c:	8fc20014 	lw	v0,20(s8)
     ea0:	00000000 	sll	zero,zero,0x0
     ea4:	24420001 	addiu	v0,v0,1
     ea8:	afc20014 	sw	v0,20(s8)
     eac:	8fc20014 	lw	v0,20(s8)
     eb0:	00000000 	sll	zero,zero,0x0
     eb4:	28420004 	slti	v0,v0,4
     eb8:	1440ffd6 	bnez	v0,0xe14
     ebc:	00000000 	sll	zero,zero,0x0
     ec0:	8fc20010 	lw	v0,16(s8)
     ec4:	00000000 	sll	zero,zero,0x0
     ec8:	24420001 	addiu	v0,v0,1
     ecc:	afc20010 	sw	v0,16(s8)
     ed0:	8fc20018 	lw	v0,24(s8)
     ed4:	00000000 	sll	zero,zero,0x0
     ed8:	24430001 	addiu	v1,v0,1
     edc:	8fc2001c 	lw	v0,28(s8)
     ee0:	00000000 	sll	zero,zero,0x0
     ee4:	00620018 	mult	v1,v0
     ee8:	00001812 	mflo	v1
     eec:	8fc20010 	lw	v0,16(s8)
     ef0:	00000000 	sll	zero,zero,0x0
     ef4:	0043102a 	slt	v0,v0,v1
     ef8:	1440ff12 	bnez	v0,0xb44
     efc:	00000000 	sll	zero,zero,0x0
     f00:	00001021 	addu	v0,zero,zero
     f04:	03c0e821 	addu	sp,s8,zero
     f08:	8fbf0044 	lw	ra,68(sp)
     f0c:	8fbe0040 	lw	s8,64(sp)
     f10:	8fb0003c 	lw	s0,60(sp)
     f14:	27bd0048 	addiu	sp,sp,72
     f18:	03e00008 	jr	ra
     f1c:	00000000 	sll	zero,zero,0x0
     f20:	27bdfff0 	addiu	sp,sp,-16
     f24:	afbe000c 	sw	s8,12(sp)
     f28:	03a0f021 	addu	s8,sp,zero
     f2c:	afc40010 	sw	a0,16(s8)
     f30:	afc50014 	sw	a1,20(s8)
     f34:	8fc20014 	lw	v0,20(s8)
     f38:	24030006 	addiu	v1,zero,6
     f3c:	10430191 	beq	v0,v1,0x1584
     f40:	00000000 	sll	zero,zero,0x0
     f44:	24030008 	addiu	v1,zero,8
     f48:	104303de 	beq	v0,v1,0x1ec4
     f4c:	00000000 	sll	zero,zero,0x0
     f50:	24030004 	addiu	v1,zero,4
     f54:	144306e9 	bne	v0,v1,0x2afc
     f58:	00000000 	sll	zero,zero,0x0
     f5c:	8fc20010 	lw	v0,16(s8)
     f60:	00000000 	sll	zero,zero,0x0
     f64:	24420004 	addiu	v0,v0,4
     f68:	8c420000 	lw	v0,0(v0)
     f6c:	00000000 	sll	zero,zero,0x0
     f70:	00022103 	sra	a0,v0,0x4
     f74:	8fc20010 	lw	v0,16(s8)
     f78:	00000000 	sll	zero,zero,0x0
     f7c:	24420004 	addiu	v0,v0,4
     f80:	8c420000 	lw	v0,0(v0)
     f84:	00000000 	sll	zero,zero,0x0
     f88:	3043000f 	andi	v1,v0,0xf
     f8c:	3c020000 	lui	v0,0x0
     f90:	00042100 	sll	a0,a0,0x4
     f94:	00831821 	addu	v1,a0,v1
     f98:	00031880 	sll	v1,v1,0x2
     f9c:	24426298 	addiu	v0,v0,25240
     fa0:	00621021 	addu	v0,v1,v0
     fa4:	8c420000 	lw	v0,0(v0)
     fa8:	00000000 	sll	zero,zero,0x0
     fac:	afc20000 	sw	v0,0(s8)
     fb0:	8fc20010 	lw	v0,16(s8)
     fb4:	00000000 	sll	zero,zero,0x0
     fb8:	24420004 	addiu	v0,v0,4
     fbc:	8fc30010 	lw	v1,16(s8)
     fc0:	00000000 	sll	zero,zero,0x0
     fc4:	24630014 	addiu	v1,v1,20
     fc8:	8c630000 	lw	v1,0(v1)
     fcc:	00000000 	sll	zero,zero,0x0
     fd0:	00032903 	sra	a1,v1,0x4
     fd4:	8fc30010 	lw	v1,16(s8)
     fd8:	00000000 	sll	zero,zero,0x0
     fdc:	24630014 	addiu	v1,v1,20
     fe0:	8c630000 	lw	v1,0(v1)
     fe4:	00000000 	sll	zero,zero,0x0
     fe8:	3064000f 	andi	a0,v1,0xf
     fec:	3c030000 	lui	v1,0x0
     ff0:	00052900 	sll	a1,a1,0x4
     ff4:	00a42021 	addu	a0,a1,a0
     ff8:	00042080 	sll	a0,a0,0x2
     ffc:	24636298 	addiu	v1,v1,25240
    1000:	00831821 	addu	v1,a0,v1
    1004:	8c630000 	lw	v1,0(v1)
    1008:	00000000 	sll	zero,zero,0x0
    100c:	ac430000 	sw	v1,0(v0)
    1010:	8fc20010 	lw	v0,16(s8)
    1014:	00000000 	sll	zero,zero,0x0
    1018:	24420014 	addiu	v0,v0,20
    101c:	8fc30010 	lw	v1,16(s8)
    1020:	00000000 	sll	zero,zero,0x0
    1024:	24630024 	addiu	v1,v1,36
    1028:	8c630000 	lw	v1,0(v1)
    102c:	00000000 	sll	zero,zero,0x0
    1030:	00032903 	sra	a1,v1,0x4
    1034:	8fc30010 	lw	v1,16(s8)
    1038:	00000000 	sll	zero,zero,0x0
    103c:	24630024 	addiu	v1,v1,36
    1040:	8c630000 	lw	v1,0(v1)
    1044:	00000000 	sll	zero,zero,0x0
    1048:	3064000f 	andi	a0,v1,0xf
    104c:	3c030000 	lui	v1,0x0
    1050:	00052900 	sll	a1,a1,0x4
    1054:	00a42021 	addu	a0,a1,a0
    1058:	00042080 	sll	a0,a0,0x2
    105c:	24636298 	addiu	v1,v1,25240
    1060:	00831821 	addu	v1,a0,v1
    1064:	8c630000 	lw	v1,0(v1)
    1068:	00000000 	sll	zero,zero,0x0
    106c:	ac430000 	sw	v1,0(v0)
    1070:	8fc20010 	lw	v0,16(s8)
    1074:	00000000 	sll	zero,zero,0x0
    1078:	24420024 	addiu	v0,v0,36
    107c:	8fc30010 	lw	v1,16(s8)
    1080:	00000000 	sll	zero,zero,0x0
    1084:	24630034 	addiu	v1,v1,52
    1088:	8c630000 	lw	v1,0(v1)
    108c:	00000000 	sll	zero,zero,0x0
    1090:	00032903 	sra	a1,v1,0x4
    1094:	8fc30010 	lw	v1,16(s8)
    1098:	00000000 	sll	zero,zero,0x0
    109c:	24630034 	addiu	v1,v1,52
    10a0:	8c630000 	lw	v1,0(v1)
    10a4:	00000000 	sll	zero,zero,0x0
    10a8:	3064000f 	andi	a0,v1,0xf
    10ac:	3c030000 	lui	v1,0x0
    10b0:	00052900 	sll	a1,a1,0x4
    10b4:	00a42021 	addu	a0,a1,a0
    10b8:	00042080 	sll	a0,a0,0x2
    10bc:	24636298 	addiu	v1,v1,25240
    10c0:	00831821 	addu	v1,a0,v1
    10c4:	8c630000 	lw	v1,0(v1)
    10c8:	00000000 	sll	zero,zero,0x0
    10cc:	ac430000 	sw	v1,0(v0)
    10d0:	8fc20010 	lw	v0,16(s8)
    10d4:	00000000 	sll	zero,zero,0x0
    10d8:	24420034 	addiu	v0,v0,52
    10dc:	8fc30000 	lw	v1,0(s8)
    10e0:	00000000 	sll	zero,zero,0x0
    10e4:	ac430000 	sw	v1,0(v0)
    10e8:	8fc20010 	lw	v0,16(s8)
    10ec:	00000000 	sll	zero,zero,0x0
    10f0:	24420008 	addiu	v0,v0,8
    10f4:	8c420000 	lw	v0,0(v0)
    10f8:	00000000 	sll	zero,zero,0x0
    10fc:	00022103 	sra	a0,v0,0x4
    1100:	8fc20010 	lw	v0,16(s8)
    1104:	00000000 	sll	zero,zero,0x0
    1108:	24420008 	addiu	v0,v0,8
    110c:	8c420000 	lw	v0,0(v0)
    1110:	00000000 	sll	zero,zero,0x0
    1114:	3043000f 	andi	v1,v0,0xf
    1118:	3c020000 	lui	v0,0x0
    111c:	00042100 	sll	a0,a0,0x4
    1120:	00831821 	addu	v1,a0,v1
    1124:	00031880 	sll	v1,v1,0x2
    1128:	24426298 	addiu	v0,v0,25240
    112c:	00621021 	addu	v0,v1,v0
    1130:	8c420000 	lw	v0,0(v0)
    1134:	00000000 	sll	zero,zero,0x0
    1138:	afc20000 	sw	v0,0(s8)
    113c:	8fc20010 	lw	v0,16(s8)
    1140:	00000000 	sll	zero,zero,0x0
    1144:	24420008 	addiu	v0,v0,8
    1148:	8fc30010 	lw	v1,16(s8)
    114c:	00000000 	sll	zero,zero,0x0
    1150:	24630028 	addiu	v1,v1,40
    1154:	8c630000 	lw	v1,0(v1)
    1158:	00000000 	sll	zero,zero,0x0
    115c:	00032903 	sra	a1,v1,0x4
    1160:	8fc30010 	lw	v1,16(s8)
    1164:	00000000 	sll	zero,zero,0x0
    1168:	24630028 	addiu	v1,v1,40
    116c:	8c630000 	lw	v1,0(v1)
    1170:	00000000 	sll	zero,zero,0x0
    1174:	3064000f 	andi	a0,v1,0xf
    1178:	3c030000 	lui	v1,0x0
    117c:	00052900 	sll	a1,a1,0x4
    1180:	00a42021 	addu	a0,a1,a0
    1184:	00042080 	sll	a0,a0,0x2
    1188:	24636298 	addiu	v1,v1,25240
    118c:	00831821 	addu	v1,a0,v1
    1190:	8c630000 	lw	v1,0(v1)
    1194:	00000000 	sll	zero,zero,0x0
    1198:	ac430000 	sw	v1,0(v0)
    119c:	8fc20010 	lw	v0,16(s8)
    11a0:	00000000 	sll	zero,zero,0x0
    11a4:	24420028 	addiu	v0,v0,40
    11a8:	8fc30000 	lw	v1,0(s8)
    11ac:	00000000 	sll	zero,zero,0x0
    11b0:	ac430000 	sw	v1,0(v0)
    11b4:	8fc20010 	lw	v0,16(s8)
    11b8:	00000000 	sll	zero,zero,0x0
    11bc:	24420018 	addiu	v0,v0,24
    11c0:	8c420000 	lw	v0,0(v0)
    11c4:	00000000 	sll	zero,zero,0x0
    11c8:	00022103 	sra	a0,v0,0x4
    11cc:	8fc20010 	lw	v0,16(s8)
    11d0:	00000000 	sll	zero,zero,0x0
    11d4:	24420018 	addiu	v0,v0,24
    11d8:	8c420000 	lw	v0,0(v0)
    11dc:	00000000 	sll	zero,zero,0x0
    11e0:	3043000f 	andi	v1,v0,0xf
    11e4:	3c020000 	lui	v0,0x0
    11e8:	00042100 	sll	a0,a0,0x4
    11ec:	00831821 	addu	v1,a0,v1
    11f0:	00031880 	sll	v1,v1,0x2
    11f4:	24426298 	addiu	v0,v0,25240
    11f8:	00621021 	addu	v0,v1,v0
    11fc:	8c420000 	lw	v0,0(v0)
    1200:	00000000 	sll	zero,zero,0x0
    1204:	afc20000 	sw	v0,0(s8)
    1208:	8fc20010 	lw	v0,16(s8)
    120c:	00000000 	sll	zero,zero,0x0
    1210:	24420018 	addiu	v0,v0,24
    1214:	8fc30010 	lw	v1,16(s8)
    1218:	00000000 	sll	zero,zero,0x0
    121c:	24630038 	addiu	v1,v1,56
    1220:	8c630000 	lw	v1,0(v1)
    1224:	00000000 	sll	zero,zero,0x0
    1228:	00032903 	sra	a1,v1,0x4
    122c:	8fc30010 	lw	v1,16(s8)
    1230:	00000000 	sll	zero,zero,0x0
    1234:	24630038 	addiu	v1,v1,56
    1238:	8c630000 	lw	v1,0(v1)
    123c:	00000000 	sll	zero,zero,0x0
    1240:	3064000f 	andi	a0,v1,0xf
    1244:	3c030000 	lui	v1,0x0
    1248:	00052900 	sll	a1,a1,0x4
    124c:	00a42021 	addu	a0,a1,a0
    1250:	00042080 	sll	a0,a0,0x2
    1254:	24636298 	addiu	v1,v1,25240
    1258:	00831821 	addu	v1,a0,v1
    125c:	8c630000 	lw	v1,0(v1)
    1260:	00000000 	sll	zero,zero,0x0
    1264:	ac430000 	sw	v1,0(v0)
    1268:	8fc20010 	lw	v0,16(s8)
    126c:	00000000 	sll	zero,zero,0x0
    1270:	24420038 	addiu	v0,v0,56
    1274:	8fc30000 	lw	v1,0(s8)
    1278:	00000000 	sll	zero,zero,0x0
    127c:	ac430000 	sw	v1,0(v0)
    1280:	8fc20010 	lw	v0,16(s8)
    1284:	00000000 	sll	zero,zero,0x0
    1288:	2442000c 	addiu	v0,v0,12
    128c:	8c420000 	lw	v0,0(v0)
    1290:	00000000 	sll	zero,zero,0x0
    1294:	00022103 	sra	a0,v0,0x4
    1298:	8fc20010 	lw	v0,16(s8)
    129c:	00000000 	sll	zero,zero,0x0
    12a0:	2442000c 	addiu	v0,v0,12
    12a4:	8c420000 	lw	v0,0(v0)
    12a8:	00000000 	sll	zero,zero,0x0
    12ac:	3043000f 	andi	v1,v0,0xf
    12b0:	3c020000 	lui	v0,0x0
    12b4:	00042100 	sll	a0,a0,0x4
    12b8:	00831821 	addu	v1,a0,v1
    12bc:	00031880 	sll	v1,v1,0x2
    12c0:	24426298 	addiu	v0,v0,25240
    12c4:	00621021 	addu	v0,v1,v0
    12c8:	8c420000 	lw	v0,0(v0)
    12cc:	00000000 	sll	zero,zero,0x0
    12d0:	afc20000 	sw	v0,0(s8)
    12d4:	8fc20010 	lw	v0,16(s8)
    12d8:	00000000 	sll	zero,zero,0x0
    12dc:	2442000c 	addiu	v0,v0,12
    12e0:	8fc30010 	lw	v1,16(s8)
    12e4:	00000000 	sll	zero,zero,0x0
    12e8:	2463003c 	addiu	v1,v1,60
    12ec:	8c630000 	lw	v1,0(v1)
    12f0:	00000000 	sll	zero,zero,0x0
    12f4:	00032903 	sra	a1,v1,0x4
    12f8:	8fc30010 	lw	v1,16(s8)
    12fc:	00000000 	sll	zero,zero,0x0
    1300:	2463003c 	addiu	v1,v1,60
    1304:	8c630000 	lw	v1,0(v1)
    1308:	00000000 	sll	zero,zero,0x0
    130c:	3064000f 	andi	a0,v1,0xf
    1310:	3c030000 	lui	v1,0x0
    1314:	00052900 	sll	a1,a1,0x4
    1318:	00a42021 	addu	a0,a1,a0
    131c:	00042080 	sll	a0,a0,0x2
    1320:	24636298 	addiu	v1,v1,25240
    1324:	00831821 	addu	v1,a0,v1
    1328:	8c630000 	lw	v1,0(v1)
    132c:	00000000 	sll	zero,zero,0x0
    1330:	ac430000 	sw	v1,0(v0)
    1334:	8fc20010 	lw	v0,16(s8)
    1338:	00000000 	sll	zero,zero,0x0
    133c:	2442003c 	addiu	v0,v0,60
    1340:	8fc30010 	lw	v1,16(s8)
    1344:	00000000 	sll	zero,zero,0x0
    1348:	2463002c 	addiu	v1,v1,44
    134c:	8c630000 	lw	v1,0(v1)
    1350:	00000000 	sll	zero,zero,0x0
    1354:	00032903 	sra	a1,v1,0x4
    1358:	8fc30010 	lw	v1,16(s8)
    135c:	00000000 	sll	zero,zero,0x0
    1360:	2463002c 	addiu	v1,v1,44
    1364:	8c630000 	lw	v1,0(v1)
    1368:	00000000 	sll	zero,zero,0x0
    136c:	3064000f 	andi	a0,v1,0xf
    1370:	3c030000 	lui	v1,0x0
    1374:	00052900 	sll	a1,a1,0x4
    1378:	00a42021 	addu	a0,a1,a0
    137c:	00042080 	sll	a0,a0,0x2
    1380:	24636298 	addiu	v1,v1,25240
    1384:	00831821 	addu	v1,a0,v1
    1388:	8c630000 	lw	v1,0(v1)
    138c:	00000000 	sll	zero,zero,0x0
    1390:	ac430000 	sw	v1,0(v0)
    1394:	8fc20010 	lw	v0,16(s8)
    1398:	00000000 	sll	zero,zero,0x0
    139c:	2442002c 	addiu	v0,v0,44
    13a0:	8fc30010 	lw	v1,16(s8)
    13a4:	00000000 	sll	zero,zero,0x0
    13a8:	2463001c 	addiu	v1,v1,28
    13ac:	8c630000 	lw	v1,0(v1)
    13b0:	00000000 	sll	zero,zero,0x0
    13b4:	00032903 	sra	a1,v1,0x4
    13b8:	8fc30010 	lw	v1,16(s8)
    13bc:	00000000 	sll	zero,zero,0x0
    13c0:	2463001c 	addiu	v1,v1,28
    13c4:	8c630000 	lw	v1,0(v1)
    13c8:	00000000 	sll	zero,zero,0x0
    13cc:	3064000f 	andi	a0,v1,0xf
    13d0:	3c030000 	lui	v1,0x0
    13d4:	00052900 	sll	a1,a1,0x4
    13d8:	00a42021 	addu	a0,a1,a0
    13dc:	00042080 	sll	a0,a0,0x2
    13e0:	24636298 	addiu	v1,v1,25240
    13e4:	00831821 	addu	v1,a0,v1
    13e8:	8c630000 	lw	v1,0(v1)
    13ec:	00000000 	sll	zero,zero,0x0
    13f0:	ac430000 	sw	v1,0(v0)
    13f4:	8fc20010 	lw	v0,16(s8)
    13f8:	00000000 	sll	zero,zero,0x0
    13fc:	2442001c 	addiu	v0,v0,28
    1400:	8fc30000 	lw	v1,0(s8)
    1404:	00000000 	sll	zero,zero,0x0
    1408:	ac430000 	sw	v1,0(v0)
    140c:	8fc20010 	lw	v0,16(s8)
    1410:	00000000 	sll	zero,zero,0x0
    1414:	8c420000 	lw	v0,0(v0)
    1418:	00000000 	sll	zero,zero,0x0
    141c:	00022103 	sra	a0,v0,0x4
    1420:	8fc20010 	lw	v0,16(s8)
    1424:	00000000 	sll	zero,zero,0x0
    1428:	8c420000 	lw	v0,0(v0)
    142c:	00000000 	sll	zero,zero,0x0
    1430:	3043000f 	andi	v1,v0,0xf
    1434:	3c020000 	lui	v0,0x0
    1438:	00042100 	sll	a0,a0,0x4
    143c:	00831821 	addu	v1,a0,v1
    1440:	00031880 	sll	v1,v1,0x2
    1444:	24426298 	addiu	v0,v0,25240
    1448:	00621021 	addu	v0,v1,v0
    144c:	8c430000 	lw	v1,0(v0)
    1450:	8fc20010 	lw	v0,16(s8)
    1454:	00000000 	sll	zero,zero,0x0
    1458:	ac430000 	sw	v1,0(v0)
    145c:	8fc20010 	lw	v0,16(s8)
    1460:	00000000 	sll	zero,zero,0x0
    1464:	24420010 	addiu	v0,v0,16
    1468:	8fc30010 	lw	v1,16(s8)
    146c:	00000000 	sll	zero,zero,0x0
    1470:	24630010 	addiu	v1,v1,16
    1474:	8c630000 	lw	v1,0(v1)
    1478:	00000000 	sll	zero,zero,0x0
    147c:	00032903 	sra	a1,v1,0x4
    1480:	8fc30010 	lw	v1,16(s8)
    1484:	00000000 	sll	zero,zero,0x0
    1488:	24630010 	addiu	v1,v1,16
    148c:	8c630000 	lw	v1,0(v1)
    1490:	00000000 	sll	zero,zero,0x0
    1494:	3064000f 	andi	a0,v1,0xf
    1498:	3c030000 	lui	v1,0x0
    149c:	00052900 	sll	a1,a1,0x4
    14a0:	00a42021 	addu	a0,a1,a0
    14a4:	00042080 	sll	a0,a0,0x2
    14a8:	24636298 	addiu	v1,v1,25240
    14ac:	00831821 	addu	v1,a0,v1
    14b0:	8c630000 	lw	v1,0(v1)
    14b4:	00000000 	sll	zero,zero,0x0
    14b8:	ac430000 	sw	v1,0(v0)
    14bc:	8fc20010 	lw	v0,16(s8)
    14c0:	00000000 	sll	zero,zero,0x0
    14c4:	24420020 	addiu	v0,v0,32
    14c8:	8fc30010 	lw	v1,16(s8)
    14cc:	00000000 	sll	zero,zero,0x0
    14d0:	24630020 	addiu	v1,v1,32
    14d4:	8c630000 	lw	v1,0(v1)
    14d8:	00000000 	sll	zero,zero,0x0
    14dc:	00032903 	sra	a1,v1,0x4
    14e0:	8fc30010 	lw	v1,16(s8)
    14e4:	00000000 	sll	zero,zero,0x0
    14e8:	24630020 	addiu	v1,v1,32
    14ec:	8c630000 	lw	v1,0(v1)
    14f0:	00000000 	sll	zero,zero,0x0
    14f4:	3064000f 	andi	a0,v1,0xf
    14f8:	3c030000 	lui	v1,0x0
    14fc:	00052900 	sll	a1,a1,0x4
    1500:	00a42021 	addu	a0,a1,a0
    1504:	00042080 	sll	a0,a0,0x2
    1508:	24636298 	addiu	v1,v1,25240
    150c:	00831821 	addu	v1,a0,v1
    1510:	8c630000 	lw	v1,0(v1)
    1514:	00000000 	sll	zero,zero,0x0
    1518:	ac430000 	sw	v1,0(v0)
    151c:	8fc20010 	lw	v0,16(s8)
    1520:	00000000 	sll	zero,zero,0x0
    1524:	24420030 	addiu	v0,v0,48
    1528:	8fc30010 	lw	v1,16(s8)
    152c:	00000000 	sll	zero,zero,0x0
    1530:	24630030 	addiu	v1,v1,48
    1534:	8c630000 	lw	v1,0(v1)
    1538:	00000000 	sll	zero,zero,0x0
    153c:	00032903 	sra	a1,v1,0x4
    1540:	8fc30010 	lw	v1,16(s8)
    1544:	00000000 	sll	zero,zero,0x0
    1548:	24630030 	addiu	v1,v1,48
    154c:	8c630000 	lw	v1,0(v1)
    1550:	00000000 	sll	zero,zero,0x0
    1554:	3064000f 	andi	a0,v1,0xf
    1558:	3c030000 	lui	v1,0x0
    155c:	00052900 	sll	a1,a1,0x4
    1560:	00a42021 	addu	a0,a1,a0
    1564:	00042080 	sll	a0,a0,0x2
    1568:	24636298 	addiu	v1,v1,25240
    156c:	00831821 	addu	v1,a0,v1
    1570:	8c630000 	lw	v1,0(v1)
    1574:	00000000 	sll	zero,zero,0x0
    1578:	ac430000 	sw	v1,0(v0)
    157c:	08000abf 	j	0x2afc
    1580:	00000000 	sll	zero,zero,0x0
    1584:	8fc20010 	lw	v0,16(s8)
    1588:	00000000 	sll	zero,zero,0x0
    158c:	24420004 	addiu	v0,v0,4
    1590:	8c420000 	lw	v0,0(v0)
    1594:	00000000 	sll	zero,zero,0x0
    1598:	00022103 	sra	a0,v0,0x4
    159c:	8fc20010 	lw	v0,16(s8)
    15a0:	00000000 	sll	zero,zero,0x0
    15a4:	24420004 	addiu	v0,v0,4
    15a8:	8c420000 	lw	v0,0(v0)
    15ac:	00000000 	sll	zero,zero,0x0
    15b0:	3043000f 	andi	v1,v0,0xf
    15b4:	3c020000 	lui	v0,0x0
    15b8:	00042100 	sll	a0,a0,0x4
    15bc:	00831821 	addu	v1,a0,v1
    15c0:	00031880 	sll	v1,v1,0x2
    15c4:	24426298 	addiu	v0,v0,25240
    15c8:	00621021 	addu	v0,v1,v0
    15cc:	8c420000 	lw	v0,0(v0)
    15d0:	00000000 	sll	zero,zero,0x0
    15d4:	afc20000 	sw	v0,0(s8)
    15d8:	8fc20010 	lw	v0,16(s8)
    15dc:	00000000 	sll	zero,zero,0x0
    15e0:	24420004 	addiu	v0,v0,4
    15e4:	8fc30010 	lw	v1,16(s8)
    15e8:	00000000 	sll	zero,zero,0x0
    15ec:	24630014 	addiu	v1,v1,20
    15f0:	8c630000 	lw	v1,0(v1)
    15f4:	00000000 	sll	zero,zero,0x0
    15f8:	00032903 	sra	a1,v1,0x4
    15fc:	8fc30010 	lw	v1,16(s8)
    1600:	00000000 	sll	zero,zero,0x0
    1604:	24630014 	addiu	v1,v1,20
    1608:	8c630000 	lw	v1,0(v1)
    160c:	00000000 	sll	zero,zero,0x0
    1610:	3064000f 	andi	a0,v1,0xf
    1614:	3c030000 	lui	v1,0x0
    1618:	00052900 	sll	a1,a1,0x4
    161c:	00a42021 	addu	a0,a1,a0
    1620:	00042080 	sll	a0,a0,0x2
    1624:	24636298 	addiu	v1,v1,25240
    1628:	00831821 	addu	v1,a0,v1
    162c:	8c630000 	lw	v1,0(v1)
    1630:	00000000 	sll	zero,zero,0x0
    1634:	ac430000 	sw	v1,0(v0)
    1638:	8fc20010 	lw	v0,16(s8)
    163c:	00000000 	sll	zero,zero,0x0
    1640:	24420014 	addiu	v0,v0,20
    1644:	8fc30010 	lw	v1,16(s8)
    1648:	00000000 	sll	zero,zero,0x0
    164c:	24630024 	addiu	v1,v1,36
    1650:	8c630000 	lw	v1,0(v1)
    1654:	00000000 	sll	zero,zero,0x0
    1658:	00032903 	sra	a1,v1,0x4
    165c:	8fc30010 	lw	v1,16(s8)
    1660:	00000000 	sll	zero,zero,0x0
    1664:	24630024 	addiu	v1,v1,36
    1668:	8c630000 	lw	v1,0(v1)
    166c:	00000000 	sll	zero,zero,0x0
    1670:	3064000f 	andi	a0,v1,0xf
    1674:	3c030000 	lui	v1,0x0
    1678:	00052900 	sll	a1,a1,0x4
    167c:	00a42021 	addu	a0,a1,a0
    1680:	00042080 	sll	a0,a0,0x2
    1684:	24636298 	addiu	v1,v1,25240
    1688:	00831821 	addu	v1,a0,v1
    168c:	8c630000 	lw	v1,0(v1)
    1690:	00000000 	sll	zero,zero,0x0
    1694:	ac430000 	sw	v1,0(v0)
    1698:	8fc20010 	lw	v0,16(s8)
    169c:	00000000 	sll	zero,zero,0x0
    16a0:	24420024 	addiu	v0,v0,36
    16a4:	8fc30010 	lw	v1,16(s8)
    16a8:	00000000 	sll	zero,zero,0x0
    16ac:	24630034 	addiu	v1,v1,52
    16b0:	8c630000 	lw	v1,0(v1)
    16b4:	00000000 	sll	zero,zero,0x0
    16b8:	00032903 	sra	a1,v1,0x4
    16bc:	8fc30010 	lw	v1,16(s8)
    16c0:	00000000 	sll	zero,zero,0x0
    16c4:	24630034 	addiu	v1,v1,52
    16c8:	8c630000 	lw	v1,0(v1)
    16cc:	00000000 	sll	zero,zero,0x0
    16d0:	3064000f 	andi	a0,v1,0xf
    16d4:	3c030000 	lui	v1,0x0
    16d8:	00052900 	sll	a1,a1,0x4
    16dc:	00a42021 	addu	a0,a1,a0
    16e0:	00042080 	sll	a0,a0,0x2
    16e4:	24636298 	addiu	v1,v1,25240
    16e8:	00831821 	addu	v1,a0,v1
    16ec:	8c630000 	lw	v1,0(v1)
    16f0:	00000000 	sll	zero,zero,0x0
    16f4:	ac430000 	sw	v1,0(v0)
    16f8:	8fc20010 	lw	v0,16(s8)
    16fc:	00000000 	sll	zero,zero,0x0
    1700:	24420034 	addiu	v0,v0,52
    1704:	8fc30010 	lw	v1,16(s8)
    1708:	00000000 	sll	zero,zero,0x0
    170c:	24630044 	addiu	v1,v1,68
    1710:	8c630000 	lw	v1,0(v1)
    1714:	00000000 	sll	zero,zero,0x0
    1718:	00032903 	sra	a1,v1,0x4
    171c:	8fc30010 	lw	v1,16(s8)
    1720:	00000000 	sll	zero,zero,0x0
    1724:	24630044 	addiu	v1,v1,68
    1728:	8c630000 	lw	v1,0(v1)
    172c:	00000000 	sll	zero,zero,0x0
    1730:	3064000f 	andi	a0,v1,0xf
    1734:	3c030000 	lui	v1,0x0
    1738:	00052900 	sll	a1,a1,0x4
    173c:	00a42021 	addu	a0,a1,a0
    1740:	00042080 	sll	a0,a0,0x2
    1744:	24636298 	addiu	v1,v1,25240
    1748:	00831821 	addu	v1,a0,v1
    174c:	8c630000 	lw	v1,0(v1)
    1750:	00000000 	sll	zero,zero,0x0
    1754:	ac430000 	sw	v1,0(v0)
    1758:	8fc20010 	lw	v0,16(s8)
    175c:	00000000 	sll	zero,zero,0x0
    1760:	24420044 	addiu	v0,v0,68
    1764:	8fc30010 	lw	v1,16(s8)
    1768:	00000000 	sll	zero,zero,0x0
    176c:	24630054 	addiu	v1,v1,84
    1770:	8c630000 	lw	v1,0(v1)
    1774:	00000000 	sll	zero,zero,0x0
    1778:	00032903 	sra	a1,v1,0x4
    177c:	8fc30010 	lw	v1,16(s8)
    1780:	00000000 	sll	zero,zero,0x0
    1784:	24630054 	addiu	v1,v1,84
    1788:	8c630000 	lw	v1,0(v1)
    178c:	00000000 	sll	zero,zero,0x0
    1790:	3064000f 	andi	a0,v1,0xf
    1794:	3c030000 	lui	v1,0x0
    1798:	00052900 	sll	a1,a1,0x4
    179c:	00a42021 	addu	a0,a1,a0
    17a0:	00042080 	sll	a0,a0,0x2
    17a4:	24636298 	addiu	v1,v1,25240
    17a8:	00831821 	addu	v1,a0,v1
    17ac:	8c630000 	lw	v1,0(v1)
    17b0:	00000000 	sll	zero,zero,0x0
    17b4:	ac430000 	sw	v1,0(v0)
    17b8:	8fc20010 	lw	v0,16(s8)
    17bc:	00000000 	sll	zero,zero,0x0
    17c0:	24420054 	addiu	v0,v0,84
    17c4:	8fc30000 	lw	v1,0(s8)
    17c8:	00000000 	sll	zero,zero,0x0
    17cc:	ac430000 	sw	v1,0(v0)
    17d0:	8fc20010 	lw	v0,16(s8)
    17d4:	00000000 	sll	zero,zero,0x0
    17d8:	24420008 	addiu	v0,v0,8
    17dc:	8c420000 	lw	v0,0(v0)
    17e0:	00000000 	sll	zero,zero,0x0
    17e4:	00022103 	sra	a0,v0,0x4
    17e8:	8fc20010 	lw	v0,16(s8)
    17ec:	00000000 	sll	zero,zero,0x0
    17f0:	24420008 	addiu	v0,v0,8
    17f4:	8c420000 	lw	v0,0(v0)
    17f8:	00000000 	sll	zero,zero,0x0
    17fc:	3043000f 	andi	v1,v0,0xf
    1800:	3c020000 	lui	v0,0x0
    1804:	00042100 	sll	a0,a0,0x4
    1808:	00831821 	addu	v1,a0,v1
    180c:	00031880 	sll	v1,v1,0x2
    1810:	24426298 	addiu	v0,v0,25240
    1814:	00621021 	addu	v0,v1,v0
    1818:	8c420000 	lw	v0,0(v0)
    181c:	00000000 	sll	zero,zero,0x0
    1820:	afc20000 	sw	v0,0(s8)
    1824:	8fc20010 	lw	v0,16(s8)
    1828:	00000000 	sll	zero,zero,0x0
    182c:	24420008 	addiu	v0,v0,8
    1830:	8fc30010 	lw	v1,16(s8)
    1834:	00000000 	sll	zero,zero,0x0
    1838:	24630028 	addiu	v1,v1,40
    183c:	8c630000 	lw	v1,0(v1)
    1840:	00000000 	sll	zero,zero,0x0
    1844:	00032903 	sra	a1,v1,0x4
    1848:	8fc30010 	lw	v1,16(s8)
    184c:	00000000 	sll	zero,zero,0x0
    1850:	24630028 	addiu	v1,v1,40
    1854:	8c630000 	lw	v1,0(v1)
    1858:	00000000 	sll	zero,zero,0x0
    185c:	3064000f 	andi	a0,v1,0xf
    1860:	3c030000 	lui	v1,0x0
    1864:	00052900 	sll	a1,a1,0x4
    1868:	00a42021 	addu	a0,a1,a0
    186c:	00042080 	sll	a0,a0,0x2
    1870:	24636298 	addiu	v1,v1,25240
    1874:	00831821 	addu	v1,a0,v1
    1878:	8c630000 	lw	v1,0(v1)
    187c:	00000000 	sll	zero,zero,0x0
    1880:	ac430000 	sw	v1,0(v0)
    1884:	8fc20010 	lw	v0,16(s8)
    1888:	00000000 	sll	zero,zero,0x0
    188c:	24420028 	addiu	v0,v0,40
    1890:	8fc30010 	lw	v1,16(s8)
    1894:	00000000 	sll	zero,zero,0x0
    1898:	24630048 	addiu	v1,v1,72
    189c:	8c630000 	lw	v1,0(v1)
    18a0:	00000000 	sll	zero,zero,0x0
    18a4:	00032903 	sra	a1,v1,0x4
    18a8:	8fc30010 	lw	v1,16(s8)
    18ac:	00000000 	sll	zero,zero,0x0
    18b0:	24630048 	addiu	v1,v1,72
    18b4:	8c630000 	lw	v1,0(v1)
    18b8:	00000000 	sll	zero,zero,0x0
    18bc:	3064000f 	andi	a0,v1,0xf
    18c0:	3c030000 	lui	v1,0x0
    18c4:	00052900 	sll	a1,a1,0x4
    18c8:	00a42021 	addu	a0,a1,a0
    18cc:	00042080 	sll	a0,a0,0x2
    18d0:	24636298 	addiu	v1,v1,25240
    18d4:	00831821 	addu	v1,a0,v1
    18d8:	8c630000 	lw	v1,0(v1)
    18dc:	00000000 	sll	zero,zero,0x0
    18e0:	ac430000 	sw	v1,0(v0)
    18e4:	8fc20010 	lw	v0,16(s8)
    18e8:	00000000 	sll	zero,zero,0x0
    18ec:	24420048 	addiu	v0,v0,72
    18f0:	8fc30000 	lw	v1,0(s8)
    18f4:	00000000 	sll	zero,zero,0x0
    18f8:	ac430000 	sw	v1,0(v0)
    18fc:	8fc20010 	lw	v0,16(s8)
    1900:	00000000 	sll	zero,zero,0x0
    1904:	24420018 	addiu	v0,v0,24
    1908:	8c420000 	lw	v0,0(v0)
    190c:	00000000 	sll	zero,zero,0x0
    1910:	00022103 	sra	a0,v0,0x4
    1914:	8fc20010 	lw	v0,16(s8)
    1918:	00000000 	sll	zero,zero,0x0
    191c:	24420018 	addiu	v0,v0,24
    1920:	8c420000 	lw	v0,0(v0)
    1924:	00000000 	sll	zero,zero,0x0
    1928:	3043000f 	andi	v1,v0,0xf
    192c:	3c020000 	lui	v0,0x0
    1930:	00042100 	sll	a0,a0,0x4
    1934:	00831821 	addu	v1,a0,v1
    1938:	00031880 	sll	v1,v1,0x2
    193c:	24426298 	addiu	v0,v0,25240
    1940:	00621021 	addu	v0,v1,v0
    1944:	8c420000 	lw	v0,0(v0)
    1948:	00000000 	sll	zero,zero,0x0
    194c:	afc20000 	sw	v0,0(s8)
    1950:	8fc20010 	lw	v0,16(s8)
    1954:	00000000 	sll	zero,zero,0x0
    1958:	24420018 	addiu	v0,v0,24
    195c:	8fc30010 	lw	v1,16(s8)
    1960:	00000000 	sll	zero,zero,0x0
    1964:	24630038 	addiu	v1,v1,56
    1968:	8c630000 	lw	v1,0(v1)
    196c:	00000000 	sll	zero,zero,0x0
    1970:	00032903 	sra	a1,v1,0x4
    1974:	8fc30010 	lw	v1,16(s8)
    1978:	00000000 	sll	zero,zero,0x0
    197c:	24630038 	addiu	v1,v1,56
    1980:	8c630000 	lw	v1,0(v1)
    1984:	00000000 	sll	zero,zero,0x0
    1988:	3064000f 	andi	a0,v1,0xf
    198c:	3c030000 	lui	v1,0x0
    1990:	00052900 	sll	a1,a1,0x4
    1994:	00a42021 	addu	a0,a1,a0
    1998:	00042080 	sll	a0,a0,0x2
    199c:	24636298 	addiu	v1,v1,25240
    19a0:	00831821 	addu	v1,a0,v1
    19a4:	8c630000 	lw	v1,0(v1)
    19a8:	00000000 	sll	zero,zero,0x0
    19ac:	ac430000 	sw	v1,0(v0)
    19b0:	8fc20010 	lw	v0,16(s8)
    19b4:	00000000 	sll	zero,zero,0x0
    19b8:	24420038 	addiu	v0,v0,56
    19bc:	8fc30010 	lw	v1,16(s8)
    19c0:	00000000 	sll	zero,zero,0x0
    19c4:	24630058 	addiu	v1,v1,88
    19c8:	8c630000 	lw	v1,0(v1)
    19cc:	00000000 	sll	zero,zero,0x0
    19d0:	00032903 	sra	a1,v1,0x4
    19d4:	8fc30010 	lw	v1,16(s8)
    19d8:	00000000 	sll	zero,zero,0x0
    19dc:	24630058 	addiu	v1,v1,88
    19e0:	8c630000 	lw	v1,0(v1)
    19e4:	00000000 	sll	zero,zero,0x0
    19e8:	3064000f 	andi	a0,v1,0xf
    19ec:	3c030000 	lui	v1,0x0
    19f0:	00052900 	sll	a1,a1,0x4
    19f4:	00a42021 	addu	a0,a1,a0
    19f8:	00042080 	sll	a0,a0,0x2
    19fc:	24636298 	addiu	v1,v1,25240
    1a00:	00831821 	addu	v1,a0,v1
    1a04:	8c630000 	lw	v1,0(v1)
    1a08:	00000000 	sll	zero,zero,0x0
    1a0c:	ac430000 	sw	v1,0(v0)
    1a10:	8fc20010 	lw	v0,16(s8)
    1a14:	00000000 	sll	zero,zero,0x0
    1a18:	24420058 	addiu	v0,v0,88
    1a1c:	8fc30000 	lw	v1,0(s8)
    1a20:	00000000 	sll	zero,zero,0x0
    1a24:	ac430000 	sw	v1,0(v0)
    1a28:	8fc20010 	lw	v0,16(s8)
    1a2c:	00000000 	sll	zero,zero,0x0
    1a30:	2442000c 	addiu	v0,v0,12
    1a34:	8c420000 	lw	v0,0(v0)
    1a38:	00000000 	sll	zero,zero,0x0
    1a3c:	00022103 	sra	a0,v0,0x4
    1a40:	8fc20010 	lw	v0,16(s8)
    1a44:	00000000 	sll	zero,zero,0x0
    1a48:	2442000c 	addiu	v0,v0,12
    1a4c:	8c420000 	lw	v0,0(v0)
    1a50:	00000000 	sll	zero,zero,0x0
    1a54:	3043000f 	andi	v1,v0,0xf
    1a58:	3c020000 	lui	v0,0x0
    1a5c:	00042100 	sll	a0,a0,0x4
    1a60:	00831821 	addu	v1,a0,v1
    1a64:	00031880 	sll	v1,v1,0x2
    1a68:	24426298 	addiu	v0,v0,25240
    1a6c:	00621021 	addu	v0,v1,v0
    1a70:	8c420000 	lw	v0,0(v0)
    1a74:	00000000 	sll	zero,zero,0x0
    1a78:	afc20000 	sw	v0,0(s8)
    1a7c:	8fc20010 	lw	v0,16(s8)
    1a80:	00000000 	sll	zero,zero,0x0
    1a84:	2442000c 	addiu	v0,v0,12
    1a88:	8fc30010 	lw	v1,16(s8)
    1a8c:	00000000 	sll	zero,zero,0x0
    1a90:	2463003c 	addiu	v1,v1,60
    1a94:	8c630000 	lw	v1,0(v1)
    1a98:	00000000 	sll	zero,zero,0x0
    1a9c:	00032903 	sra	a1,v1,0x4
    1aa0:	8fc30010 	lw	v1,16(s8)
    1aa4:	00000000 	sll	zero,zero,0x0
    1aa8:	2463003c 	addiu	v1,v1,60
    1aac:	8c630000 	lw	v1,0(v1)
    1ab0:	00000000 	sll	zero,zero,0x0
    1ab4:	3064000f 	andi	a0,v1,0xf
    1ab8:	3c030000 	lui	v1,0x0
    1abc:	00052900 	sll	a1,a1,0x4
    1ac0:	00a42021 	addu	a0,a1,a0
    1ac4:	00042080 	sll	a0,a0,0x2
    1ac8:	24636298 	addiu	v1,v1,25240
    1acc:	00831821 	addu	v1,a0,v1
    1ad0:	8c630000 	lw	v1,0(v1)
    1ad4:	00000000 	sll	zero,zero,0x0
    1ad8:	ac430000 	sw	v1,0(v0)
    1adc:	8fc20010 	lw	v0,16(s8)
    1ae0:	00000000 	sll	zero,zero,0x0
    1ae4:	2442003c 	addiu	v0,v0,60
    1ae8:	8fc30000 	lw	v1,0(s8)
    1aec:	00000000 	sll	zero,zero,0x0
    1af0:	ac430000 	sw	v1,0(v0)
    1af4:	8fc20010 	lw	v0,16(s8)
    1af8:	00000000 	sll	zero,zero,0x0
    1afc:	2442001c 	addiu	v0,v0,28
    1b00:	8c420000 	lw	v0,0(v0)
    1b04:	00000000 	sll	zero,zero,0x0
    1b08:	00022103 	sra	a0,v0,0x4
    1b0c:	8fc20010 	lw	v0,16(s8)
    1b10:	00000000 	sll	zero,zero,0x0
    1b14:	2442001c 	addiu	v0,v0,28
    1b18:	8c420000 	lw	v0,0(v0)
    1b1c:	00000000 	sll	zero,zero,0x0
    1b20:	3043000f 	andi	v1,v0,0xf
    1b24:	3c020000 	lui	v0,0x0
    1b28:	00042100 	sll	a0,a0,0x4
    1b2c:	00831821 	addu	v1,a0,v1
    1b30:	00031880 	sll	v1,v1,0x2
    1b34:	24426298 	addiu	v0,v0,25240
    1b38:	00621021 	addu	v0,v1,v0
    1b3c:	8c420000 	lw	v0,0(v0)
    1b40:	00000000 	sll	zero,zero,0x0
    1b44:	afc20000 	sw	v0,0(s8)
    1b48:	8fc20010 	lw	v0,16(s8)
    1b4c:	00000000 	sll	zero,zero,0x0
    1b50:	2442001c 	addiu	v0,v0,28
    1b54:	8fc30010 	lw	v1,16(s8)
    1b58:	00000000 	sll	zero,zero,0x0
    1b5c:	2463004c 	addiu	v1,v1,76
    1b60:	8c630000 	lw	v1,0(v1)
    1b64:	00000000 	sll	zero,zero,0x0
    1b68:	00032903 	sra	a1,v1,0x4
    1b6c:	8fc30010 	lw	v1,16(s8)
    1b70:	00000000 	sll	zero,zero,0x0
    1b74:	2463004c 	addiu	v1,v1,76
    1b78:	8c630000 	lw	v1,0(v1)
    1b7c:	00000000 	sll	zero,zero,0x0
    1b80:	3064000f 	andi	a0,v1,0xf
    1b84:	3c030000 	lui	v1,0x0
    1b88:	00052900 	sll	a1,a1,0x4
    1b8c:	00a42021 	addu	a0,a1,a0
    1b90:	00042080 	sll	a0,a0,0x2
    1b94:	24636298 	addiu	v1,v1,25240
    1b98:	00831821 	addu	v1,a0,v1
    1b9c:	8c630000 	lw	v1,0(v1)
    1ba0:	00000000 	sll	zero,zero,0x0
    1ba4:	ac430000 	sw	v1,0(v0)
    1ba8:	8fc20010 	lw	v0,16(s8)
    1bac:	00000000 	sll	zero,zero,0x0
    1bb0:	2442004c 	addiu	v0,v0,76
    1bb4:	8fc30000 	lw	v1,0(s8)
    1bb8:	00000000 	sll	zero,zero,0x0
    1bbc:	ac430000 	sw	v1,0(v0)
    1bc0:	8fc20010 	lw	v0,16(s8)
    1bc4:	00000000 	sll	zero,zero,0x0
    1bc8:	2442002c 	addiu	v0,v0,44
    1bcc:	8c420000 	lw	v0,0(v0)
    1bd0:	00000000 	sll	zero,zero,0x0
    1bd4:	00022103 	sra	a0,v0,0x4
    1bd8:	8fc20010 	lw	v0,16(s8)
    1bdc:	00000000 	sll	zero,zero,0x0
    1be0:	2442002c 	addiu	v0,v0,44
    1be4:	8c420000 	lw	v0,0(v0)
    1be8:	00000000 	sll	zero,zero,0x0
    1bec:	3043000f 	andi	v1,v0,0xf
    1bf0:	3c020000 	lui	v0,0x0
    1bf4:	00042100 	sll	a0,a0,0x4
    1bf8:	00831821 	addu	v1,a0,v1
    1bfc:	00031880 	sll	v1,v1,0x2
    1c00:	24426298 	addiu	v0,v0,25240
    1c04:	00621021 	addu	v0,v1,v0
    1c08:	8c420000 	lw	v0,0(v0)
    1c0c:	00000000 	sll	zero,zero,0x0
    1c10:	afc20000 	sw	v0,0(s8)
    1c14:	8fc20010 	lw	v0,16(s8)
    1c18:	00000000 	sll	zero,zero,0x0
    1c1c:	2442002c 	addiu	v0,v0,44
    1c20:	8fc30010 	lw	v1,16(s8)
    1c24:	00000000 	sll	zero,zero,0x0
    1c28:	2463005c 	addiu	v1,v1,92
    1c2c:	8c630000 	lw	v1,0(v1)
    1c30:	00000000 	sll	zero,zero,0x0
    1c34:	00032903 	sra	a1,v1,0x4
    1c38:	8fc30010 	lw	v1,16(s8)
    1c3c:	00000000 	sll	zero,zero,0x0
    1c40:	2463005c 	addiu	v1,v1,92
    1c44:	8c630000 	lw	v1,0(v1)
    1c48:	00000000 	sll	zero,zero,0x0
    1c4c:	3064000f 	andi	a0,v1,0xf
    1c50:	3c030000 	lui	v1,0x0
    1c54:	00052900 	sll	a1,a1,0x4
    1c58:	00a42021 	addu	a0,a1,a0
    1c5c:	00042080 	sll	a0,a0,0x2
    1c60:	24636298 	addiu	v1,v1,25240
    1c64:	00831821 	addu	v1,a0,v1
    1c68:	8c630000 	lw	v1,0(v1)
    1c6c:	00000000 	sll	zero,zero,0x0
    1c70:	ac430000 	sw	v1,0(v0)
    1c74:	8fc20010 	lw	v0,16(s8)
    1c78:	00000000 	sll	zero,zero,0x0
    1c7c:	2442005c 	addiu	v0,v0,92
    1c80:	8fc30000 	lw	v1,0(s8)
    1c84:	00000000 	sll	zero,zero,0x0
    1c88:	ac430000 	sw	v1,0(v0)
    1c8c:	8fc20010 	lw	v0,16(s8)
    1c90:	00000000 	sll	zero,zero,0x0
    1c94:	8c420000 	lw	v0,0(v0)
    1c98:	00000000 	sll	zero,zero,0x0
    1c9c:	00022103 	sra	a0,v0,0x4
    1ca0:	8fc20010 	lw	v0,16(s8)
    1ca4:	00000000 	sll	zero,zero,0x0
    1ca8:	8c420000 	lw	v0,0(v0)
    1cac:	00000000 	sll	zero,zero,0x0
    1cb0:	3043000f 	andi	v1,v0,0xf
    1cb4:	3c020000 	lui	v0,0x0
    1cb8:	00042100 	sll	a0,a0,0x4
    1cbc:	00831821 	addu	v1,a0,v1
    1cc0:	00031880 	sll	v1,v1,0x2
    1cc4:	24426298 	addiu	v0,v0,25240
    1cc8:	00621021 	addu	v0,v1,v0
    1ccc:	8c430000 	lw	v1,0(v0)
    1cd0:	8fc20010 	lw	v0,16(s8)
    1cd4:	00000000 	sll	zero,zero,0x0
    1cd8:	ac430000 	sw	v1,0(v0)
    1cdc:	8fc20010 	lw	v0,16(s8)
    1ce0:	00000000 	sll	zero,zero,0x0
    1ce4:	24420010 	addiu	v0,v0,16
    1ce8:	8fc30010 	lw	v1,16(s8)
    1cec:	00000000 	sll	zero,zero,0x0
    1cf0:	24630010 	addiu	v1,v1,16
    1cf4:	8c630000 	lw	v1,0(v1)
    1cf8:	00000000 	sll	zero,zero,0x0
    1cfc:	00032903 	sra	a1,v1,0x4
    1d00:	8fc30010 	lw	v1,16(s8)
    1d04:	00000000 	sll	zero,zero,0x0
    1d08:	24630010 	addiu	v1,v1,16
    1d0c:	8c630000 	lw	v1,0(v1)
    1d10:	00000000 	sll	zero,zero,0x0
    1d14:	3064000f 	andi	a0,v1,0xf
    1d18:	3c030000 	lui	v1,0x0
    1d1c:	00052900 	sll	a1,a1,0x4
    1d20:	00a42021 	addu	a0,a1,a0
    1d24:	00042080 	sll	a0,a0,0x2
    1d28:	24636298 	addiu	v1,v1,25240
    1d2c:	00831821 	addu	v1,a0,v1
    1d30:	8c630000 	lw	v1,0(v1)
    1d34:	00000000 	sll	zero,zero,0x0
    1d38:	ac430000 	sw	v1,0(v0)
    1d3c:	8fc20010 	lw	v0,16(s8)
    1d40:	00000000 	sll	zero,zero,0x0
    1d44:	24420020 	addiu	v0,v0,32
    1d48:	8fc30010 	lw	v1,16(s8)
    1d4c:	00000000 	sll	zero,zero,0x0
    1d50:	24630020 	addiu	v1,v1,32
    1d54:	8c630000 	lw	v1,0(v1)
    1d58:	00000000 	sll	zero,zero,0x0
    1d5c:	00032903 	sra	a1,v1,0x4
    1d60:	8fc30010 	lw	v1,16(s8)
    1d64:	00000000 	sll	zero,zero,0x0
    1d68:	24630020 	addiu	v1,v1,32
    1d6c:	8c630000 	lw	v1,0(v1)
    1d70:	00000000 	sll	zero,zero,0x0
    1d74:	3064000f 	andi	a0,v1,0xf
    1d78:	3c030000 	lui	v1,0x0
    1d7c:	00052900 	sll	a1,a1,0x4
    1d80:	00a42021 	addu	a0,a1,a0
    1d84:	00042080 	sll	a0,a0,0x2
    1d88:	24636298 	addiu	v1,v1,25240
    1d8c:	00831821 	addu	v1,a0,v1
    1d90:	8c630000 	lw	v1,0(v1)
    1d94:	00000000 	sll	zero,zero,0x0
    1d98:	ac430000 	sw	v1,0(v0)
    1d9c:	8fc20010 	lw	v0,16(s8)
    1da0:	00000000 	sll	zero,zero,0x0
    1da4:	24420030 	addiu	v0,v0,48
    1da8:	8fc30010 	lw	v1,16(s8)
    1dac:	00000000 	sll	zero,zero,0x0
    1db0:	24630030 	addiu	v1,v1,48
    1db4:	8c630000 	lw	v1,0(v1)
    1db8:	00000000 	sll	zero,zero,0x0
    1dbc:	00032903 	sra	a1,v1,0x4
    1dc0:	8fc30010 	lw	v1,16(s8)
    1dc4:	00000000 	sll	zero,zero,0x0
    1dc8:	24630030 	addiu	v1,v1,48
    1dcc:	8c630000 	lw	v1,0(v1)
    1dd0:	00000000 	sll	zero,zero,0x0
    1dd4:	3064000f 	andi	a0,v1,0xf
    1dd8:	3c030000 	lui	v1,0x0
    1ddc:	00052900 	sll	a1,a1,0x4
    1de0:	00a42021 	addu	a0,a1,a0
    1de4:	00042080 	sll	a0,a0,0x2
    1de8:	24636298 	addiu	v1,v1,25240
    1dec:	00831821 	addu	v1,a0,v1
    1df0:	8c630000 	lw	v1,0(v1)
    1df4:	00000000 	sll	zero,zero,0x0
    1df8:	ac430000 	sw	v1,0(v0)
    1dfc:	8fc20010 	lw	v0,16(s8)
    1e00:	00000000 	sll	zero,zero,0x0
    1e04:	24420040 	addiu	v0,v0,64
    1e08:	8fc30010 	lw	v1,16(s8)
    1e0c:	00000000 	sll	zero,zero,0x0
    1e10:	24630040 	addiu	v1,v1,64
    1e14:	8c630000 	lw	v1,0(v1)
    1e18:	00000000 	sll	zero,zero,0x0
    1e1c:	00032903 	sra	a1,v1,0x4
    1e20:	8fc30010 	lw	v1,16(s8)
    1e24:	00000000 	sll	zero,zero,0x0
    1e28:	24630040 	addiu	v1,v1,64
    1e2c:	8c630000 	lw	v1,0(v1)
    1e30:	00000000 	sll	zero,zero,0x0
    1e34:	3064000f 	andi	a0,v1,0xf
    1e38:	3c030000 	lui	v1,0x0
    1e3c:	00052900 	sll	a1,a1,0x4
    1e40:	00a42021 	addu	a0,a1,a0
    1e44:	00042080 	sll	a0,a0,0x2
    1e48:	24636298 	addiu	v1,v1,25240
    1e4c:	00831821 	addu	v1,a0,v1
    1e50:	8c630000 	lw	v1,0(v1)
    1e54:	00000000 	sll	zero,zero,0x0
    1e58:	ac430000 	sw	v1,0(v0)
    1e5c:	8fc20010 	lw	v0,16(s8)
    1e60:	00000000 	sll	zero,zero,0x0
    1e64:	24420050 	addiu	v0,v0,80
    1e68:	8fc30010 	lw	v1,16(s8)
    1e6c:	00000000 	sll	zero,zero,0x0
    1e70:	24630050 	addiu	v1,v1,80
    1e74:	8c630000 	lw	v1,0(v1)
    1e78:	00000000 	sll	zero,zero,0x0
    1e7c:	00032903 	sra	a1,v1,0x4
    1e80:	8fc30010 	lw	v1,16(s8)
    1e84:	00000000 	sll	zero,zero,0x0
    1e88:	24630050 	addiu	v1,v1,80
    1e8c:	8c630000 	lw	v1,0(v1)
    1e90:	00000000 	sll	zero,zero,0x0
    1e94:	3064000f 	andi	a0,v1,0xf
    1e98:	3c030000 	lui	v1,0x0
    1e9c:	00052900 	sll	a1,a1,0x4
    1ea0:	00a42021 	addu	a0,a1,a0
    1ea4:	00042080 	sll	a0,a0,0x2
    1ea8:	24636298 	addiu	v1,v1,25240
    1eac:	00831821 	addu	v1,a0,v1
    1eb0:	8c630000 	lw	v1,0(v1)
    1eb4:	00000000 	sll	zero,zero,0x0
    1eb8:	ac430000 	sw	v1,0(v0)
    1ebc:	08000abf 	j	0x2afc
    1ec0:	00000000 	sll	zero,zero,0x0
    1ec4:	8fc20010 	lw	v0,16(s8)
    1ec8:	00000000 	sll	zero,zero,0x0
    1ecc:	24420004 	addiu	v0,v0,4
    1ed0:	8c420000 	lw	v0,0(v0)
    1ed4:	00000000 	sll	zero,zero,0x0
    1ed8:	00022103 	sra	a0,v0,0x4
    1edc:	8fc20010 	lw	v0,16(s8)
    1ee0:	00000000 	sll	zero,zero,0x0
    1ee4:	24420004 	addiu	v0,v0,4
    1ee8:	8c420000 	lw	v0,0(v0)
    1eec:	00000000 	sll	zero,zero,0x0
    1ef0:	3043000f 	andi	v1,v0,0xf
    1ef4:	3c020000 	lui	v0,0x0
    1ef8:	00042100 	sll	a0,a0,0x4
    1efc:	00831821 	addu	v1,a0,v1
    1f00:	00031880 	sll	v1,v1,0x2
    1f04:	24426298 	addiu	v0,v0,25240
    1f08:	00621021 	addu	v0,v1,v0
    1f0c:	8c420000 	lw	v0,0(v0)
    1f10:	00000000 	sll	zero,zero,0x0
    1f14:	afc20000 	sw	v0,0(s8)
    1f18:	8fc20010 	lw	v0,16(s8)
    1f1c:	00000000 	sll	zero,zero,0x0
    1f20:	24420004 	addiu	v0,v0,4
    1f24:	8fc30010 	lw	v1,16(s8)
    1f28:	00000000 	sll	zero,zero,0x0
    1f2c:	24630014 	addiu	v1,v1,20
    1f30:	8c630000 	lw	v1,0(v1)
    1f34:	00000000 	sll	zero,zero,0x0
    1f38:	00032903 	sra	a1,v1,0x4
    1f3c:	8fc30010 	lw	v1,16(s8)
    1f40:	00000000 	sll	zero,zero,0x0
    1f44:	24630014 	addiu	v1,v1,20
    1f48:	8c630000 	lw	v1,0(v1)
    1f4c:	00000000 	sll	zero,zero,0x0
    1f50:	3064000f 	andi	a0,v1,0xf
    1f54:	3c030000 	lui	v1,0x0
    1f58:	00052900 	sll	a1,a1,0x4
    1f5c:	00a42021 	addu	a0,a1,a0
    1f60:	00042080 	sll	a0,a0,0x2
    1f64:	24636298 	addiu	v1,v1,25240
    1f68:	00831821 	addu	v1,a0,v1
    1f6c:	8c630000 	lw	v1,0(v1)
    1f70:	00000000 	sll	zero,zero,0x0
    1f74:	ac430000 	sw	v1,0(v0)
    1f78:	8fc20010 	lw	v0,16(s8)
    1f7c:	00000000 	sll	zero,zero,0x0
    1f80:	24420014 	addiu	v0,v0,20
    1f84:	8fc30010 	lw	v1,16(s8)
    1f88:	00000000 	sll	zero,zero,0x0
    1f8c:	24630024 	addiu	v1,v1,36
    1f90:	8c630000 	lw	v1,0(v1)
    1f94:	00000000 	sll	zero,zero,0x0
    1f98:	00032903 	sra	a1,v1,0x4
    1f9c:	8fc30010 	lw	v1,16(s8)
    1fa0:	00000000 	sll	zero,zero,0x0
    1fa4:	24630024 	addiu	v1,v1,36
    1fa8:	8c630000 	lw	v1,0(v1)
    1fac:	00000000 	sll	zero,zero,0x0
    1fb0:	3064000f 	andi	a0,v1,0xf
    1fb4:	3c030000 	lui	v1,0x0
    1fb8:	00052900 	sll	a1,a1,0x4
    1fbc:	00a42021 	addu	a0,a1,a0
    1fc0:	00042080 	sll	a0,a0,0x2
    1fc4:	24636298 	addiu	v1,v1,25240
    1fc8:	00831821 	addu	v1,a0,v1
    1fcc:	8c630000 	lw	v1,0(v1)
    1fd0:	00000000 	sll	zero,zero,0x0
    1fd4:	ac430000 	sw	v1,0(v0)
    1fd8:	8fc20010 	lw	v0,16(s8)
    1fdc:	00000000 	sll	zero,zero,0x0
    1fe0:	24420024 	addiu	v0,v0,36
    1fe4:	8fc30010 	lw	v1,16(s8)
    1fe8:	00000000 	sll	zero,zero,0x0
    1fec:	24630034 	addiu	v1,v1,52
    1ff0:	8c630000 	lw	v1,0(v1)
    1ff4:	00000000 	sll	zero,zero,0x0
    1ff8:	00032903 	sra	a1,v1,0x4
    1ffc:	8fc30010 	lw	v1,16(s8)
    2000:	00000000 	sll	zero,zero,0x0
    2004:	24630034 	addiu	v1,v1,52
    2008:	8c630000 	lw	v1,0(v1)
    200c:	00000000 	sll	zero,zero,0x0
    2010:	3064000f 	andi	a0,v1,0xf
    2014:	3c030000 	lui	v1,0x0
    2018:	00052900 	sll	a1,a1,0x4
    201c:	00a42021 	addu	a0,a1,a0
    2020:	00042080 	sll	a0,a0,0x2
    2024:	24636298 	addiu	v1,v1,25240
    2028:	00831821 	addu	v1,a0,v1
    202c:	8c630000 	lw	v1,0(v1)
    2030:	00000000 	sll	zero,zero,0x0
    2034:	ac430000 	sw	v1,0(v0)
    2038:	8fc20010 	lw	v0,16(s8)
    203c:	00000000 	sll	zero,zero,0x0
    2040:	24420034 	addiu	v0,v0,52
    2044:	8fc30010 	lw	v1,16(s8)
    2048:	00000000 	sll	zero,zero,0x0
    204c:	24630044 	addiu	v1,v1,68
    2050:	8c630000 	lw	v1,0(v1)
    2054:	00000000 	sll	zero,zero,0x0
    2058:	00032903 	sra	a1,v1,0x4
    205c:	8fc30010 	lw	v1,16(s8)
    2060:	00000000 	sll	zero,zero,0x0
    2064:	24630044 	addiu	v1,v1,68
    2068:	8c630000 	lw	v1,0(v1)
    206c:	00000000 	sll	zero,zero,0x0
    2070:	3064000f 	andi	a0,v1,0xf
    2074:	3c030000 	lui	v1,0x0
    2078:	00052900 	sll	a1,a1,0x4
    207c:	00a42021 	addu	a0,a1,a0
    2080:	00042080 	sll	a0,a0,0x2
    2084:	24636298 	addiu	v1,v1,25240
    2088:	00831821 	addu	v1,a0,v1
    208c:	8c630000 	lw	v1,0(v1)
    2090:	00000000 	sll	zero,zero,0x0
    2094:	ac430000 	sw	v1,0(v0)
    2098:	8fc20010 	lw	v0,16(s8)
    209c:	00000000 	sll	zero,zero,0x0
    20a0:	24420044 	addiu	v0,v0,68
    20a4:	8fc30010 	lw	v1,16(s8)
    20a8:	00000000 	sll	zero,zero,0x0
    20ac:	24630054 	addiu	v1,v1,84
    20b0:	8c630000 	lw	v1,0(v1)
    20b4:	00000000 	sll	zero,zero,0x0
    20b8:	00032903 	sra	a1,v1,0x4
    20bc:	8fc30010 	lw	v1,16(s8)
    20c0:	00000000 	sll	zero,zero,0x0
    20c4:	24630054 	addiu	v1,v1,84
    20c8:	8c630000 	lw	v1,0(v1)
    20cc:	00000000 	sll	zero,zero,0x0
    20d0:	3064000f 	andi	a0,v1,0xf
    20d4:	3c030000 	lui	v1,0x0
    20d8:	00052900 	sll	a1,a1,0x4
    20dc:	00a42021 	addu	a0,a1,a0
    20e0:	00042080 	sll	a0,a0,0x2
    20e4:	24636298 	addiu	v1,v1,25240
    20e8:	00831821 	addu	v1,a0,v1
    20ec:	8c630000 	lw	v1,0(v1)
    20f0:	00000000 	sll	zero,zero,0x0
    20f4:	ac430000 	sw	v1,0(v0)
    20f8:	8fc20010 	lw	v0,16(s8)
    20fc:	00000000 	sll	zero,zero,0x0
    2100:	24420054 	addiu	v0,v0,84
    2104:	8fc30010 	lw	v1,16(s8)
    2108:	00000000 	sll	zero,zero,0x0
    210c:	24630064 	addiu	v1,v1,100
    2110:	8c630000 	lw	v1,0(v1)
    2114:	00000000 	sll	zero,zero,0x0
    2118:	00032903 	sra	a1,v1,0x4
    211c:	8fc30010 	lw	v1,16(s8)
    2120:	00000000 	sll	zero,zero,0x0
    2124:	24630064 	addiu	v1,v1,100
    2128:	8c630000 	lw	v1,0(v1)
    212c:	00000000 	sll	zero,zero,0x0
    2130:	3064000f 	andi	a0,v1,0xf
    2134:	3c030000 	lui	v1,0x0
    2138:	00052900 	sll	a1,a1,0x4
    213c:	00a42021 	addu	a0,a1,a0
    2140:	00042080 	sll	a0,a0,0x2
    2144:	24636298 	addiu	v1,v1,25240
    2148:	00831821 	addu	v1,a0,v1
    214c:	8c630000 	lw	v1,0(v1)
    2150:	00000000 	sll	zero,zero,0x0
    2154:	ac430000 	sw	v1,0(v0)
    2158:	8fc20010 	lw	v0,16(s8)
    215c:	00000000 	sll	zero,zero,0x0
    2160:	24420064 	addiu	v0,v0,100
    2164:	8fc30010 	lw	v1,16(s8)
    2168:	00000000 	sll	zero,zero,0x0
    216c:	24630074 	addiu	v1,v1,116
    2170:	8c630000 	lw	v1,0(v1)
    2174:	00000000 	sll	zero,zero,0x0
    2178:	00032903 	sra	a1,v1,0x4
    217c:	8fc30010 	lw	v1,16(s8)
    2180:	00000000 	sll	zero,zero,0x0
    2184:	24630074 	addiu	v1,v1,116
    2188:	8c630000 	lw	v1,0(v1)
    218c:	00000000 	sll	zero,zero,0x0
    2190:	3064000f 	andi	a0,v1,0xf
    2194:	3c030000 	lui	v1,0x0
    2198:	00052900 	sll	a1,a1,0x4
    219c:	00a42021 	addu	a0,a1,a0
    21a0:	00042080 	sll	a0,a0,0x2
    21a4:	24636298 	addiu	v1,v1,25240
    21a8:	00831821 	addu	v1,a0,v1
    21ac:	8c630000 	lw	v1,0(v1)
    21b0:	00000000 	sll	zero,zero,0x0
    21b4:	ac430000 	sw	v1,0(v0)
    21b8:	8fc20010 	lw	v0,16(s8)
    21bc:	00000000 	sll	zero,zero,0x0
    21c0:	24420074 	addiu	v0,v0,116
    21c4:	8fc30000 	lw	v1,0(s8)
    21c8:	00000000 	sll	zero,zero,0x0
    21cc:	ac430000 	sw	v1,0(v0)
    21d0:	8fc20010 	lw	v0,16(s8)
    21d4:	00000000 	sll	zero,zero,0x0
    21d8:	24420008 	addiu	v0,v0,8
    21dc:	8c420000 	lw	v0,0(v0)
    21e0:	00000000 	sll	zero,zero,0x0
    21e4:	00022103 	sra	a0,v0,0x4
    21e8:	8fc20010 	lw	v0,16(s8)
    21ec:	00000000 	sll	zero,zero,0x0
    21f0:	24420008 	addiu	v0,v0,8
    21f4:	8c420000 	lw	v0,0(v0)
    21f8:	00000000 	sll	zero,zero,0x0
    21fc:	3043000f 	andi	v1,v0,0xf
    2200:	3c020000 	lui	v0,0x0
    2204:	00042100 	sll	a0,a0,0x4
    2208:	00831821 	addu	v1,a0,v1
    220c:	00031880 	sll	v1,v1,0x2
    2210:	24426298 	addiu	v0,v0,25240
    2214:	00621021 	addu	v0,v1,v0
    2218:	8c420000 	lw	v0,0(v0)
    221c:	00000000 	sll	zero,zero,0x0
    2220:	afc20000 	sw	v0,0(s8)
    2224:	8fc20010 	lw	v0,16(s8)
    2228:	00000000 	sll	zero,zero,0x0
    222c:	24420008 	addiu	v0,v0,8
    2230:	8fc30010 	lw	v1,16(s8)
    2234:	00000000 	sll	zero,zero,0x0
    2238:	24630038 	addiu	v1,v1,56
    223c:	8c630000 	lw	v1,0(v1)
    2240:	00000000 	sll	zero,zero,0x0
    2244:	00032903 	sra	a1,v1,0x4
    2248:	8fc30010 	lw	v1,16(s8)
    224c:	00000000 	sll	zero,zero,0x0
    2250:	24630038 	addiu	v1,v1,56
    2254:	8c630000 	lw	v1,0(v1)
    2258:	00000000 	sll	zero,zero,0x0
    225c:	3064000f 	andi	a0,v1,0xf
    2260:	3c030000 	lui	v1,0x0
    2264:	00052900 	sll	a1,a1,0x4
    2268:	00a42021 	addu	a0,a1,a0
    226c:	00042080 	sll	a0,a0,0x2
    2270:	24636298 	addiu	v1,v1,25240
    2274:	00831821 	addu	v1,a0,v1
    2278:	8c630000 	lw	v1,0(v1)
    227c:	00000000 	sll	zero,zero,0x0
    2280:	ac430000 	sw	v1,0(v0)
    2284:	8fc20010 	lw	v0,16(s8)
    2288:	00000000 	sll	zero,zero,0x0
    228c:	24420038 	addiu	v0,v0,56
    2290:	8fc30010 	lw	v1,16(s8)
    2294:	00000000 	sll	zero,zero,0x0
    2298:	24630068 	addiu	v1,v1,104
    229c:	8c630000 	lw	v1,0(v1)
    22a0:	00000000 	sll	zero,zero,0x0
    22a4:	00032903 	sra	a1,v1,0x4
    22a8:	8fc30010 	lw	v1,16(s8)
    22ac:	00000000 	sll	zero,zero,0x0
    22b0:	24630068 	addiu	v1,v1,104
    22b4:	8c630000 	lw	v1,0(v1)
    22b8:	00000000 	sll	zero,zero,0x0
    22bc:	3064000f 	andi	a0,v1,0xf
    22c0:	3c030000 	lui	v1,0x0
    22c4:	00052900 	sll	a1,a1,0x4
    22c8:	00a42021 	addu	a0,a1,a0
    22cc:	00042080 	sll	a0,a0,0x2
    22d0:	24636298 	addiu	v1,v1,25240
    22d4:	00831821 	addu	v1,a0,v1
    22d8:	8c630000 	lw	v1,0(v1)
    22dc:	00000000 	sll	zero,zero,0x0
    22e0:	ac430000 	sw	v1,0(v0)
    22e4:	8fc20010 	lw	v0,16(s8)
    22e8:	00000000 	sll	zero,zero,0x0
    22ec:	24420068 	addiu	v0,v0,104
    22f0:	8fc30010 	lw	v1,16(s8)
    22f4:	00000000 	sll	zero,zero,0x0
    22f8:	24630018 	addiu	v1,v1,24
    22fc:	8c630000 	lw	v1,0(v1)
    2300:	00000000 	sll	zero,zero,0x0
    2304:	00032903 	sra	a1,v1,0x4
    2308:	8fc30010 	lw	v1,16(s8)
    230c:	00000000 	sll	zero,zero,0x0
    2310:	24630018 	addiu	v1,v1,24
    2314:	8c630000 	lw	v1,0(v1)
    2318:	00000000 	sll	zero,zero,0x0
    231c:	3064000f 	andi	a0,v1,0xf
    2320:	3c030000 	lui	v1,0x0
    2324:	00052900 	sll	a1,a1,0x4
    2328:	00a42021 	addu	a0,a1,a0
    232c:	00042080 	sll	a0,a0,0x2
    2330:	24636298 	addiu	v1,v1,25240
    2334:	00831821 	addu	v1,a0,v1
    2338:	8c630000 	lw	v1,0(v1)
    233c:	00000000 	sll	zero,zero,0x0
    2340:	ac430000 	sw	v1,0(v0)
    2344:	8fc20010 	lw	v0,16(s8)
    2348:	00000000 	sll	zero,zero,0x0
    234c:	24420018 	addiu	v0,v0,24
    2350:	8fc30010 	lw	v1,16(s8)
    2354:	00000000 	sll	zero,zero,0x0
    2358:	24630048 	addiu	v1,v1,72
    235c:	8c630000 	lw	v1,0(v1)
    2360:	00000000 	sll	zero,zero,0x0
    2364:	00032903 	sra	a1,v1,0x4
    2368:	8fc30010 	lw	v1,16(s8)
    236c:	00000000 	sll	zero,zero,0x0
    2370:	24630048 	addiu	v1,v1,72
    2374:	8c630000 	lw	v1,0(v1)
    2378:	00000000 	sll	zero,zero,0x0
    237c:	3064000f 	andi	a0,v1,0xf
    2380:	3c030000 	lui	v1,0x0
    2384:	00052900 	sll	a1,a1,0x4
    2388:	00a42021 	addu	a0,a1,a0
    238c:	00042080 	sll	a0,a0,0x2
    2390:	24636298 	addiu	v1,v1,25240
    2394:	00831821 	addu	v1,a0,v1
    2398:	8c630000 	lw	v1,0(v1)
    239c:	00000000 	sll	zero,zero,0x0
    23a0:	ac430000 	sw	v1,0(v0)
    23a4:	8fc20010 	lw	v0,16(s8)
    23a8:	00000000 	sll	zero,zero,0x0
    23ac:	24420048 	addiu	v0,v0,72
    23b0:	8fc30010 	lw	v1,16(s8)
    23b4:	00000000 	sll	zero,zero,0x0
    23b8:	24630078 	addiu	v1,v1,120
    23bc:	8c630000 	lw	v1,0(v1)
    23c0:	00000000 	sll	zero,zero,0x0
    23c4:	00032903 	sra	a1,v1,0x4
    23c8:	8fc30010 	lw	v1,16(s8)
    23cc:	00000000 	sll	zero,zero,0x0
    23d0:	24630078 	addiu	v1,v1,120
    23d4:	8c630000 	lw	v1,0(v1)
    23d8:	00000000 	sll	zero,zero,0x0
    23dc:	3064000f 	andi	a0,v1,0xf
    23e0:	3c030000 	lui	v1,0x0
    23e4:	00052900 	sll	a1,a1,0x4
    23e8:	00a42021 	addu	a0,a1,a0
    23ec:	00042080 	sll	a0,a0,0x2
    23f0:	24636298 	addiu	v1,v1,25240
    23f4:	00831821 	addu	v1,a0,v1
    23f8:	8c630000 	lw	v1,0(v1)
    23fc:	00000000 	sll	zero,zero,0x0
    2400:	ac430000 	sw	v1,0(v0)
    2404:	8fc20010 	lw	v0,16(s8)
    2408:	00000000 	sll	zero,zero,0x0
    240c:	24420078 	addiu	v0,v0,120
    2410:	8fc30010 	lw	v1,16(s8)
    2414:	00000000 	sll	zero,zero,0x0
    2418:	24630028 	addiu	v1,v1,40
    241c:	8c630000 	lw	v1,0(v1)
    2420:	00000000 	sll	zero,zero,0x0
    2424:	00032903 	sra	a1,v1,0x4
    2428:	8fc30010 	lw	v1,16(s8)
    242c:	00000000 	sll	zero,zero,0x0
    2430:	24630028 	addiu	v1,v1,40
    2434:	8c630000 	lw	v1,0(v1)
    2438:	00000000 	sll	zero,zero,0x0
    243c:	3064000f 	andi	a0,v1,0xf
    2440:	3c030000 	lui	v1,0x0
    2444:	00052900 	sll	a1,a1,0x4
    2448:	00a42021 	addu	a0,a1,a0
    244c:	00042080 	sll	a0,a0,0x2
    2450:	24636298 	addiu	v1,v1,25240
    2454:	00831821 	addu	v1,a0,v1
    2458:	8c630000 	lw	v1,0(v1)
    245c:	00000000 	sll	zero,zero,0x0
    2460:	ac430000 	sw	v1,0(v0)
    2464:	8fc20010 	lw	v0,16(s8)
    2468:	00000000 	sll	zero,zero,0x0
    246c:	24420028 	addiu	v0,v0,40
    2470:	8fc30010 	lw	v1,16(s8)
    2474:	00000000 	sll	zero,zero,0x0
    2478:	24630058 	addiu	v1,v1,88
    247c:	8c630000 	lw	v1,0(v1)
    2480:	00000000 	sll	zero,zero,0x0
    2484:	00032903 	sra	a1,v1,0x4
    2488:	8fc30010 	lw	v1,16(s8)
    248c:	00000000 	sll	zero,zero,0x0
    2490:	24630058 	addiu	v1,v1,88
    2494:	8c630000 	lw	v1,0(v1)
    2498:	00000000 	sll	zero,zero,0x0
    249c:	3064000f 	andi	a0,v1,0xf
    24a0:	3c030000 	lui	v1,0x0
    24a4:	00052900 	sll	a1,a1,0x4
    24a8:	00a42021 	addu	a0,a1,a0
    24ac:	00042080 	sll	a0,a0,0x2
    24b0:	24636298 	addiu	v1,v1,25240
    24b4:	00831821 	addu	v1,a0,v1
    24b8:	8c630000 	lw	v1,0(v1)
    24bc:	00000000 	sll	zero,zero,0x0
    24c0:	ac430000 	sw	v1,0(v0)
    24c4:	8fc20010 	lw	v0,16(s8)
    24c8:	00000000 	sll	zero,zero,0x0
    24cc:	24420058 	addiu	v0,v0,88
    24d0:	8fc30000 	lw	v1,0(s8)
    24d4:	00000000 	sll	zero,zero,0x0
    24d8:	ac430000 	sw	v1,0(v0)
    24dc:	8fc20010 	lw	v0,16(s8)
    24e0:	00000000 	sll	zero,zero,0x0
    24e4:	2442000c 	addiu	v0,v0,12
    24e8:	8c420000 	lw	v0,0(v0)
    24ec:	00000000 	sll	zero,zero,0x0
    24f0:	00022103 	sra	a0,v0,0x4
    24f4:	8fc20010 	lw	v0,16(s8)
    24f8:	00000000 	sll	zero,zero,0x0
    24fc:	2442000c 	addiu	v0,v0,12
    2500:	8c420000 	lw	v0,0(v0)
    2504:	00000000 	sll	zero,zero,0x0
    2508:	3043000f 	andi	v1,v0,0xf
    250c:	3c020000 	lui	v0,0x0
    2510:	00042100 	sll	a0,a0,0x4
    2514:	00831821 	addu	v1,a0,v1
    2518:	00031880 	sll	v1,v1,0x2
    251c:	24426298 	addiu	v0,v0,25240
    2520:	00621021 	addu	v0,v1,v0
    2524:	8c420000 	lw	v0,0(v0)
    2528:	00000000 	sll	zero,zero,0x0
    252c:	afc20000 	sw	v0,0(s8)
    2530:	8fc20010 	lw	v0,16(s8)
    2534:	00000000 	sll	zero,zero,0x0
    2538:	2442000c 	addiu	v0,v0,12
    253c:	8fc30010 	lw	v1,16(s8)
    2540:	00000000 	sll	zero,zero,0x0
    2544:	2463004c 	addiu	v1,v1,76
    2548:	8c630000 	lw	v1,0(v1)
    254c:	00000000 	sll	zero,zero,0x0
    2550:	00032903 	sra	a1,v1,0x4
    2554:	8fc30010 	lw	v1,16(s8)
    2558:	00000000 	sll	zero,zero,0x0
    255c:	2463004c 	addiu	v1,v1,76
    2560:	8c630000 	lw	v1,0(v1)
    2564:	00000000 	sll	zero,zero,0x0
    2568:	3064000f 	andi	a0,v1,0xf
    256c:	3c030000 	lui	v1,0x0
    2570:	00052900 	sll	a1,a1,0x4
    2574:	00a42021 	addu	a0,a1,a0
    2578:	00042080 	sll	a0,a0,0x2
    257c:	24636298 	addiu	v1,v1,25240
    2580:	00831821 	addu	v1,a0,v1
    2584:	8c630000 	lw	v1,0(v1)
    2588:	00000000 	sll	zero,zero,0x0
    258c:	ac430000 	sw	v1,0(v0)
    2590:	8fc20010 	lw	v0,16(s8)
    2594:	00000000 	sll	zero,zero,0x0
    2598:	2442004c 	addiu	v0,v0,76
    259c:	8fc30000 	lw	v1,0(s8)
    25a0:	00000000 	sll	zero,zero,0x0
    25a4:	ac430000 	sw	v1,0(v0)
    25a8:	8fc20010 	lw	v0,16(s8)
    25ac:	00000000 	sll	zero,zero,0x0
    25b0:	2442001c 	addiu	v0,v0,28
    25b4:	8c420000 	lw	v0,0(v0)
    25b8:	00000000 	sll	zero,zero,0x0
    25bc:	00022103 	sra	a0,v0,0x4
    25c0:	8fc20010 	lw	v0,16(s8)
    25c4:	00000000 	sll	zero,zero,0x0
    25c8:	2442001c 	addiu	v0,v0,28
    25cc:	8c420000 	lw	v0,0(v0)
    25d0:	00000000 	sll	zero,zero,0x0
    25d4:	3043000f 	andi	v1,v0,0xf
    25d8:	3c020000 	lui	v0,0x0
    25dc:	00042100 	sll	a0,a0,0x4
    25e0:	00831821 	addu	v1,a0,v1
    25e4:	00031880 	sll	v1,v1,0x2
    25e8:	24426298 	addiu	v0,v0,25240
    25ec:	00621021 	addu	v0,v1,v0
    25f0:	8c420000 	lw	v0,0(v0)
    25f4:	00000000 	sll	zero,zero,0x0
    25f8:	afc20000 	sw	v0,0(s8)
    25fc:	8fc20010 	lw	v0,16(s8)
    2600:	00000000 	sll	zero,zero,0x0
    2604:	2442001c 	addiu	v0,v0,28
    2608:	8fc30010 	lw	v1,16(s8)
    260c:	00000000 	sll	zero,zero,0x0
    2610:	2463005c 	addiu	v1,v1,92
    2614:	8c630000 	lw	v1,0(v1)
    2618:	00000000 	sll	zero,zero,0x0
    261c:	00032903 	sra	a1,v1,0x4
    2620:	8fc30010 	lw	v1,16(s8)
    2624:	00000000 	sll	zero,zero,0x0
    2628:	2463005c 	addiu	v1,v1,92
    262c:	8c630000 	lw	v1,0(v1)
    2630:	00000000 	sll	zero,zero,0x0
    2634:	3064000f 	andi	a0,v1,0xf
    2638:	3c030000 	lui	v1,0x0
    263c:	00052900 	sll	a1,a1,0x4
    2640:	00a42021 	addu	a0,a1,a0
    2644:	00042080 	sll	a0,a0,0x2
    2648:	24636298 	addiu	v1,v1,25240
    264c:	00831821 	addu	v1,a0,v1
    2650:	8c630000 	lw	v1,0(v1)
    2654:	00000000 	sll	zero,zero,0x0
    2658:	ac430000 	sw	v1,0(v0)
    265c:	8fc20010 	lw	v0,16(s8)
    2660:	00000000 	sll	zero,zero,0x0
    2664:	2442005c 	addiu	v0,v0,92
    2668:	8fc30000 	lw	v1,0(s8)
    266c:	00000000 	sll	zero,zero,0x0
    2670:	ac430000 	sw	v1,0(v0)
    2674:	8fc20010 	lw	v0,16(s8)
    2678:	00000000 	sll	zero,zero,0x0
    267c:	2442002c 	addiu	v0,v0,44
    2680:	8c420000 	lw	v0,0(v0)
    2684:	00000000 	sll	zero,zero,0x0
    2688:	00022103 	sra	a0,v0,0x4
    268c:	8fc20010 	lw	v0,16(s8)
    2690:	00000000 	sll	zero,zero,0x0
    2694:	2442002c 	addiu	v0,v0,44
    2698:	8c420000 	lw	v0,0(v0)
    269c:	00000000 	sll	zero,zero,0x0
    26a0:	3043000f 	andi	v1,v0,0xf
    26a4:	3c020000 	lui	v0,0x0
    26a8:	00042100 	sll	a0,a0,0x4
    26ac:	00831821 	addu	v1,a0,v1
    26b0:	00031880 	sll	v1,v1,0x2
    26b4:	24426298 	addiu	v0,v0,25240
    26b8:	00621021 	addu	v0,v1,v0
    26bc:	8c420000 	lw	v0,0(v0)
    26c0:	00000000 	sll	zero,zero,0x0
    26c4:	afc20000 	sw	v0,0(s8)
    26c8:	8fc20010 	lw	v0,16(s8)
    26cc:	00000000 	sll	zero,zero,0x0
    26d0:	2442002c 	addiu	v0,v0,44
    26d4:	8fc30010 	lw	v1,16(s8)
    26d8:	00000000 	sll	zero,zero,0x0
    26dc:	2463006c 	addiu	v1,v1,108
    26e0:	8c630000 	lw	v1,0(v1)
    26e4:	00000000 	sll	zero,zero,0x0
    26e8:	00032903 	sra	a1,v1,0x4
    26ec:	8fc30010 	lw	v1,16(s8)
    26f0:	00000000 	sll	zero,zero,0x0
    26f4:	2463006c 	addiu	v1,v1,108
    26f8:	8c630000 	lw	v1,0(v1)
    26fc:	00000000 	sll	zero,zero,0x0
    2700:	3064000f 	andi	a0,v1,0xf
    2704:	3c030000 	lui	v1,0x0
    2708:	00052900 	sll	a1,a1,0x4
    270c:	00a42021 	addu	a0,a1,a0
    2710:	00042080 	sll	a0,a0,0x2
    2714:	24636298 	addiu	v1,v1,25240
    2718:	00831821 	addu	v1,a0,v1
    271c:	8c630000 	lw	v1,0(v1)
    2720:	00000000 	sll	zero,zero,0x0
    2724:	ac430000 	sw	v1,0(v0)
    2728:	8fc20010 	lw	v0,16(s8)
    272c:	00000000 	sll	zero,zero,0x0
    2730:	2442006c 	addiu	v0,v0,108
    2734:	8fc30000 	lw	v1,0(s8)
    2738:	00000000 	sll	zero,zero,0x0
    273c:	ac430000 	sw	v1,0(v0)
    2740:	8fc20010 	lw	v0,16(s8)
    2744:	00000000 	sll	zero,zero,0x0
    2748:	2442003c 	addiu	v0,v0,60
    274c:	8c420000 	lw	v0,0(v0)
    2750:	00000000 	sll	zero,zero,0x0
    2754:	00022103 	sra	a0,v0,0x4
    2758:	8fc20010 	lw	v0,16(s8)
    275c:	00000000 	sll	zero,zero,0x0
    2760:	2442003c 	addiu	v0,v0,60
    2764:	8c420000 	lw	v0,0(v0)
    2768:	00000000 	sll	zero,zero,0x0
    276c:	3043000f 	andi	v1,v0,0xf
    2770:	3c020000 	lui	v0,0x0
    2774:	00042100 	sll	a0,a0,0x4
    2778:	00831821 	addu	v1,a0,v1
    277c:	00031880 	sll	v1,v1,0x2
    2780:	24426298 	addiu	v0,v0,25240
    2784:	00621021 	addu	v0,v1,v0
    2788:	8c420000 	lw	v0,0(v0)
    278c:	00000000 	sll	zero,zero,0x0
    2790:	afc20000 	sw	v0,0(s8)
    2794:	8fc20010 	lw	v0,16(s8)
    2798:	00000000 	sll	zero,zero,0x0
    279c:	2442003c 	addiu	v0,v0,60
    27a0:	8fc30010 	lw	v1,16(s8)
    27a4:	00000000 	sll	zero,zero,0x0
    27a8:	2463007c 	addiu	v1,v1,124
    27ac:	8c630000 	lw	v1,0(v1)
    27b0:	00000000 	sll	zero,zero,0x0
    27b4:	00032903 	sra	a1,v1,0x4
    27b8:	8fc30010 	lw	v1,16(s8)
    27bc:	00000000 	sll	zero,zero,0x0
    27c0:	2463007c 	addiu	v1,v1,124
    27c4:	8c630000 	lw	v1,0(v1)
    27c8:	00000000 	sll	zero,zero,0x0
    27cc:	3064000f 	andi	a0,v1,0xf
    27d0:	3c030000 	lui	v1,0x0
    27d4:	00052900 	sll	a1,a1,0x4
    27d8:	00a42021 	addu	a0,a1,a0
    27dc:	00042080 	sll	a0,a0,0x2
    27e0:	24636298 	addiu	v1,v1,25240
    27e4:	00831821 	addu	v1,a0,v1
    27e8:	8c630000 	lw	v1,0(v1)
    27ec:	00000000 	sll	zero,zero,0x0
    27f0:	ac430000 	sw	v1,0(v0)
    27f4:	8fc20010 	lw	v0,16(s8)
    27f8:	00000000 	sll	zero,zero,0x0
    27fc:	2442007c 	addiu	v0,v0,124
    2800:	8fc30000 	lw	v1,0(s8)
    2804:	00000000 	sll	zero,zero,0x0
    2808:	ac430000 	sw	v1,0(v0)
    280c:	8fc20010 	lw	v0,16(s8)
    2810:	00000000 	sll	zero,zero,0x0
    2814:	8c420000 	lw	v0,0(v0)
    2818:	00000000 	sll	zero,zero,0x0
    281c:	00022103 	sra	a0,v0,0x4
    2820:	8fc20010 	lw	v0,16(s8)
    2824:	00000000 	sll	zero,zero,0x0
    2828:	8c420000 	lw	v0,0(v0)
    282c:	00000000 	sll	zero,zero,0x0
    2830:	3043000f 	andi	v1,v0,0xf
    2834:	3c020000 	lui	v0,0x0
    2838:	00042100 	sll	a0,a0,0x4
    283c:	00831821 	addu	v1,a0,v1
    2840:	00031880 	sll	v1,v1,0x2
    2844:	24426298 	addiu	v0,v0,25240
    2848:	00621021 	addu	v0,v1,v0
    284c:	8c430000 	lw	v1,0(v0)
    2850:	8fc20010 	lw	v0,16(s8)
    2854:	00000000 	sll	zero,zero,0x0
    2858:	ac430000 	sw	v1,0(v0)
    285c:	8fc20010 	lw	v0,16(s8)
    2860:	00000000 	sll	zero,zero,0x0
    2864:	24420010 	addiu	v0,v0,16
    2868:	8fc30010 	lw	v1,16(s8)
    286c:	00000000 	sll	zero,zero,0x0
    2870:	24630010 	addiu	v1,v1,16
    2874:	8c630000 	lw	v1,0(v1)
    2878:	00000000 	sll	zero,zero,0x0
    287c:	00032903 	sra	a1,v1,0x4
    2880:	8fc30010 	lw	v1,16(s8)
    2884:	00000000 	sll	zero,zero,0x0
    2888:	24630010 	addiu	v1,v1,16
    288c:	8c630000 	lw	v1,0(v1)
    2890:	00000000 	sll	zero,zero,0x0
    2894:	3064000f 	andi	a0,v1,0xf
    2898:	3c030000 	lui	v1,0x0
    289c:	00052900 	sll	a1,a1,0x4
    28a0:	00a42021 	addu	a0,a1,a0
    28a4:	00042080 	sll	a0,a0,0x2
    28a8:	24636298 	addiu	v1,v1,25240
    28ac:	00831821 	addu	v1,a0,v1
    28b0:	8c630000 	lw	v1,0(v1)
    28b4:	00000000 	sll	zero,zero,0x0
    28b8:	ac430000 	sw	v1,0(v0)
    28bc:	8fc20010 	lw	v0,16(s8)
    28c0:	00000000 	sll	zero,zero,0x0
    28c4:	24420020 	addiu	v0,v0,32
    28c8:	8fc30010 	lw	v1,16(s8)
    28cc:	00000000 	sll	zero,zero,0x0
    28d0:	24630020 	addiu	v1,v1,32
    28d4:	8c630000 	lw	v1,0(v1)
    28d8:	00000000 	sll	zero,zero,0x0
    28dc:	00032903 	sra	a1,v1,0x4
    28e0:	8fc30010 	lw	v1,16(s8)
    28e4:	00000000 	sll	zero,zero,0x0
    28e8:	24630020 	addiu	v1,v1,32
    28ec:	8c630000 	lw	v1,0(v1)
    28f0:	00000000 	sll	zero,zero,0x0
    28f4:	3064000f 	andi	a0,v1,0xf
    28f8:	3c030000 	lui	v1,0x0
    28fc:	00052900 	sll	a1,a1,0x4
    2900:	00a42021 	addu	a0,a1,a0
    2904:	00042080 	sll	a0,a0,0x2
    2908:	24636298 	addiu	v1,v1,25240
    290c:	00831821 	addu	v1,a0,v1
    2910:	8c630000 	lw	v1,0(v1)
    2914:	00000000 	sll	zero,zero,0x0
    2918:	ac430000 	sw	v1,0(v0)
    291c:	8fc20010 	lw	v0,16(s8)
    2920:	00000000 	sll	zero,zero,0x0
    2924:	24420030 	addiu	v0,v0,48
    2928:	8fc30010 	lw	v1,16(s8)
    292c:	00000000 	sll	zero,zero,0x0
    2930:	24630030 	addiu	v1,v1,48
    2934:	8c630000 	lw	v1,0(v1)
    2938:	00000000 	sll	zero,zero,0x0
    293c:	00032903 	sra	a1,v1,0x4
    2940:	8fc30010 	lw	v1,16(s8)
    2944:	00000000 	sll	zero,zero,0x0
    2948:	24630030 	addiu	v1,v1,48
    294c:	8c630000 	lw	v1,0(v1)
    2950:	00000000 	sll	zero,zero,0x0
    2954:	3064000f 	andi	a0,v1,0xf
    2958:	3c030000 	lui	v1,0x0
    295c:	00052900 	sll	a1,a1,0x4
    2960:	00a42021 	addu	a0,a1,a0
    2964:	00042080 	sll	a0,a0,0x2
    2968:	24636298 	addiu	v1,v1,25240
    296c:	00831821 	addu	v1,a0,v1
    2970:	8c630000 	lw	v1,0(v1)
    2974:	00000000 	sll	zero,zero,0x0
    2978:	ac430000 	sw	v1,0(v0)
    297c:	8fc20010 	lw	v0,16(s8)
    2980:	00000000 	sll	zero,zero,0x0
    2984:	24420040 	addiu	v0,v0,64
    2988:	8fc30010 	lw	v1,16(s8)
    298c:	00000000 	sll	zero,zero,0x0
    2990:	24630040 	addiu	v1,v1,64
    2994:	8c630000 	lw	v1,0(v1)
    2998:	00000000 	sll	zero,zero,0x0
    299c:	00032903 	sra	a1,v1,0x4
    29a0:	8fc30010 	lw	v1,16(s8)
    29a4:	00000000 	sll	zero,zero,0x0
    29a8:	24630040 	addiu	v1,v1,64
    29ac:	8c630000 	lw	v1,0(v1)
    29b0:	00000000 	sll	zero,zero,0x0
    29b4:	3064000f 	andi	a0,v1,0xf
    29b8:	3c030000 	lui	v1,0x0
    29bc:	00052900 	sll	a1,a1,0x4
    29c0:	00a42021 	addu	a0,a1,a0
    29c4:	00042080 	sll	a0,a0,0x2
    29c8:	24636298 	addiu	v1,v1,25240
    29cc:	00831821 	addu	v1,a0,v1
    29d0:	8c630000 	lw	v1,0(v1)
    29d4:	00000000 	sll	zero,zero,0x0
    29d8:	ac430000 	sw	v1,0(v0)
    29dc:	8fc20010 	lw	v0,16(s8)
    29e0:	00000000 	sll	zero,zero,0x0
    29e4:	24420050 	addiu	v0,v0,80
    29e8:	8fc30010 	lw	v1,16(s8)
    29ec:	00000000 	sll	zero,zero,0x0
    29f0:	24630050 	addiu	v1,v1,80
    29f4:	8c630000 	lw	v1,0(v1)
    29f8:	00000000 	sll	zero,zero,0x0
    29fc:	00032903 	sra	a1,v1,0x4
    2a00:	8fc30010 	lw	v1,16(s8)
    2a04:	00000000 	sll	zero,zero,0x0
    2a08:	24630050 	addiu	v1,v1,80
    2a0c:	8c630000 	lw	v1,0(v1)
    2a10:	00000000 	sll	zero,zero,0x0
    2a14:	3064000f 	andi	a0,v1,0xf
    2a18:	3c030000 	lui	v1,0x0
    2a1c:	00052900 	sll	a1,a1,0x4
    2a20:	00a42021 	addu	a0,a1,a0
    2a24:	00042080 	sll	a0,a0,0x2
    2a28:	24636298 	addiu	v1,v1,25240
    2a2c:	00831821 	addu	v1,a0,v1
    2a30:	8c630000 	lw	v1,0(v1)
    2a34:	00000000 	sll	zero,zero,0x0
    2a38:	ac430000 	sw	v1,0(v0)
    2a3c:	8fc20010 	lw	v0,16(s8)
    2a40:	00000000 	sll	zero,zero,0x0
    2a44:	24420060 	addiu	v0,v0,96
    2a48:	8fc30010 	lw	v1,16(s8)
    2a4c:	00000000 	sll	zero,zero,0x0
    2a50:	24630060 	addiu	v1,v1,96
    2a54:	8c630000 	lw	v1,0(v1)
    2a58:	00000000 	sll	zero,zero,0x0
    2a5c:	00032903 	sra	a1,v1,0x4
    2a60:	8fc30010 	lw	v1,16(s8)
    2a64:	00000000 	sll	zero,zero,0x0
    2a68:	24630060 	addiu	v1,v1,96
    2a6c:	8c630000 	lw	v1,0(v1)
    2a70:	00000000 	sll	zero,zero,0x0
    2a74:	3064000f 	andi	a0,v1,0xf
    2a78:	3c030000 	lui	v1,0x0
    2a7c:	00052900 	sll	a1,a1,0x4
    2a80:	00a42021 	addu	a0,a1,a0
    2a84:	00042080 	sll	a0,a0,0x2
    2a88:	24636298 	addiu	v1,v1,25240
    2a8c:	00831821 	addu	v1,a0,v1
    2a90:	8c630000 	lw	v1,0(v1)
    2a94:	00000000 	sll	zero,zero,0x0
    2a98:	ac430000 	sw	v1,0(v0)
    2a9c:	8fc20010 	lw	v0,16(s8)
    2aa0:	00000000 	sll	zero,zero,0x0
    2aa4:	24420070 	addiu	v0,v0,112
    2aa8:	8fc30010 	lw	v1,16(s8)
    2aac:	00000000 	sll	zero,zero,0x0
    2ab0:	24630070 	addiu	v1,v1,112
    2ab4:	8c630000 	lw	v1,0(v1)
    2ab8:	00000000 	sll	zero,zero,0x0
    2abc:	00032903 	sra	a1,v1,0x4
    2ac0:	8fc30010 	lw	v1,16(s8)
    2ac4:	00000000 	sll	zero,zero,0x0
    2ac8:	24630070 	addiu	v1,v1,112
    2acc:	8c630000 	lw	v1,0(v1)
    2ad0:	00000000 	sll	zero,zero,0x0
    2ad4:	3064000f 	andi	a0,v1,0xf
    2ad8:	3c030000 	lui	v1,0x0
    2adc:	00052900 	sll	a1,a1,0x4
    2ae0:	00a42021 	addu	a0,a1,a0
    2ae4:	00042080 	sll	a0,a0,0x2
    2ae8:	24636298 	addiu	v1,v1,25240
    2aec:	00831821 	addu	v1,a0,v1
    2af0:	8c630000 	lw	v1,0(v1)
    2af4:	00000000 	sll	zero,zero,0x0
    2af8:	ac430000 	sw	v1,0(v0)
    2afc:	03c0e821 	addu	sp,s8,zero
    2b00:	8fbe000c 	lw	s8,12(sp)
    2b04:	27bd0010 	addiu	sp,sp,16
    2b08:	03e00008 	jr	ra
    2b0c:	00000000 	sll	zero,zero,0x0
    2b10:	27bdfff8 	addiu	sp,sp,-8
    2b14:	afbe0004 	sw	s8,4(sp)
    2b18:	03a0f021 	addu	s8,sp,zero
    2b1c:	afc40008 	sw	a0,8(s8)
    2b20:	8fc20008 	lw	v0,8(s8)
    2b24:	00000000 	sll	zero,zero,0x0
    2b28:	04410002 	bgez	v0,0x2b34
    2b2c:	00000000 	sll	zero,zero,0x0
    2b30:	2442000f 	addiu	v0,v0,15
    2b34:	00021103 	sra	v0,v0,0x4
    2b38:	00402021 	addu	a0,v0,zero
    2b3c:	8fc30008 	lw	v1,8(s8)
    2b40:	3c028000 	lui	v0,0x8000
    2b44:	3442000f 	ori	v0,v0,0xf
    2b48:	00621024 	and	v0,v1,v0
    2b4c:	04410005 	bgez	v0,0x2b64
    2b50:	00000000 	sll	zero,zero,0x0
    2b54:	2442ffff 	addiu	v0,v0,-1
    2b58:	2403fff0 	addiu	v1,zero,-16
    2b5c:	00431025 	or	v0,v0,v1
    2b60:	24420001 	addiu	v0,v0,1
    2b64:	00401821 	addu	v1,v0,zero
    2b68:	3c020000 	lui	v0,0x0
    2b6c:	00042100 	sll	a0,a0,0x4
    2b70:	00831821 	addu	v1,a0,v1
    2b74:	00031880 	sll	v1,v1,0x2
    2b78:	24426298 	addiu	v0,v0,25240
    2b7c:	00621021 	addu	v0,v1,v0
    2b80:	8c420000 	lw	v0,0(v0)
    2b84:	03c0e821 	addu	sp,s8,zero
    2b88:	8fbe0004 	lw	s8,4(sp)
    2b8c:	27bd0008 	addiu	sp,sp,8
    2b90:	03e00008 	jr	ra
    2b94:	00000000 	sll	zero,zero,0x0
    2b98:	27bdfff0 	addiu	sp,sp,-16
    2b9c:	afbe000c 	sw	s8,12(sp)
    2ba0:	03a0f021 	addu	s8,sp,zero
    2ba4:	afc40010 	sw	a0,16(s8)
    2ba8:	afc50014 	sw	a1,20(s8)
    2bac:	8fc20014 	lw	v0,20(s8)
    2bb0:	24030006 	addiu	v1,zero,6
    2bb4:	10430191 	beq	v0,v1,0x31fc
    2bb8:	00000000 	sll	zero,zero,0x0
    2bbc:	24030008 	addiu	v1,zero,8
    2bc0:	104303de 	beq	v0,v1,0x3b3c
    2bc4:	00000000 	sll	zero,zero,0x0
    2bc8:	24030004 	addiu	v1,zero,4
    2bcc:	144306e9 	bne	v0,v1,0x4774
    2bd0:	00000000 	sll	zero,zero,0x0
    2bd4:	8fc20010 	lw	v0,16(s8)
    2bd8:	00000000 	sll	zero,zero,0x0
    2bdc:	24420034 	addiu	v0,v0,52
    2be0:	8c420000 	lw	v0,0(v0)
    2be4:	00000000 	sll	zero,zero,0x0
    2be8:	00022103 	sra	a0,v0,0x4
    2bec:	8fc20010 	lw	v0,16(s8)
    2bf0:	00000000 	sll	zero,zero,0x0
    2bf4:	24420034 	addiu	v0,v0,52
    2bf8:	8c420000 	lw	v0,0(v0)
    2bfc:	00000000 	sll	zero,zero,0x0
    2c00:	3043000f 	andi	v1,v0,0xf
    2c04:	3c020000 	lui	v0,0x0
    2c08:	00042100 	sll	a0,a0,0x4
    2c0c:	00831821 	addu	v1,a0,v1
    2c10:	00031880 	sll	v1,v1,0x2
    2c14:	24426698 	addiu	v0,v0,26264
    2c18:	00621021 	addu	v0,v1,v0
    2c1c:	8c420000 	lw	v0,0(v0)
    2c20:	00000000 	sll	zero,zero,0x0
    2c24:	afc20000 	sw	v0,0(s8)
    2c28:	8fc20010 	lw	v0,16(s8)
    2c2c:	00000000 	sll	zero,zero,0x0
    2c30:	24420034 	addiu	v0,v0,52
    2c34:	8fc30010 	lw	v1,16(s8)
    2c38:	00000000 	sll	zero,zero,0x0
    2c3c:	24630024 	addiu	v1,v1,36
    2c40:	8c630000 	lw	v1,0(v1)
    2c44:	00000000 	sll	zero,zero,0x0
    2c48:	00032903 	sra	a1,v1,0x4
    2c4c:	8fc30010 	lw	v1,16(s8)
    2c50:	00000000 	sll	zero,zero,0x0
    2c54:	24630024 	addiu	v1,v1,36
    2c58:	8c630000 	lw	v1,0(v1)
    2c5c:	00000000 	sll	zero,zero,0x0
    2c60:	3064000f 	andi	a0,v1,0xf
    2c64:	3c030000 	lui	v1,0x0
    2c68:	00052900 	sll	a1,a1,0x4
    2c6c:	00a42021 	addu	a0,a1,a0
    2c70:	00042080 	sll	a0,a0,0x2
    2c74:	24636698 	addiu	v1,v1,26264
    2c78:	00831821 	addu	v1,a0,v1
    2c7c:	8c630000 	lw	v1,0(v1)
    2c80:	00000000 	sll	zero,zero,0x0
    2c84:	ac430000 	sw	v1,0(v0)
    2c88:	8fc20010 	lw	v0,16(s8)
    2c8c:	00000000 	sll	zero,zero,0x0
    2c90:	24420024 	addiu	v0,v0,36
    2c94:	8fc30010 	lw	v1,16(s8)
    2c98:	00000000 	sll	zero,zero,0x0
    2c9c:	24630014 	addiu	v1,v1,20
    2ca0:	8c630000 	lw	v1,0(v1)
    2ca4:	00000000 	sll	zero,zero,0x0
    2ca8:	00032903 	sra	a1,v1,0x4
    2cac:	8fc30010 	lw	v1,16(s8)
    2cb0:	00000000 	sll	zero,zero,0x0
    2cb4:	24630014 	addiu	v1,v1,20
    2cb8:	8c630000 	lw	v1,0(v1)
    2cbc:	00000000 	sll	zero,zero,0x0
    2cc0:	3064000f 	andi	a0,v1,0xf
    2cc4:	3c030000 	lui	v1,0x0
    2cc8:	00052900 	sll	a1,a1,0x4
    2ccc:	00a42021 	addu	a0,a1,a0
    2cd0:	00042080 	sll	a0,a0,0x2
    2cd4:	24636698 	addiu	v1,v1,26264
    2cd8:	00831821 	addu	v1,a0,v1
    2cdc:	8c630000 	lw	v1,0(v1)
    2ce0:	00000000 	sll	zero,zero,0x0
    2ce4:	ac430000 	sw	v1,0(v0)
    2ce8:	8fc20010 	lw	v0,16(s8)
    2cec:	00000000 	sll	zero,zero,0x0
    2cf0:	24420014 	addiu	v0,v0,20
    2cf4:	8fc30010 	lw	v1,16(s8)
    2cf8:	00000000 	sll	zero,zero,0x0
    2cfc:	24630004 	addiu	v1,v1,4
    2d00:	8c630000 	lw	v1,0(v1)
    2d04:	00000000 	sll	zero,zero,0x0
    2d08:	00032903 	sra	a1,v1,0x4
    2d0c:	8fc30010 	lw	v1,16(s8)
    2d10:	00000000 	sll	zero,zero,0x0
    2d14:	24630004 	addiu	v1,v1,4
    2d18:	8c630000 	lw	v1,0(v1)
    2d1c:	00000000 	sll	zero,zero,0x0
    2d20:	3064000f 	andi	a0,v1,0xf
    2d24:	3c030000 	lui	v1,0x0
    2d28:	00052900 	sll	a1,a1,0x4
    2d2c:	00a42021 	addu	a0,a1,a0
    2d30:	00042080 	sll	a0,a0,0x2
    2d34:	24636698 	addiu	v1,v1,26264
    2d38:	00831821 	addu	v1,a0,v1
    2d3c:	8c630000 	lw	v1,0(v1)
    2d40:	00000000 	sll	zero,zero,0x0
    2d44:	ac430000 	sw	v1,0(v0)
    2d48:	8fc20010 	lw	v0,16(s8)
    2d4c:	00000000 	sll	zero,zero,0x0
    2d50:	24420004 	addiu	v0,v0,4
    2d54:	8fc30000 	lw	v1,0(s8)
    2d58:	00000000 	sll	zero,zero,0x0
    2d5c:	ac430000 	sw	v1,0(v0)
    2d60:	8fc20010 	lw	v0,16(s8)
    2d64:	00000000 	sll	zero,zero,0x0
    2d68:	24420038 	addiu	v0,v0,56
    2d6c:	8c420000 	lw	v0,0(v0)
    2d70:	00000000 	sll	zero,zero,0x0
    2d74:	00022103 	sra	a0,v0,0x4
    2d78:	8fc20010 	lw	v0,16(s8)
    2d7c:	00000000 	sll	zero,zero,0x0
    2d80:	24420038 	addiu	v0,v0,56
    2d84:	8c420000 	lw	v0,0(v0)
    2d88:	00000000 	sll	zero,zero,0x0
    2d8c:	3043000f 	andi	v1,v0,0xf
    2d90:	3c020000 	lui	v0,0x0
    2d94:	00042100 	sll	a0,a0,0x4
    2d98:	00831821 	addu	v1,a0,v1
    2d9c:	00031880 	sll	v1,v1,0x2
    2da0:	24426698 	addiu	v0,v0,26264
    2da4:	00621021 	addu	v0,v1,v0
    2da8:	8c420000 	lw	v0,0(v0)
    2dac:	00000000 	sll	zero,zero,0x0
    2db0:	afc20000 	sw	v0,0(s8)
    2db4:	8fc20010 	lw	v0,16(s8)
    2db8:	00000000 	sll	zero,zero,0x0
    2dbc:	24420038 	addiu	v0,v0,56
    2dc0:	8fc30010 	lw	v1,16(s8)
    2dc4:	00000000 	sll	zero,zero,0x0
    2dc8:	24630018 	addiu	v1,v1,24
    2dcc:	8c630000 	lw	v1,0(v1)
    2dd0:	00000000 	sll	zero,zero,0x0
    2dd4:	00032903 	sra	a1,v1,0x4
    2dd8:	8fc30010 	lw	v1,16(s8)
    2ddc:	00000000 	sll	zero,zero,0x0
    2de0:	24630018 	addiu	v1,v1,24
    2de4:	8c630000 	lw	v1,0(v1)
    2de8:	00000000 	sll	zero,zero,0x0
    2dec:	3064000f 	andi	a0,v1,0xf
    2df0:	3c030000 	lui	v1,0x0
    2df4:	00052900 	sll	a1,a1,0x4
    2df8:	00a42021 	addu	a0,a1,a0
    2dfc:	00042080 	sll	a0,a0,0x2
    2e00:	24636698 	addiu	v1,v1,26264
    2e04:	00831821 	addu	v1,a0,v1
    2e08:	8c630000 	lw	v1,0(v1)
    2e0c:	00000000 	sll	zero,zero,0x0
    2e10:	ac430000 	sw	v1,0(v0)
    2e14:	8fc20010 	lw	v0,16(s8)
    2e18:	00000000 	sll	zero,zero,0x0
    2e1c:	24420018 	addiu	v0,v0,24
    2e20:	8fc30000 	lw	v1,0(s8)
    2e24:	00000000 	sll	zero,zero,0x0
    2e28:	ac430000 	sw	v1,0(v0)
    2e2c:	8fc20010 	lw	v0,16(s8)
    2e30:	00000000 	sll	zero,zero,0x0
    2e34:	24420008 	addiu	v0,v0,8
    2e38:	8c420000 	lw	v0,0(v0)
    2e3c:	00000000 	sll	zero,zero,0x0
    2e40:	00022103 	sra	a0,v0,0x4
    2e44:	8fc20010 	lw	v0,16(s8)
    2e48:	00000000 	sll	zero,zero,0x0
    2e4c:	24420008 	addiu	v0,v0,8
    2e50:	8c420000 	lw	v0,0(v0)
    2e54:	00000000 	sll	zero,zero,0x0
    2e58:	3043000f 	andi	v1,v0,0xf
    2e5c:	3c020000 	lui	v0,0x0
    2e60:	00042100 	sll	a0,a0,0x4
    2e64:	00831821 	addu	v1,a0,v1
    2e68:	00031880 	sll	v1,v1,0x2
    2e6c:	24426698 	addiu	v0,v0,26264
    2e70:	00621021 	addu	v0,v1,v0
    2e74:	8c420000 	lw	v0,0(v0)
    2e78:	00000000 	sll	zero,zero,0x0
    2e7c:	afc20000 	sw	v0,0(s8)
    2e80:	8fc20010 	lw	v0,16(s8)
    2e84:	00000000 	sll	zero,zero,0x0
    2e88:	24420008 	addiu	v0,v0,8
    2e8c:	8fc30010 	lw	v1,16(s8)
    2e90:	00000000 	sll	zero,zero,0x0
    2e94:	24630028 	addiu	v1,v1,40
    2e98:	8c630000 	lw	v1,0(v1)
    2e9c:	00000000 	sll	zero,zero,0x0
    2ea0:	00032903 	sra	a1,v1,0x4
    2ea4:	8fc30010 	lw	v1,16(s8)
    2ea8:	00000000 	sll	zero,zero,0x0
    2eac:	24630028 	addiu	v1,v1,40
    2eb0:	8c630000 	lw	v1,0(v1)
    2eb4:	00000000 	sll	zero,zero,0x0
    2eb8:	3064000f 	andi	a0,v1,0xf
    2ebc:	3c030000 	lui	v1,0x0
    2ec0:	00052900 	sll	a1,a1,0x4
    2ec4:	00a42021 	addu	a0,a1,a0
    2ec8:	00042080 	sll	a0,a0,0x2
    2ecc:	24636698 	addiu	v1,v1,26264
    2ed0:	00831821 	addu	v1,a0,v1
    2ed4:	8c630000 	lw	v1,0(v1)
    2ed8:	00000000 	sll	zero,zero,0x0
    2edc:	ac430000 	sw	v1,0(v0)
    2ee0:	8fc20010 	lw	v0,16(s8)
    2ee4:	00000000 	sll	zero,zero,0x0
    2ee8:	24420028 	addiu	v0,v0,40
    2eec:	8fc30000 	lw	v1,0(s8)
    2ef0:	00000000 	sll	zero,zero,0x0
    2ef4:	ac430000 	sw	v1,0(v0)
    2ef8:	8fc20010 	lw	v0,16(s8)
    2efc:	00000000 	sll	zero,zero,0x0
    2f00:	2442003c 	addiu	v0,v0,60
    2f04:	8c420000 	lw	v0,0(v0)
    2f08:	00000000 	sll	zero,zero,0x0
    2f0c:	00022103 	sra	a0,v0,0x4
    2f10:	8fc20010 	lw	v0,16(s8)
    2f14:	00000000 	sll	zero,zero,0x0
    2f18:	2442003c 	addiu	v0,v0,60
    2f1c:	8c420000 	lw	v0,0(v0)
    2f20:	00000000 	sll	zero,zero,0x0
    2f24:	3043000f 	andi	v1,v0,0xf
    2f28:	3c020000 	lui	v0,0x0
    2f2c:	00042100 	sll	a0,a0,0x4
    2f30:	00831821 	addu	v1,a0,v1
    2f34:	00031880 	sll	v1,v1,0x2
    2f38:	24426698 	addiu	v0,v0,26264
    2f3c:	00621021 	addu	v0,v1,v0
    2f40:	8c420000 	lw	v0,0(v0)
    2f44:	00000000 	sll	zero,zero,0x0
    2f48:	afc20000 	sw	v0,0(s8)
    2f4c:	8fc20010 	lw	v0,16(s8)
    2f50:	00000000 	sll	zero,zero,0x0
    2f54:	2442003c 	addiu	v0,v0,60
    2f58:	8fc30010 	lw	v1,16(s8)
    2f5c:	00000000 	sll	zero,zero,0x0
    2f60:	2463000c 	addiu	v1,v1,12
    2f64:	8c630000 	lw	v1,0(v1)
    2f68:	00000000 	sll	zero,zero,0x0
    2f6c:	00032903 	sra	a1,v1,0x4
    2f70:	8fc30010 	lw	v1,16(s8)
    2f74:	00000000 	sll	zero,zero,0x0
    2f78:	2463000c 	addiu	v1,v1,12
    2f7c:	8c630000 	lw	v1,0(v1)
    2f80:	00000000 	sll	zero,zero,0x0
    2f84:	3064000f 	andi	a0,v1,0xf
    2f88:	3c030000 	lui	v1,0x0
    2f8c:	00052900 	sll	a1,a1,0x4
    2f90:	00a42021 	addu	a0,a1,a0
    2f94:	00042080 	sll	a0,a0,0x2
    2f98:	24636698 	addiu	v1,v1,26264
    2f9c:	00831821 	addu	v1,a0,v1
    2fa0:	8c630000 	lw	v1,0(v1)
    2fa4:	00000000 	sll	zero,zero,0x0
    2fa8:	ac430000 	sw	v1,0(v0)
    2fac:	8fc20010 	lw	v0,16(s8)
    2fb0:	00000000 	sll	zero,zero,0x0
    2fb4:	2442000c 	addiu	v0,v0,12
    2fb8:	8fc30010 	lw	v1,16(s8)
    2fbc:	00000000 	sll	zero,zero,0x0
    2fc0:	2463001c 	addiu	v1,v1,28
    2fc4:	8c630000 	lw	v1,0(v1)
    2fc8:	00000000 	sll	zero,zero,0x0
    2fcc:	00032903 	sra	a1,v1,0x4
    2fd0:	8fc30010 	lw	v1,16(s8)
    2fd4:	00000000 	sll	zero,zero,0x0
    2fd8:	2463001c 	addiu	v1,v1,28
    2fdc:	8c630000 	lw	v1,0(v1)
    2fe0:	00000000 	sll	zero,zero,0x0
    2fe4:	3064000f 	andi	a0,v1,0xf
    2fe8:	3c030000 	lui	v1,0x0
    2fec:	00052900 	sll	a1,a1,0x4
    2ff0:	00a42021 	addu	a0,a1,a0
    2ff4:	00042080 	sll	a0,a0,0x2
    2ff8:	24636698 	addiu	v1,v1,26264
    2ffc:	00831821 	addu	v1,a0,v1
    3000:	8c630000 	lw	v1,0(v1)
    3004:	00000000 	sll	zero,zero,0x0
    3008:	ac430000 	sw	v1,0(v0)
    300c:	8fc20010 	lw	v0,16(s8)
    3010:	00000000 	sll	zero,zero,0x0
    3014:	2442001c 	addiu	v0,v0,28
    3018:	8fc30010 	lw	v1,16(s8)
    301c:	00000000 	sll	zero,zero,0x0
    3020:	2463002c 	addiu	v1,v1,44
    3024:	8c630000 	lw	v1,0(v1)
    3028:	00000000 	sll	zero,zero,0x0
    302c:	00032903 	sra	a1,v1,0x4
    3030:	8fc30010 	lw	v1,16(s8)
    3034:	00000000 	sll	zero,zero,0x0
    3038:	2463002c 	addiu	v1,v1,44
    303c:	8c630000 	lw	v1,0(v1)
    3040:	00000000 	sll	zero,zero,0x0
    3044:	3064000f 	andi	a0,v1,0xf
    3048:	3c030000 	lui	v1,0x0
    304c:	00052900 	sll	a1,a1,0x4
    3050:	00a42021 	addu	a0,a1,a0
    3054:	00042080 	sll	a0,a0,0x2
    3058:	24636698 	addiu	v1,v1,26264
    305c:	00831821 	addu	v1,a0,v1
    3060:	8c630000 	lw	v1,0(v1)
    3064:	00000000 	sll	zero,zero,0x0
    3068:	ac430000 	sw	v1,0(v0)
    306c:	8fc20010 	lw	v0,16(s8)
    3070:	00000000 	sll	zero,zero,0x0
    3074:	2442002c 	addiu	v0,v0,44
    3078:	8fc30000 	lw	v1,0(s8)
    307c:	00000000 	sll	zero,zero,0x0
    3080:	ac430000 	sw	v1,0(v0)
    3084:	8fc20010 	lw	v0,16(s8)
    3088:	00000000 	sll	zero,zero,0x0
    308c:	8c420000 	lw	v0,0(v0)
    3090:	00000000 	sll	zero,zero,0x0
    3094:	00022103 	sra	a0,v0,0x4
    3098:	8fc20010 	lw	v0,16(s8)
    309c:	00000000 	sll	zero,zero,0x0
    30a0:	8c420000 	lw	v0,0(v0)
    30a4:	00000000 	sll	zero,zero,0x0
    30a8:	3043000f 	andi	v1,v0,0xf
    30ac:	3c020000 	lui	v0,0x0
    30b0:	00042100 	sll	a0,a0,0x4
    30b4:	00831821 	addu	v1,a0,v1
    30b8:	00031880 	sll	v1,v1,0x2
    30bc:	24426698 	addiu	v0,v0,26264
    30c0:	00621021 	addu	v0,v1,v0
    30c4:	8c430000 	lw	v1,0(v0)
    30c8:	8fc20010 	lw	v0,16(s8)
    30cc:	00000000 	sll	zero,zero,0x0
    30d0:	ac430000 	sw	v1,0(v0)
    30d4:	8fc20010 	lw	v0,16(s8)
    30d8:	00000000 	sll	zero,zero,0x0
    30dc:	24420010 	addiu	v0,v0,16
    30e0:	8fc30010 	lw	v1,16(s8)
    30e4:	00000000 	sll	zero,zero,0x0
    30e8:	24630010 	addiu	v1,v1,16
    30ec:	8c630000 	lw	v1,0(v1)
    30f0:	00000000 	sll	zero,zero,0x0
    30f4:	00032903 	sra	a1,v1,0x4
    30f8:	8fc30010 	lw	v1,16(s8)
    30fc:	00000000 	sll	zero,zero,0x0
    3100:	24630010 	addiu	v1,v1,16
    3104:	8c630000 	lw	v1,0(v1)
    3108:	00000000 	sll	zero,zero,0x0
    310c:	3064000f 	andi	a0,v1,0xf
    3110:	3c030000 	lui	v1,0x0
    3114:	00052900 	sll	a1,a1,0x4
    3118:	00a42021 	addu	a0,a1,a0
    311c:	00042080 	sll	a0,a0,0x2
    3120:	24636698 	addiu	v1,v1,26264
    3124:	00831821 	addu	v1,a0,v1
    3128:	8c630000 	lw	v1,0(v1)
    312c:	00000000 	sll	zero,zero,0x0
    3130:	ac430000 	sw	v1,0(v0)
    3134:	8fc20010 	lw	v0,16(s8)
    3138:	00000000 	sll	zero,zero,0x0
    313c:	24420020 	addiu	v0,v0,32
    3140:	8fc30010 	lw	v1,16(s8)
    3144:	00000000 	sll	zero,zero,0x0
    3148:	24630020 	addiu	v1,v1,32
    314c:	8c630000 	lw	v1,0(v1)
    3150:	00000000 	sll	zero,zero,0x0
    3154:	00032903 	sra	a1,v1,0x4
    3158:	8fc30010 	lw	v1,16(s8)
    315c:	00000000 	sll	zero,zero,0x0
    3160:	24630020 	addiu	v1,v1,32
    3164:	8c630000 	lw	v1,0(v1)
    3168:	00000000 	sll	zero,zero,0x0
    316c:	3064000f 	andi	a0,v1,0xf
    3170:	3c030000 	lui	v1,0x0
    3174:	00052900 	sll	a1,a1,0x4
    3178:	00a42021 	addu	a0,a1,a0
    317c:	00042080 	sll	a0,a0,0x2
    3180:	24636698 	addiu	v1,v1,26264
    3184:	00831821 	addu	v1,a0,v1
    3188:	8c630000 	lw	v1,0(v1)
    318c:	00000000 	sll	zero,zero,0x0
    3190:	ac430000 	sw	v1,0(v0)
    3194:	8fc20010 	lw	v0,16(s8)
    3198:	00000000 	sll	zero,zero,0x0
    319c:	24420030 	addiu	v0,v0,48
    31a0:	8fc30010 	lw	v1,16(s8)
    31a4:	00000000 	sll	zero,zero,0x0
    31a8:	24630030 	addiu	v1,v1,48
    31ac:	8c630000 	lw	v1,0(v1)
    31b0:	00000000 	sll	zero,zero,0x0
    31b4:	00032903 	sra	a1,v1,0x4
    31b8:	8fc30010 	lw	v1,16(s8)
    31bc:	00000000 	sll	zero,zero,0x0
    31c0:	24630030 	addiu	v1,v1,48
    31c4:	8c630000 	lw	v1,0(v1)
    31c8:	00000000 	sll	zero,zero,0x0
    31cc:	3064000f 	andi	a0,v1,0xf
    31d0:	3c030000 	lui	v1,0x0
    31d4:	00052900 	sll	a1,a1,0x4
    31d8:	00a42021 	addu	a0,a1,a0
    31dc:	00042080 	sll	a0,a0,0x2
    31e0:	24636698 	addiu	v1,v1,26264
    31e4:	00831821 	addu	v1,a0,v1
    31e8:	8c630000 	lw	v1,0(v1)
    31ec:	00000000 	sll	zero,zero,0x0
    31f0:	ac430000 	sw	v1,0(v0)
    31f4:	080011dd 	j	0x4774
    31f8:	00000000 	sll	zero,zero,0x0
    31fc:	8fc20010 	lw	v0,16(s8)
    3200:	00000000 	sll	zero,zero,0x0
    3204:	24420054 	addiu	v0,v0,84
    3208:	8c420000 	lw	v0,0(v0)
    320c:	00000000 	sll	zero,zero,0x0
    3210:	00022103 	sra	a0,v0,0x4
    3214:	8fc20010 	lw	v0,16(s8)
    3218:	00000000 	sll	zero,zero,0x0
    321c:	24420054 	addiu	v0,v0,84
    3220:	8c420000 	lw	v0,0(v0)
    3224:	00000000 	sll	zero,zero,0x0
    3228:	3043000f 	andi	v1,v0,0xf
    322c:	3c020000 	lui	v0,0x0
    3230:	00042100 	sll	a0,a0,0x4
    3234:	00831821 	addu	v1,a0,v1
    3238:	00031880 	sll	v1,v1,0x2
    323c:	24426698 	addiu	v0,v0,26264
    3240:	00621021 	addu	v0,v1,v0
    3244:	8c420000 	lw	v0,0(v0)
    3248:	00000000 	sll	zero,zero,0x0
    324c:	afc20000 	sw	v0,0(s8)
    3250:	8fc20010 	lw	v0,16(s8)
    3254:	00000000 	sll	zero,zero,0x0
    3258:	24420054 	addiu	v0,v0,84
    325c:	8fc30010 	lw	v1,16(s8)
    3260:	00000000 	sll	zero,zero,0x0
    3264:	24630044 	addiu	v1,v1,68
    3268:	8c630000 	lw	v1,0(v1)
    326c:	00000000 	sll	zero,zero,0x0
    3270:	00032903 	sra	a1,v1,0x4
    3274:	8fc30010 	lw	v1,16(s8)
    3278:	00000000 	sll	zero,zero,0x0
    327c:	24630044 	addiu	v1,v1,68
    3280:	8c630000 	lw	v1,0(v1)
    3284:	00000000 	sll	zero,zero,0x0
    3288:	3064000f 	andi	a0,v1,0xf
    328c:	3c030000 	lui	v1,0x0
    3290:	00052900 	sll	a1,a1,0x4
    3294:	00a42021 	addu	a0,a1,a0
    3298:	00042080 	sll	a0,a0,0x2
    329c:	24636698 	addiu	v1,v1,26264
    32a0:	00831821 	addu	v1,a0,v1
    32a4:	8c630000 	lw	v1,0(v1)
    32a8:	00000000 	sll	zero,zero,0x0
    32ac:	ac430000 	sw	v1,0(v0)
    32b0:	8fc20010 	lw	v0,16(s8)
    32b4:	00000000 	sll	zero,zero,0x0
    32b8:	24420044 	addiu	v0,v0,68
    32bc:	8fc30010 	lw	v1,16(s8)
    32c0:	00000000 	sll	zero,zero,0x0
    32c4:	24630034 	addiu	v1,v1,52
    32c8:	8c630000 	lw	v1,0(v1)
    32cc:	00000000 	sll	zero,zero,0x0
    32d0:	00032903 	sra	a1,v1,0x4
    32d4:	8fc30010 	lw	v1,16(s8)
    32d8:	00000000 	sll	zero,zero,0x0
    32dc:	24630034 	addiu	v1,v1,52
    32e0:	8c630000 	lw	v1,0(v1)
    32e4:	00000000 	sll	zero,zero,0x0
    32e8:	3064000f 	andi	a0,v1,0xf
    32ec:	3c030000 	lui	v1,0x0
    32f0:	00052900 	sll	a1,a1,0x4
    32f4:	00a42021 	addu	a0,a1,a0
    32f8:	00042080 	sll	a0,a0,0x2
    32fc:	24636698 	addiu	v1,v1,26264
    3300:	00831821 	addu	v1,a0,v1
    3304:	8c630000 	lw	v1,0(v1)
    3308:	00000000 	sll	zero,zero,0x0
    330c:	ac430000 	sw	v1,0(v0)
    3310:	8fc20010 	lw	v0,16(s8)
    3314:	00000000 	sll	zero,zero,0x0
    3318:	24420034 	addiu	v0,v0,52
    331c:	8fc30010 	lw	v1,16(s8)
    3320:	00000000 	sll	zero,zero,0x0
    3324:	24630024 	addiu	v1,v1,36
    3328:	8c630000 	lw	v1,0(v1)
    332c:	00000000 	sll	zero,zero,0x0
    3330:	00032903 	sra	a1,v1,0x4
    3334:	8fc30010 	lw	v1,16(s8)
    3338:	00000000 	sll	zero,zero,0x0
    333c:	24630024 	addiu	v1,v1,36
    3340:	8c630000 	lw	v1,0(v1)
    3344:	00000000 	sll	zero,zero,0x0
    3348:	3064000f 	andi	a0,v1,0xf
    334c:	3c030000 	lui	v1,0x0
    3350:	00052900 	sll	a1,a1,0x4
    3354:	00a42021 	addu	a0,a1,a0
    3358:	00042080 	sll	a0,a0,0x2
    335c:	24636698 	addiu	v1,v1,26264
    3360:	00831821 	addu	v1,a0,v1
    3364:	8c630000 	lw	v1,0(v1)
    3368:	00000000 	sll	zero,zero,0x0
    336c:	ac430000 	sw	v1,0(v0)
    3370:	8fc20010 	lw	v0,16(s8)
    3374:	00000000 	sll	zero,zero,0x0
    3378:	24420024 	addiu	v0,v0,36
    337c:	8fc30010 	lw	v1,16(s8)
    3380:	00000000 	sll	zero,zero,0x0
    3384:	24630014 	addiu	v1,v1,20
    3388:	8c630000 	lw	v1,0(v1)
    338c:	00000000 	sll	zero,zero,0x0
    3390:	00032903 	sra	a1,v1,0x4
    3394:	8fc30010 	lw	v1,16(s8)
    3398:	00000000 	sll	zero,zero,0x0
    339c:	24630014 	addiu	v1,v1,20
    33a0:	8c630000 	lw	v1,0(v1)
    33a4:	00000000 	sll	zero,zero,0x0
    33a8:	3064000f 	andi	a0,v1,0xf
    33ac:	3c030000 	lui	v1,0x0
    33b0:	00052900 	sll	a1,a1,0x4
    33b4:	00a42021 	addu	a0,a1,a0
    33b8:	00042080 	sll	a0,a0,0x2
    33bc:	24636698 	addiu	v1,v1,26264
    33c0:	00831821 	addu	v1,a0,v1
    33c4:	8c630000 	lw	v1,0(v1)
    33c8:	00000000 	sll	zero,zero,0x0
    33cc:	ac430000 	sw	v1,0(v0)
    33d0:	8fc20010 	lw	v0,16(s8)
    33d4:	00000000 	sll	zero,zero,0x0
    33d8:	24420014 	addiu	v0,v0,20
    33dc:	8fc30010 	lw	v1,16(s8)
    33e0:	00000000 	sll	zero,zero,0x0
    33e4:	24630004 	addiu	v1,v1,4
    33e8:	8c630000 	lw	v1,0(v1)
    33ec:	00000000 	sll	zero,zero,0x0
    33f0:	00032903 	sra	a1,v1,0x4
    33f4:	8fc30010 	lw	v1,16(s8)
    33f8:	00000000 	sll	zero,zero,0x0
    33fc:	24630004 	addiu	v1,v1,4
    3400:	8c630000 	lw	v1,0(v1)
    3404:	00000000 	sll	zero,zero,0x0
    3408:	3064000f 	andi	a0,v1,0xf
    340c:	3c030000 	lui	v1,0x0
    3410:	00052900 	sll	a1,a1,0x4
    3414:	00a42021 	addu	a0,a1,a0
    3418:	00042080 	sll	a0,a0,0x2
    341c:	24636698 	addiu	v1,v1,26264
    3420:	00831821 	addu	v1,a0,v1
    3424:	8c630000 	lw	v1,0(v1)
    3428:	00000000 	sll	zero,zero,0x0
    342c:	ac430000 	sw	v1,0(v0)
    3430:	8fc20010 	lw	v0,16(s8)
    3434:	00000000 	sll	zero,zero,0x0
    3438:	24420004 	addiu	v0,v0,4
    343c:	8fc30000 	lw	v1,0(s8)
    3440:	00000000 	sll	zero,zero,0x0
    3444:	ac430000 	sw	v1,0(v0)
    3448:	8fc20010 	lw	v0,16(s8)
    344c:	00000000 	sll	zero,zero,0x0
    3450:	24420058 	addiu	v0,v0,88
    3454:	8c420000 	lw	v0,0(v0)
    3458:	00000000 	sll	zero,zero,0x0
    345c:	00022103 	sra	a0,v0,0x4
    3460:	8fc20010 	lw	v0,16(s8)
    3464:	00000000 	sll	zero,zero,0x0
    3468:	24420058 	addiu	v0,v0,88
    346c:	8c420000 	lw	v0,0(v0)
    3470:	00000000 	sll	zero,zero,0x0
    3474:	3043000f 	andi	v1,v0,0xf
    3478:	3c020000 	lui	v0,0x0
    347c:	00042100 	sll	a0,a0,0x4
    3480:	00831821 	addu	v1,a0,v1
    3484:	00031880 	sll	v1,v1,0x2
    3488:	24426698 	addiu	v0,v0,26264
    348c:	00621021 	addu	v0,v1,v0
    3490:	8c420000 	lw	v0,0(v0)
    3494:	00000000 	sll	zero,zero,0x0
    3498:	afc20000 	sw	v0,0(s8)
    349c:	8fc20010 	lw	v0,16(s8)
    34a0:	00000000 	sll	zero,zero,0x0
    34a4:	24420058 	addiu	v0,v0,88
    34a8:	8fc30010 	lw	v1,16(s8)
    34ac:	00000000 	sll	zero,zero,0x0
    34b0:	24630038 	addiu	v1,v1,56
    34b4:	8c630000 	lw	v1,0(v1)
    34b8:	00000000 	sll	zero,zero,0x0
    34bc:	00032903 	sra	a1,v1,0x4
    34c0:	8fc30010 	lw	v1,16(s8)
    34c4:	00000000 	sll	zero,zero,0x0
    34c8:	24630038 	addiu	v1,v1,56
    34cc:	8c630000 	lw	v1,0(v1)
    34d0:	00000000 	sll	zero,zero,0x0
    34d4:	3064000f 	andi	a0,v1,0xf
    34d8:	3c030000 	lui	v1,0x0
    34dc:	00052900 	sll	a1,a1,0x4
    34e0:	00a42021 	addu	a0,a1,a0
    34e4:	00042080 	sll	a0,a0,0x2
    34e8:	24636698 	addiu	v1,v1,26264
    34ec:	00831821 	addu	v1,a0,v1
    34f0:	8c630000 	lw	v1,0(v1)
    34f4:	00000000 	sll	zero,zero,0x0
    34f8:	ac430000 	sw	v1,0(v0)
    34fc:	8fc20010 	lw	v0,16(s8)
    3500:	00000000 	sll	zero,zero,0x0
    3504:	24420038 	addiu	v0,v0,56
    3508:	8fc30010 	lw	v1,16(s8)
    350c:	00000000 	sll	zero,zero,0x0
    3510:	24630018 	addiu	v1,v1,24
    3514:	8c630000 	lw	v1,0(v1)
    3518:	00000000 	sll	zero,zero,0x0
    351c:	00032903 	sra	a1,v1,0x4
    3520:	8fc30010 	lw	v1,16(s8)
    3524:	00000000 	sll	zero,zero,0x0
    3528:	24630018 	addiu	v1,v1,24
    352c:	8c630000 	lw	v1,0(v1)
    3530:	00000000 	sll	zero,zero,0x0
    3534:	3064000f 	andi	a0,v1,0xf
    3538:	3c030000 	lui	v1,0x0
    353c:	00052900 	sll	a1,a1,0x4
    3540:	00a42021 	addu	a0,a1,a0
    3544:	00042080 	sll	a0,a0,0x2
    3548:	24636698 	addiu	v1,v1,26264
    354c:	00831821 	addu	v1,a0,v1
    3550:	8c630000 	lw	v1,0(v1)
    3554:	00000000 	sll	zero,zero,0x0
    3558:	ac430000 	sw	v1,0(v0)
    355c:	8fc20010 	lw	v0,16(s8)
    3560:	00000000 	sll	zero,zero,0x0
    3564:	24420018 	addiu	v0,v0,24
    3568:	8fc30000 	lw	v1,0(s8)
    356c:	00000000 	sll	zero,zero,0x0
    3570:	ac430000 	sw	v1,0(v0)
    3574:	8fc20010 	lw	v0,16(s8)
    3578:	00000000 	sll	zero,zero,0x0
    357c:	24420048 	addiu	v0,v0,72
    3580:	8c420000 	lw	v0,0(v0)
    3584:	00000000 	sll	zero,zero,0x0
    3588:	00022103 	sra	a0,v0,0x4
    358c:	8fc20010 	lw	v0,16(s8)
    3590:	00000000 	sll	zero,zero,0x0
    3594:	24420048 	addiu	v0,v0,72
    3598:	8c420000 	lw	v0,0(v0)
    359c:	00000000 	sll	zero,zero,0x0
    35a0:	3043000f 	andi	v1,v0,0xf
    35a4:	3c020000 	lui	v0,0x0
    35a8:	00042100 	sll	a0,a0,0x4
    35ac:	00831821 	addu	v1,a0,v1
    35b0:	00031880 	sll	v1,v1,0x2
    35b4:	24426698 	addiu	v0,v0,26264
    35b8:	00621021 	addu	v0,v1,v0
    35bc:	8c420000 	lw	v0,0(v0)
    35c0:	00000000 	sll	zero,zero,0x0
    35c4:	afc20000 	sw	v0,0(s8)
    35c8:	8fc20010 	lw	v0,16(s8)
    35cc:	00000000 	sll	zero,zero,0x0
    35d0:	24420048 	addiu	v0,v0,72
    35d4:	8fc30010 	lw	v1,16(s8)
    35d8:	00000000 	sll	zero,zero,0x0
    35dc:	24630028 	addiu	v1,v1,40
    35e0:	8c630000 	lw	v1,0(v1)
    35e4:	00000000 	sll	zero,zero,0x0
    35e8:	00032903 	sra	a1,v1,0x4
    35ec:	8fc30010 	lw	v1,16(s8)
    35f0:	00000000 	sll	zero,zero,0x0
    35f4:	24630028 	addiu	v1,v1,40
    35f8:	8c630000 	lw	v1,0(v1)
    35fc:	00000000 	sll	zero,zero,0x0
    3600:	3064000f 	andi	a0,v1,0xf
    3604:	3c030000 	lui	v1,0x0
    3608:	00052900 	sll	a1,a1,0x4
    360c:	00a42021 	addu	a0,a1,a0
    3610:	00042080 	sll	a0,a0,0x2
    3614:	24636698 	addiu	v1,v1,26264
    3618:	00831821 	addu	v1,a0,v1
    361c:	8c630000 	lw	v1,0(v1)
    3620:	00000000 	sll	zero,zero,0x0
    3624:	ac430000 	sw	v1,0(v0)
    3628:	8fc20010 	lw	v0,16(s8)
    362c:	00000000 	sll	zero,zero,0x0
    3630:	24420028 	addiu	v0,v0,40
    3634:	8fc30010 	lw	v1,16(s8)
    3638:	00000000 	sll	zero,zero,0x0
    363c:	24630008 	addiu	v1,v1,8
    3640:	8c630000 	lw	v1,0(v1)
    3644:	00000000 	sll	zero,zero,0x0
    3648:	00032903 	sra	a1,v1,0x4
    364c:	8fc30010 	lw	v1,16(s8)
    3650:	00000000 	sll	zero,zero,0x0
    3654:	24630008 	addiu	v1,v1,8
    3658:	8c630000 	lw	v1,0(v1)
    365c:	00000000 	sll	zero,zero,0x0
    3660:	3064000f 	andi	a0,v1,0xf
    3664:	3c030000 	lui	v1,0x0
    3668:	00052900 	sll	a1,a1,0x4
    366c:	00a42021 	addu	a0,a1,a0
    3670:	00042080 	sll	a0,a0,0x2
    3674:	24636698 	addiu	v1,v1,26264
    3678:	00831821 	addu	v1,a0,v1
    367c:	8c630000 	lw	v1,0(v1)
    3680:	00000000 	sll	zero,zero,0x0
    3684:	ac430000 	sw	v1,0(v0)
    3688:	8fc20010 	lw	v0,16(s8)
    368c:	00000000 	sll	zero,zero,0x0
    3690:	24420008 	addiu	v0,v0,8
    3694:	8fc30000 	lw	v1,0(s8)
    3698:	00000000 	sll	zero,zero,0x0
    369c:	ac430000 	sw	v1,0(v0)
    36a0:	8fc20010 	lw	v0,16(s8)
    36a4:	00000000 	sll	zero,zero,0x0
    36a8:	2442003c 	addiu	v0,v0,60
    36ac:	8c420000 	lw	v0,0(v0)
    36b0:	00000000 	sll	zero,zero,0x0
    36b4:	00022103 	sra	a0,v0,0x4
    36b8:	8fc20010 	lw	v0,16(s8)
    36bc:	00000000 	sll	zero,zero,0x0
    36c0:	2442003c 	addiu	v0,v0,60
    36c4:	8c420000 	lw	v0,0(v0)
    36c8:	00000000 	sll	zero,zero,0x0
    36cc:	3043000f 	andi	v1,v0,0xf
    36d0:	3c020000 	lui	v0,0x0
    36d4:	00042100 	sll	a0,a0,0x4
    36d8:	00831821 	addu	v1,a0,v1
    36dc:	00031880 	sll	v1,v1,0x2
    36e0:	24426698 	addiu	v0,v0,26264
    36e4:	00621021 	addu	v0,v1,v0
    36e8:	8c420000 	lw	v0,0(v0)
    36ec:	00000000 	sll	zero,zero,0x0
    36f0:	afc20000 	sw	v0,0(s8)
    36f4:	8fc20010 	lw	v0,16(s8)
    36f8:	00000000 	sll	zero,zero,0x0
    36fc:	2442003c 	addiu	v0,v0,60
    3700:	8fc30010 	lw	v1,16(s8)
    3704:	00000000 	sll	zero,zero,0x0
    3708:	2463000c 	addiu	v1,v1,12
    370c:	8c630000 	lw	v1,0(v1)
    3710:	00000000 	sll	zero,zero,0x0
    3714:	00032903 	sra	a1,v1,0x4
    3718:	8fc30010 	lw	v1,16(s8)
    371c:	00000000 	sll	zero,zero,0x0
    3720:	2463000c 	addiu	v1,v1,12
    3724:	8c630000 	lw	v1,0(v1)
    3728:	00000000 	sll	zero,zero,0x0
    372c:	3064000f 	andi	a0,v1,0xf
    3730:	3c030000 	lui	v1,0x0
    3734:	00052900 	sll	a1,a1,0x4
    3738:	00a42021 	addu	a0,a1,a0
    373c:	00042080 	sll	a0,a0,0x2
    3740:	24636698 	addiu	v1,v1,26264
    3744:	00831821 	addu	v1,a0,v1
    3748:	8c630000 	lw	v1,0(v1)
    374c:	00000000 	sll	zero,zero,0x0
    3750:	ac430000 	sw	v1,0(v0)
    3754:	8fc20010 	lw	v0,16(s8)
    3758:	00000000 	sll	zero,zero,0x0
    375c:	2442000c 	addiu	v0,v0,12
    3760:	8fc30000 	lw	v1,0(s8)
    3764:	00000000 	sll	zero,zero,0x0
    3768:	ac430000 	sw	v1,0(v0)
    376c:	8fc20010 	lw	v0,16(s8)
    3770:	00000000 	sll	zero,zero,0x0
    3774:	2442004c 	addiu	v0,v0,76
    3778:	8c420000 	lw	v0,0(v0)
    377c:	00000000 	sll	zero,zero,0x0
    3780:	00022103 	sra	a0,v0,0x4
    3784:	8fc20010 	lw	v0,16(s8)
    3788:	00000000 	sll	zero,zero,0x0
    378c:	2442004c 	addiu	v0,v0,76
    3790:	8c420000 	lw	v0,0(v0)
    3794:	00000000 	sll	zero,zero,0x0
    3798:	3043000f 	andi	v1,v0,0xf
    379c:	3c020000 	lui	v0,0x0
    37a0:	00042100 	sll	a0,a0,0x4
    37a4:	00831821 	addu	v1,a0,v1
    37a8:	00031880 	sll	v1,v1,0x2
    37ac:	24426698 	addiu	v0,v0,26264
    37b0:	00621021 	addu	v0,v1,v0
    37b4:	8c420000 	lw	v0,0(v0)
    37b8:	00000000 	sll	zero,zero,0x0
    37bc:	afc20000 	sw	v0,0(s8)
    37c0:	8fc20010 	lw	v0,16(s8)
    37c4:	00000000 	sll	zero,zero,0x0
    37c8:	2442004c 	addiu	v0,v0,76
    37cc:	8fc30010 	lw	v1,16(s8)
    37d0:	00000000 	sll	zero,zero,0x0
    37d4:	2463001c 	addiu	v1,v1,28
    37d8:	8c630000 	lw	v1,0(v1)
    37dc:	00000000 	sll	zero,zero,0x0
    37e0:	00032903 	sra	a1,v1,0x4
    37e4:	8fc30010 	lw	v1,16(s8)
    37e8:	00000000 	sll	zero,zero,0x0
    37ec:	2463001c 	addiu	v1,v1,28
    37f0:	8c630000 	lw	v1,0(v1)
    37f4:	00000000 	sll	zero,zero,0x0
    37f8:	3064000f 	andi	a0,v1,0xf
    37fc:	3c030000 	lui	v1,0x0
    3800:	00052900 	sll	a1,a1,0x4
    3804:	00a42021 	addu	a0,a1,a0
    3808:	00042080 	sll	a0,a0,0x2
    380c:	24636698 	addiu	v1,v1,26264
    3810:	00831821 	addu	v1,a0,v1
    3814:	8c630000 	lw	v1,0(v1)
    3818:	00000000 	sll	zero,zero,0x0
    381c:	ac430000 	sw	v1,0(v0)
    3820:	8fc20010 	lw	v0,16(s8)
    3824:	00000000 	sll	zero,zero,0x0
    3828:	2442001c 	addiu	v0,v0,28
    382c:	8fc30000 	lw	v1,0(s8)
    3830:	00000000 	sll	zero,zero,0x0
    3834:	ac430000 	sw	v1,0(v0)
    3838:	8fc20010 	lw	v0,16(s8)
    383c:	00000000 	sll	zero,zero,0x0
    3840:	2442005c 	addiu	v0,v0,92
    3844:	8c420000 	lw	v0,0(v0)
    3848:	00000000 	sll	zero,zero,0x0
    384c:	00022103 	sra	a0,v0,0x4
    3850:	8fc20010 	lw	v0,16(s8)
    3854:	00000000 	sll	zero,zero,0x0
    3858:	2442005c 	addiu	v0,v0,92
    385c:	8c420000 	lw	v0,0(v0)
    3860:	00000000 	sll	zero,zero,0x0
    3864:	3043000f 	andi	v1,v0,0xf
    3868:	3c020000 	lui	v0,0x0
    386c:	00042100 	sll	a0,a0,0x4
    3870:	00831821 	addu	v1,a0,v1
    3874:	00031880 	sll	v1,v1,0x2
    3878:	24426698 	addiu	v0,v0,26264
    387c:	00621021 	addu	v0,v1,v0
    3880:	8c420000 	lw	v0,0(v0)
    3884:	00000000 	sll	zero,zero,0x0
    3888:	afc20000 	sw	v0,0(s8)
    388c:	8fc20010 	lw	v0,16(s8)
    3890:	00000000 	sll	zero,zero,0x0
    3894:	2442005c 	addiu	v0,v0,92
    3898:	8fc30010 	lw	v1,16(s8)
    389c:	00000000 	sll	zero,zero,0x0
    38a0:	2463002c 	addiu	v1,v1,44
    38a4:	8c630000 	lw	v1,0(v1)
    38a8:	00000000 	sll	zero,zero,0x0
    38ac:	00032903 	sra	a1,v1,0x4
    38b0:	8fc30010 	lw	v1,16(s8)
    38b4:	00000000 	sll	zero,zero,0x0
    38b8:	2463002c 	addiu	v1,v1,44
    38bc:	8c630000 	lw	v1,0(v1)
    38c0:	00000000 	sll	zero,zero,0x0
    38c4:	3064000f 	andi	a0,v1,0xf
    38c8:	3c030000 	lui	v1,0x0
    38cc:	00052900 	sll	a1,a1,0x4
    38d0:	00a42021 	addu	a0,a1,a0
    38d4:	00042080 	sll	a0,a0,0x2
    38d8:	24636698 	addiu	v1,v1,26264
    38dc:	00831821 	addu	v1,a0,v1
    38e0:	8c630000 	lw	v1,0(v1)
    38e4:	00000000 	sll	zero,zero,0x0
    38e8:	ac430000 	sw	v1,0(v0)
    38ec:	8fc20010 	lw	v0,16(s8)
    38f0:	00000000 	sll	zero,zero,0x0
    38f4:	2442002c 	addiu	v0,v0,44
    38f8:	8fc30000 	lw	v1,0(s8)
    38fc:	00000000 	sll	zero,zero,0x0
    3900:	ac430000 	sw	v1,0(v0)
    3904:	8fc20010 	lw	v0,16(s8)
    3908:	00000000 	sll	zero,zero,0x0
    390c:	8c420000 	lw	v0,0(v0)
    3910:	00000000 	sll	zero,zero,0x0
    3914:	00022103 	sra	a0,v0,0x4
    3918:	8fc20010 	lw	v0,16(s8)
    391c:	00000000 	sll	zero,zero,0x0
    3920:	8c420000 	lw	v0,0(v0)
    3924:	00000000 	sll	zero,zero,0x0
    3928:	3043000f 	andi	v1,v0,0xf
    392c:	3c020000 	lui	v0,0x0
    3930:	00042100 	sll	a0,a0,0x4
    3934:	00831821 	addu	v1,a0,v1
    3938:	00031880 	sll	v1,v1,0x2
    393c:	24426698 	addiu	v0,v0,26264
    3940:	00621021 	addu	v0,v1,v0
    3944:	8c430000 	lw	v1,0(v0)
    3948:	8fc20010 	lw	v0,16(s8)
    394c:	00000000 	sll	zero,zero,0x0
    3950:	ac430000 	sw	v1,0(v0)
    3954:	8fc20010 	lw	v0,16(s8)
    3958:	00000000 	sll	zero,zero,0x0
    395c:	24420010 	addiu	v0,v0,16
    3960:	8fc30010 	lw	v1,16(s8)
    3964:	00000000 	sll	zero,zero,0x0
    3968:	24630010 	addiu	v1,v1,16
    396c:	8c630000 	lw	v1,0(v1)
    3970:	00000000 	sll	zero,zero,0x0
    3974:	00032903 	sra	a1,v1,0x4
    3978:	8fc30010 	lw	v1,16(s8)
    397c:	00000000 	sll	zero,zero,0x0
    3980:	24630010 	addiu	v1,v1,16
    3984:	8c630000 	lw	v1,0(v1)
    3988:	00000000 	sll	zero,zero,0x0
    398c:	3064000f 	andi	a0,v1,0xf
    3990:	3c030000 	lui	v1,0x0
    3994:	00052900 	sll	a1,a1,0x4
    3998:	00a42021 	addu	a0,a1,a0
    399c:	00042080 	sll	a0,a0,0x2
    39a0:	24636698 	addiu	v1,v1,26264
    39a4:	00831821 	addu	v1,a0,v1
    39a8:	8c630000 	lw	v1,0(v1)
    39ac:	00000000 	sll	zero,zero,0x0
    39b0:	ac430000 	sw	v1,0(v0)
    39b4:	8fc20010 	lw	v0,16(s8)
    39b8:	00000000 	sll	zero,zero,0x0
    39bc:	24420020 	addiu	v0,v0,32
    39c0:	8fc30010 	lw	v1,16(s8)
    39c4:	00000000 	sll	zero,zero,0x0
    39c8:	24630020 	addiu	v1,v1,32
    39cc:	8c630000 	lw	v1,0(v1)
    39d0:	00000000 	sll	zero,zero,0x0
    39d4:	00032903 	sra	a1,v1,0x4
    39d8:	8fc30010 	lw	v1,16(s8)
    39dc:	00000000 	sll	zero,zero,0x0
    39e0:	24630020 	addiu	v1,v1,32
    39e4:	8c630000 	lw	v1,0(v1)
    39e8:	00000000 	sll	zero,zero,0x0
    39ec:	3064000f 	andi	a0,v1,0xf
    39f0:	3c030000 	lui	v1,0x0
    39f4:	00052900 	sll	a1,a1,0x4
    39f8:	00a42021 	addu	a0,a1,a0
    39fc:	00042080 	sll	a0,a0,0x2
    3a00:	24636698 	addiu	v1,v1,26264
    3a04:	00831821 	addu	v1,a0,v1
    3a08:	8c630000 	lw	v1,0(v1)
    3a0c:	00000000 	sll	zero,zero,0x0
    3a10:	ac430000 	sw	v1,0(v0)
    3a14:	8fc20010 	lw	v0,16(s8)
    3a18:	00000000 	sll	zero,zero,0x0
    3a1c:	24420030 	addiu	v0,v0,48
    3a20:	8fc30010 	lw	v1,16(s8)
    3a24:	00000000 	sll	zero,zero,0x0
    3a28:	24630030 	addiu	v1,v1,48
    3a2c:	8c630000 	lw	v1,0(v1)
    3a30:	00000000 	sll	zero,zero,0x0
    3a34:	00032903 	sra	a1,v1,0x4
    3a38:	8fc30010 	lw	v1,16(s8)
    3a3c:	00000000 	sll	zero,zero,0x0
    3a40:	24630030 	addiu	v1,v1,48
    3a44:	8c630000 	lw	v1,0(v1)
    3a48:	00000000 	sll	zero,zero,0x0
    3a4c:	3064000f 	andi	a0,v1,0xf
    3a50:	3c030000 	lui	v1,0x0
    3a54:	00052900 	sll	a1,a1,0x4
    3a58:	00a42021 	addu	a0,a1,a0
    3a5c:	00042080 	sll	a0,a0,0x2
    3a60:	24636698 	addiu	v1,v1,26264
    3a64:	00831821 	addu	v1,a0,v1
    3a68:	8c630000 	lw	v1,0(v1)
    3a6c:	00000000 	sll	zero,zero,0x0
    3a70:	ac430000 	sw	v1,0(v0)
    3a74:	8fc20010 	lw	v0,16(s8)
    3a78:	00000000 	sll	zero,zero,0x0
    3a7c:	24420040 	addiu	v0,v0,64
    3a80:	8fc30010 	lw	v1,16(s8)
    3a84:	00000000 	sll	zero,zero,0x0
    3a88:	24630040 	addiu	v1,v1,64
    3a8c:	8c630000 	lw	v1,0(v1)
    3a90:	00000000 	sll	zero,zero,0x0
    3a94:	00032903 	sra	a1,v1,0x4
    3a98:	8fc30010 	lw	v1,16(s8)
    3a9c:	00000000 	sll	zero,zero,0x0
    3aa0:	24630040 	addiu	v1,v1,64
    3aa4:	8c630000 	lw	v1,0(v1)
    3aa8:	00000000 	sll	zero,zero,0x0
    3aac:	3064000f 	andi	a0,v1,0xf
    3ab0:	3c030000 	lui	v1,0x0
    3ab4:	00052900 	sll	a1,a1,0x4
    3ab8:	00a42021 	addu	a0,a1,a0
    3abc:	00042080 	sll	a0,a0,0x2
    3ac0:	24636698 	addiu	v1,v1,26264
    3ac4:	00831821 	addu	v1,a0,v1
    3ac8:	8c630000 	lw	v1,0(v1)
    3acc:	00000000 	sll	zero,zero,0x0
    3ad0:	ac430000 	sw	v1,0(v0)
    3ad4:	8fc20010 	lw	v0,16(s8)
    3ad8:	00000000 	sll	zero,zero,0x0
    3adc:	24420050 	addiu	v0,v0,80
    3ae0:	8fc30010 	lw	v1,16(s8)
    3ae4:	00000000 	sll	zero,zero,0x0
    3ae8:	24630050 	addiu	v1,v1,80
    3aec:	8c630000 	lw	v1,0(v1)
    3af0:	00000000 	sll	zero,zero,0x0
    3af4:	00032903 	sra	a1,v1,0x4
    3af8:	8fc30010 	lw	v1,16(s8)
    3afc:	00000000 	sll	zero,zero,0x0
    3b00:	24630050 	addiu	v1,v1,80
    3b04:	8c630000 	lw	v1,0(v1)
    3b08:	00000000 	sll	zero,zero,0x0
    3b0c:	3064000f 	andi	a0,v1,0xf
    3b10:	3c030000 	lui	v1,0x0
    3b14:	00052900 	sll	a1,a1,0x4
    3b18:	00a42021 	addu	a0,a1,a0
    3b1c:	00042080 	sll	a0,a0,0x2
    3b20:	24636698 	addiu	v1,v1,26264
    3b24:	00831821 	addu	v1,a0,v1
    3b28:	8c630000 	lw	v1,0(v1)
    3b2c:	00000000 	sll	zero,zero,0x0
    3b30:	ac430000 	sw	v1,0(v0)
    3b34:	080011dd 	j	0x4774
    3b38:	00000000 	sll	zero,zero,0x0
    3b3c:	8fc20010 	lw	v0,16(s8)
    3b40:	00000000 	sll	zero,zero,0x0
    3b44:	24420074 	addiu	v0,v0,116
    3b48:	8c420000 	lw	v0,0(v0)
    3b4c:	00000000 	sll	zero,zero,0x0
    3b50:	00022103 	sra	a0,v0,0x4
    3b54:	8fc20010 	lw	v0,16(s8)
    3b58:	00000000 	sll	zero,zero,0x0
    3b5c:	24420074 	addiu	v0,v0,116
    3b60:	8c420000 	lw	v0,0(v0)
    3b64:	00000000 	sll	zero,zero,0x0
    3b68:	3043000f 	andi	v1,v0,0xf
    3b6c:	3c020000 	lui	v0,0x0
    3b70:	00042100 	sll	a0,a0,0x4
    3b74:	00831821 	addu	v1,a0,v1
    3b78:	00031880 	sll	v1,v1,0x2
    3b7c:	24426698 	addiu	v0,v0,26264
    3b80:	00621021 	addu	v0,v1,v0
    3b84:	8c420000 	lw	v0,0(v0)
    3b88:	00000000 	sll	zero,zero,0x0
    3b8c:	afc20000 	sw	v0,0(s8)
    3b90:	8fc20010 	lw	v0,16(s8)
    3b94:	00000000 	sll	zero,zero,0x0
    3b98:	24420074 	addiu	v0,v0,116
    3b9c:	8fc30010 	lw	v1,16(s8)
    3ba0:	00000000 	sll	zero,zero,0x0
    3ba4:	24630064 	addiu	v1,v1,100
    3ba8:	8c630000 	lw	v1,0(v1)
    3bac:	00000000 	sll	zero,zero,0x0
    3bb0:	00032903 	sra	a1,v1,0x4
    3bb4:	8fc30010 	lw	v1,16(s8)
    3bb8:	00000000 	sll	zero,zero,0x0
    3bbc:	24630064 	addiu	v1,v1,100
    3bc0:	8c630000 	lw	v1,0(v1)
    3bc4:	00000000 	sll	zero,zero,0x0
    3bc8:	3064000f 	andi	a0,v1,0xf
    3bcc:	3c030000 	lui	v1,0x0
    3bd0:	00052900 	sll	a1,a1,0x4
    3bd4:	00a42021 	addu	a0,a1,a0
    3bd8:	00042080 	sll	a0,a0,0x2
    3bdc:	24636698 	addiu	v1,v1,26264
    3be0:	00831821 	addu	v1,a0,v1
    3be4:	8c630000 	lw	v1,0(v1)
    3be8:	00000000 	sll	zero,zero,0x0
    3bec:	ac430000 	sw	v1,0(v0)
    3bf0:	8fc20010 	lw	v0,16(s8)
    3bf4:	00000000 	sll	zero,zero,0x0
    3bf8:	24420064 	addiu	v0,v0,100
    3bfc:	8fc30010 	lw	v1,16(s8)
    3c00:	00000000 	sll	zero,zero,0x0
    3c04:	24630054 	addiu	v1,v1,84
    3c08:	8c630000 	lw	v1,0(v1)
    3c0c:	00000000 	sll	zero,zero,0x0
    3c10:	00032903 	sra	a1,v1,0x4
    3c14:	8fc30010 	lw	v1,16(s8)
    3c18:	00000000 	sll	zero,zero,0x0
    3c1c:	24630054 	addiu	v1,v1,84
    3c20:	8c630000 	lw	v1,0(v1)
    3c24:	00000000 	sll	zero,zero,0x0
    3c28:	3064000f 	andi	a0,v1,0xf
    3c2c:	3c030000 	lui	v1,0x0
    3c30:	00052900 	sll	a1,a1,0x4
    3c34:	00a42021 	addu	a0,a1,a0
    3c38:	00042080 	sll	a0,a0,0x2
    3c3c:	24636698 	addiu	v1,v1,26264
    3c40:	00831821 	addu	v1,a0,v1
    3c44:	8c630000 	lw	v1,0(v1)
    3c48:	00000000 	sll	zero,zero,0x0
    3c4c:	ac430000 	sw	v1,0(v0)
    3c50:	8fc20010 	lw	v0,16(s8)
    3c54:	00000000 	sll	zero,zero,0x0
    3c58:	24420054 	addiu	v0,v0,84
    3c5c:	8fc30010 	lw	v1,16(s8)
    3c60:	00000000 	sll	zero,zero,0x0
    3c64:	24630044 	addiu	v1,v1,68
    3c68:	8c630000 	lw	v1,0(v1)
    3c6c:	00000000 	sll	zero,zero,0x0
    3c70:	00032903 	sra	a1,v1,0x4
    3c74:	8fc30010 	lw	v1,16(s8)
    3c78:	00000000 	sll	zero,zero,0x0
    3c7c:	24630044 	addiu	v1,v1,68
    3c80:	8c630000 	lw	v1,0(v1)
    3c84:	00000000 	sll	zero,zero,0x0
    3c88:	3064000f 	andi	a0,v1,0xf
    3c8c:	3c030000 	lui	v1,0x0
    3c90:	00052900 	sll	a1,a1,0x4
    3c94:	00a42021 	addu	a0,a1,a0
    3c98:	00042080 	sll	a0,a0,0x2
    3c9c:	24636698 	addiu	v1,v1,26264
    3ca0:	00831821 	addu	v1,a0,v1
    3ca4:	8c630000 	lw	v1,0(v1)
    3ca8:	00000000 	sll	zero,zero,0x0
    3cac:	ac430000 	sw	v1,0(v0)
    3cb0:	8fc20010 	lw	v0,16(s8)
    3cb4:	00000000 	sll	zero,zero,0x0
    3cb8:	24420044 	addiu	v0,v0,68
    3cbc:	8fc30010 	lw	v1,16(s8)
    3cc0:	00000000 	sll	zero,zero,0x0
    3cc4:	24630034 	addiu	v1,v1,52
    3cc8:	8c630000 	lw	v1,0(v1)
    3ccc:	00000000 	sll	zero,zero,0x0
    3cd0:	00032903 	sra	a1,v1,0x4
    3cd4:	8fc30010 	lw	v1,16(s8)
    3cd8:	00000000 	sll	zero,zero,0x0
    3cdc:	24630034 	addiu	v1,v1,52
    3ce0:	8c630000 	lw	v1,0(v1)
    3ce4:	00000000 	sll	zero,zero,0x0
    3ce8:	3064000f 	andi	a0,v1,0xf
    3cec:	3c030000 	lui	v1,0x0
    3cf0:	00052900 	sll	a1,a1,0x4
    3cf4:	00a42021 	addu	a0,a1,a0
    3cf8:	00042080 	sll	a0,a0,0x2
    3cfc:	24636698 	addiu	v1,v1,26264
    3d00:	00831821 	addu	v1,a0,v1
    3d04:	8c630000 	lw	v1,0(v1)
    3d08:	00000000 	sll	zero,zero,0x0
    3d0c:	ac430000 	sw	v1,0(v0)
    3d10:	8fc20010 	lw	v0,16(s8)
    3d14:	00000000 	sll	zero,zero,0x0
    3d18:	24420034 	addiu	v0,v0,52
    3d1c:	8fc30010 	lw	v1,16(s8)
    3d20:	00000000 	sll	zero,zero,0x0
    3d24:	24630024 	addiu	v1,v1,36
    3d28:	8c630000 	lw	v1,0(v1)
    3d2c:	00000000 	sll	zero,zero,0x0
    3d30:	00032903 	sra	a1,v1,0x4
    3d34:	8fc30010 	lw	v1,16(s8)
    3d38:	00000000 	sll	zero,zero,0x0
    3d3c:	24630024 	addiu	v1,v1,36
    3d40:	8c630000 	lw	v1,0(v1)
    3d44:	00000000 	sll	zero,zero,0x0
    3d48:	3064000f 	andi	a0,v1,0xf
    3d4c:	3c030000 	lui	v1,0x0
    3d50:	00052900 	sll	a1,a1,0x4
    3d54:	00a42021 	addu	a0,a1,a0
    3d58:	00042080 	sll	a0,a0,0x2
    3d5c:	24636698 	addiu	v1,v1,26264
    3d60:	00831821 	addu	v1,a0,v1
    3d64:	8c630000 	lw	v1,0(v1)
    3d68:	00000000 	sll	zero,zero,0x0
    3d6c:	ac430000 	sw	v1,0(v0)
    3d70:	8fc20010 	lw	v0,16(s8)
    3d74:	00000000 	sll	zero,zero,0x0
    3d78:	24420024 	addiu	v0,v0,36
    3d7c:	8fc30010 	lw	v1,16(s8)
    3d80:	00000000 	sll	zero,zero,0x0
    3d84:	24630014 	addiu	v1,v1,20
    3d88:	8c630000 	lw	v1,0(v1)
    3d8c:	00000000 	sll	zero,zero,0x0
    3d90:	00032903 	sra	a1,v1,0x4
    3d94:	8fc30010 	lw	v1,16(s8)
    3d98:	00000000 	sll	zero,zero,0x0
    3d9c:	24630014 	addiu	v1,v1,20
    3da0:	8c630000 	lw	v1,0(v1)
    3da4:	00000000 	sll	zero,zero,0x0
    3da8:	3064000f 	andi	a0,v1,0xf
    3dac:	3c030000 	lui	v1,0x0
    3db0:	00052900 	sll	a1,a1,0x4
    3db4:	00a42021 	addu	a0,a1,a0
    3db8:	00042080 	sll	a0,a0,0x2
    3dbc:	24636698 	addiu	v1,v1,26264
    3dc0:	00831821 	addu	v1,a0,v1
    3dc4:	8c630000 	lw	v1,0(v1)
    3dc8:	00000000 	sll	zero,zero,0x0
    3dcc:	ac430000 	sw	v1,0(v0)
    3dd0:	8fc20010 	lw	v0,16(s8)
    3dd4:	00000000 	sll	zero,zero,0x0
    3dd8:	24420014 	addiu	v0,v0,20
    3ddc:	8fc30010 	lw	v1,16(s8)
    3de0:	00000000 	sll	zero,zero,0x0
    3de4:	24630004 	addiu	v1,v1,4
    3de8:	8c630000 	lw	v1,0(v1)
    3dec:	00000000 	sll	zero,zero,0x0
    3df0:	00032903 	sra	a1,v1,0x4
    3df4:	8fc30010 	lw	v1,16(s8)
    3df8:	00000000 	sll	zero,zero,0x0
    3dfc:	24630004 	addiu	v1,v1,4
    3e00:	8c630000 	lw	v1,0(v1)
    3e04:	00000000 	sll	zero,zero,0x0
    3e08:	3064000f 	andi	a0,v1,0xf
    3e0c:	3c030000 	lui	v1,0x0
    3e10:	00052900 	sll	a1,a1,0x4
    3e14:	00a42021 	addu	a0,a1,a0
    3e18:	00042080 	sll	a0,a0,0x2
    3e1c:	24636698 	addiu	v1,v1,26264
    3e20:	00831821 	addu	v1,a0,v1
    3e24:	8c630000 	lw	v1,0(v1)
    3e28:	00000000 	sll	zero,zero,0x0
    3e2c:	ac430000 	sw	v1,0(v0)
    3e30:	8fc20010 	lw	v0,16(s8)
    3e34:	00000000 	sll	zero,zero,0x0
    3e38:	24420004 	addiu	v0,v0,4
    3e3c:	8fc30000 	lw	v1,0(s8)
    3e40:	00000000 	sll	zero,zero,0x0
    3e44:	ac430000 	sw	v1,0(v0)
    3e48:	8fc20010 	lw	v0,16(s8)
    3e4c:	00000000 	sll	zero,zero,0x0
    3e50:	24420078 	addiu	v0,v0,120
    3e54:	8c420000 	lw	v0,0(v0)
    3e58:	00000000 	sll	zero,zero,0x0
    3e5c:	00022103 	sra	a0,v0,0x4
    3e60:	8fc20010 	lw	v0,16(s8)
    3e64:	00000000 	sll	zero,zero,0x0
    3e68:	24420078 	addiu	v0,v0,120
    3e6c:	8c420000 	lw	v0,0(v0)
    3e70:	00000000 	sll	zero,zero,0x0
    3e74:	3043000f 	andi	v1,v0,0xf
    3e78:	3c020000 	lui	v0,0x0
    3e7c:	00042100 	sll	a0,a0,0x4
    3e80:	00831821 	addu	v1,a0,v1
    3e84:	00031880 	sll	v1,v1,0x2
    3e88:	24426698 	addiu	v0,v0,26264
    3e8c:	00621021 	addu	v0,v1,v0
    3e90:	8c420000 	lw	v0,0(v0)
    3e94:	00000000 	sll	zero,zero,0x0
    3e98:	afc20000 	sw	v0,0(s8)
    3e9c:	8fc20010 	lw	v0,16(s8)
    3ea0:	00000000 	sll	zero,zero,0x0
    3ea4:	24420078 	addiu	v0,v0,120
    3ea8:	8fc30010 	lw	v1,16(s8)
    3eac:	00000000 	sll	zero,zero,0x0
    3eb0:	24630048 	addiu	v1,v1,72
    3eb4:	8c630000 	lw	v1,0(v1)
    3eb8:	00000000 	sll	zero,zero,0x0
    3ebc:	00032903 	sra	a1,v1,0x4
    3ec0:	8fc30010 	lw	v1,16(s8)
    3ec4:	00000000 	sll	zero,zero,0x0
    3ec8:	24630048 	addiu	v1,v1,72
    3ecc:	8c630000 	lw	v1,0(v1)
    3ed0:	00000000 	sll	zero,zero,0x0
    3ed4:	3064000f 	andi	a0,v1,0xf
    3ed8:	3c030000 	lui	v1,0x0
    3edc:	00052900 	sll	a1,a1,0x4
    3ee0:	00a42021 	addu	a0,a1,a0
    3ee4:	00042080 	sll	a0,a0,0x2
    3ee8:	24636698 	addiu	v1,v1,26264
    3eec:	00831821 	addu	v1,a0,v1
    3ef0:	8c630000 	lw	v1,0(v1)
    3ef4:	00000000 	sll	zero,zero,0x0
    3ef8:	ac430000 	sw	v1,0(v0)
    3efc:	8fc20010 	lw	v0,16(s8)
    3f00:	00000000 	sll	zero,zero,0x0
    3f04:	24420048 	addiu	v0,v0,72
    3f08:	8fc30010 	lw	v1,16(s8)
    3f0c:	00000000 	sll	zero,zero,0x0
    3f10:	24630018 	addiu	v1,v1,24
    3f14:	8c630000 	lw	v1,0(v1)
    3f18:	00000000 	sll	zero,zero,0x0
    3f1c:	00032903 	sra	a1,v1,0x4
    3f20:	8fc30010 	lw	v1,16(s8)
    3f24:	00000000 	sll	zero,zero,0x0
    3f28:	24630018 	addiu	v1,v1,24
    3f2c:	8c630000 	lw	v1,0(v1)
    3f30:	00000000 	sll	zero,zero,0x0
    3f34:	3064000f 	andi	a0,v1,0xf
    3f38:	3c030000 	lui	v1,0x0
    3f3c:	00052900 	sll	a1,a1,0x4
    3f40:	00a42021 	addu	a0,a1,a0
    3f44:	00042080 	sll	a0,a0,0x2
    3f48:	24636698 	addiu	v1,v1,26264
    3f4c:	00831821 	addu	v1,a0,v1
    3f50:	8c630000 	lw	v1,0(v1)
    3f54:	00000000 	sll	zero,zero,0x0
    3f58:	ac430000 	sw	v1,0(v0)
    3f5c:	8fc20010 	lw	v0,16(s8)
    3f60:	00000000 	sll	zero,zero,0x0
    3f64:	24420018 	addiu	v0,v0,24
    3f68:	8fc30010 	lw	v1,16(s8)
    3f6c:	00000000 	sll	zero,zero,0x0
    3f70:	24630068 	addiu	v1,v1,104
    3f74:	8c630000 	lw	v1,0(v1)
    3f78:	00000000 	sll	zero,zero,0x0
    3f7c:	00032903 	sra	a1,v1,0x4
    3f80:	8fc30010 	lw	v1,16(s8)
    3f84:	00000000 	sll	zero,zero,0x0
    3f88:	24630068 	addiu	v1,v1,104
    3f8c:	8c630000 	lw	v1,0(v1)
    3f90:	00000000 	sll	zero,zero,0x0
    3f94:	3064000f 	andi	a0,v1,0xf
    3f98:	3c030000 	lui	v1,0x0
    3f9c:	00052900 	sll	a1,a1,0x4
    3fa0:	00a42021 	addu	a0,a1,a0
    3fa4:	00042080 	sll	a0,a0,0x2
    3fa8:	24636698 	addiu	v1,v1,26264
    3fac:	00831821 	addu	v1,a0,v1
    3fb0:	8c630000 	lw	v1,0(v1)
    3fb4:	00000000 	sll	zero,zero,0x0
    3fb8:	ac430000 	sw	v1,0(v0)
    3fbc:	8fc20010 	lw	v0,16(s8)
    3fc0:	00000000 	sll	zero,zero,0x0
    3fc4:	24420068 	addiu	v0,v0,104
    3fc8:	8fc30010 	lw	v1,16(s8)
    3fcc:	00000000 	sll	zero,zero,0x0
    3fd0:	24630038 	addiu	v1,v1,56
    3fd4:	8c630000 	lw	v1,0(v1)
    3fd8:	00000000 	sll	zero,zero,0x0
    3fdc:	00032903 	sra	a1,v1,0x4
    3fe0:	8fc30010 	lw	v1,16(s8)
    3fe4:	00000000 	sll	zero,zero,0x0
    3fe8:	24630038 	addiu	v1,v1,56
    3fec:	8c630000 	lw	v1,0(v1)
    3ff0:	00000000 	sll	zero,zero,0x0
    3ff4:	3064000f 	andi	a0,v1,0xf
    3ff8:	3c030000 	lui	v1,0x0
    3ffc:	00052900 	sll	a1,a1,0x4
    4000:	00a42021 	addu	a0,a1,a0
    4004:	00042080 	sll	a0,a0,0x2
    4008:	24636698 	addiu	v1,v1,26264
    400c:	00831821 	addu	v1,a0,v1
    4010:	8c630000 	lw	v1,0(v1)
    4014:	00000000 	sll	zero,zero,0x0
    4018:	ac430000 	sw	v1,0(v0)
    401c:	8fc20010 	lw	v0,16(s8)
    4020:	00000000 	sll	zero,zero,0x0
    4024:	24420038 	addiu	v0,v0,56
    4028:	8fc30010 	lw	v1,16(s8)
    402c:	00000000 	sll	zero,zero,0x0
    4030:	24630008 	addiu	v1,v1,8
    4034:	8c630000 	lw	v1,0(v1)
    4038:	00000000 	sll	zero,zero,0x0
    403c:	00032903 	sra	a1,v1,0x4
    4040:	8fc30010 	lw	v1,16(s8)
    4044:	00000000 	sll	zero,zero,0x0
    4048:	24630008 	addiu	v1,v1,8
    404c:	8c630000 	lw	v1,0(v1)
    4050:	00000000 	sll	zero,zero,0x0
    4054:	3064000f 	andi	a0,v1,0xf
    4058:	3c030000 	lui	v1,0x0
    405c:	00052900 	sll	a1,a1,0x4
    4060:	00a42021 	addu	a0,a1,a0
    4064:	00042080 	sll	a0,a0,0x2
    4068:	24636698 	addiu	v1,v1,26264
    406c:	00831821 	addu	v1,a0,v1
    4070:	8c630000 	lw	v1,0(v1)
    4074:	00000000 	sll	zero,zero,0x0
    4078:	ac430000 	sw	v1,0(v0)
    407c:	8fc20010 	lw	v0,16(s8)
    4080:	00000000 	sll	zero,zero,0x0
    4084:	24420008 	addiu	v0,v0,8
    4088:	8fc30010 	lw	v1,16(s8)
    408c:	00000000 	sll	zero,zero,0x0
    4090:	24630058 	addiu	v1,v1,88
    4094:	8c630000 	lw	v1,0(v1)
    4098:	00000000 	sll	zero,zero,0x0
    409c:	00032903 	sra	a1,v1,0x4
    40a0:	8fc30010 	lw	v1,16(s8)
    40a4:	00000000 	sll	zero,zero,0x0
    40a8:	24630058 	addiu	v1,v1,88
    40ac:	8c630000 	lw	v1,0(v1)
    40b0:	00000000 	sll	zero,zero,0x0
    40b4:	3064000f 	andi	a0,v1,0xf
    40b8:	3c030000 	lui	v1,0x0
    40bc:	00052900 	sll	a1,a1,0x4
    40c0:	00a42021 	addu	a0,a1,a0
    40c4:	00042080 	sll	a0,a0,0x2
    40c8:	24636698 	addiu	v1,v1,26264
    40cc:	00831821 	addu	v1,a0,v1
    40d0:	8c630000 	lw	v1,0(v1)
    40d4:	00000000 	sll	zero,zero,0x0
    40d8:	ac430000 	sw	v1,0(v0)
    40dc:	8fc20010 	lw	v0,16(s8)
    40e0:	00000000 	sll	zero,zero,0x0
    40e4:	24420058 	addiu	v0,v0,88
    40e8:	8fc30010 	lw	v1,16(s8)
    40ec:	00000000 	sll	zero,zero,0x0
    40f0:	24630028 	addiu	v1,v1,40
    40f4:	8c630000 	lw	v1,0(v1)
    40f8:	00000000 	sll	zero,zero,0x0
    40fc:	00032903 	sra	a1,v1,0x4
    4100:	8fc30010 	lw	v1,16(s8)
    4104:	00000000 	sll	zero,zero,0x0
    4108:	24630028 	addiu	v1,v1,40
    410c:	8c630000 	lw	v1,0(v1)
    4110:	00000000 	sll	zero,zero,0x0
    4114:	3064000f 	andi	a0,v1,0xf
    4118:	3c030000 	lui	v1,0x0
    411c:	00052900 	sll	a1,a1,0x4
    4120:	00a42021 	addu	a0,a1,a0
    4124:	00042080 	sll	a0,a0,0x2
    4128:	24636698 	addiu	v1,v1,26264
    412c:	00831821 	addu	v1,a0,v1
    4130:	8c630000 	lw	v1,0(v1)
    4134:	00000000 	sll	zero,zero,0x0
    4138:	ac430000 	sw	v1,0(v0)
    413c:	8fc20010 	lw	v0,16(s8)
    4140:	00000000 	sll	zero,zero,0x0
    4144:	24420028 	addiu	v0,v0,40
    4148:	8fc30000 	lw	v1,0(s8)
    414c:	00000000 	sll	zero,zero,0x0
    4150:	ac430000 	sw	v1,0(v0)
    4154:	8fc20010 	lw	v0,16(s8)
    4158:	00000000 	sll	zero,zero,0x0
    415c:	2442007c 	addiu	v0,v0,124
    4160:	8c420000 	lw	v0,0(v0)
    4164:	00000000 	sll	zero,zero,0x0
    4168:	00022103 	sra	a0,v0,0x4
    416c:	8fc20010 	lw	v0,16(s8)
    4170:	00000000 	sll	zero,zero,0x0
    4174:	2442007c 	addiu	v0,v0,124
    4178:	8c420000 	lw	v0,0(v0)
    417c:	00000000 	sll	zero,zero,0x0
    4180:	3043000f 	andi	v1,v0,0xf
    4184:	3c020000 	lui	v0,0x0
    4188:	00042100 	sll	a0,a0,0x4
    418c:	00831821 	addu	v1,a0,v1
    4190:	00031880 	sll	v1,v1,0x2
    4194:	24426698 	addiu	v0,v0,26264
    4198:	00621021 	addu	v0,v1,v0
    419c:	8c420000 	lw	v0,0(v0)
    41a0:	00000000 	sll	zero,zero,0x0
    41a4:	afc20000 	sw	v0,0(s8)
    41a8:	8fc20010 	lw	v0,16(s8)
    41ac:	00000000 	sll	zero,zero,0x0
    41b0:	2442007c 	addiu	v0,v0,124
    41b4:	8fc30010 	lw	v1,16(s8)
    41b8:	00000000 	sll	zero,zero,0x0
    41bc:	2463003c 	addiu	v1,v1,60
    41c0:	8c630000 	lw	v1,0(v1)
    41c4:	00000000 	sll	zero,zero,0x0
    41c8:	00032903 	sra	a1,v1,0x4
    41cc:	8fc30010 	lw	v1,16(s8)
    41d0:	00000000 	sll	zero,zero,0x0
    41d4:	2463003c 	addiu	v1,v1,60
    41d8:	8c630000 	lw	v1,0(v1)
    41dc:	00000000 	sll	zero,zero,0x0
    41e0:	3064000f 	andi	a0,v1,0xf
    41e4:	3c030000 	lui	v1,0x0
    41e8:	00052900 	sll	a1,a1,0x4
    41ec:	00a42021 	addu	a0,a1,a0
    41f0:	00042080 	sll	a0,a0,0x2
    41f4:	24636698 	addiu	v1,v1,26264
    41f8:	00831821 	addu	v1,a0,v1
    41fc:	8c630000 	lw	v1,0(v1)
    4200:	00000000 	sll	zero,zero,0x0
    4204:	ac430000 	sw	v1,0(v0)
    4208:	8fc20010 	lw	v0,16(s8)
    420c:	00000000 	sll	zero,zero,0x0
    4210:	2442003c 	addiu	v0,v0,60
    4214:	8fc30000 	lw	v1,0(s8)
    4218:	00000000 	sll	zero,zero,0x0
    421c:	ac430000 	sw	v1,0(v0)
    4220:	8fc20010 	lw	v0,16(s8)
    4224:	00000000 	sll	zero,zero,0x0
    4228:	2442006c 	addiu	v0,v0,108
    422c:	8c420000 	lw	v0,0(v0)
    4230:	00000000 	sll	zero,zero,0x0
    4234:	00022103 	sra	a0,v0,0x4
    4238:	8fc20010 	lw	v0,16(s8)
    423c:	00000000 	sll	zero,zero,0x0
    4240:	2442006c 	addiu	v0,v0,108
    4244:	8c420000 	lw	v0,0(v0)
    4248:	00000000 	sll	zero,zero,0x0
    424c:	3043000f 	andi	v1,v0,0xf
    4250:	3c020000 	lui	v0,0x0
    4254:	00042100 	sll	a0,a0,0x4
    4258:	00831821 	addu	v1,a0,v1
    425c:	00031880 	sll	v1,v1,0x2
    4260:	24426698 	addiu	v0,v0,26264
    4264:	00621021 	addu	v0,v1,v0
    4268:	8c420000 	lw	v0,0(v0)
    426c:	00000000 	sll	zero,zero,0x0
    4270:	afc20000 	sw	v0,0(s8)
    4274:	8fc20010 	lw	v0,16(s8)
    4278:	00000000 	sll	zero,zero,0x0
    427c:	2442006c 	addiu	v0,v0,108
    4280:	8fc30010 	lw	v1,16(s8)
    4284:	00000000 	sll	zero,zero,0x0
    4288:	2463002c 	addiu	v1,v1,44
    428c:	8c630000 	lw	v1,0(v1)
    4290:	00000000 	sll	zero,zero,0x0
    4294:	00032903 	sra	a1,v1,0x4
    4298:	8fc30010 	lw	v1,16(s8)
    429c:	00000000 	sll	zero,zero,0x0
    42a0:	2463002c 	addiu	v1,v1,44
    42a4:	8c630000 	lw	v1,0(v1)
    42a8:	00000000 	sll	zero,zero,0x0
    42ac:	3064000f 	andi	a0,v1,0xf
    42b0:	3c030000 	lui	v1,0x0
    42b4:	00052900 	sll	a1,a1,0x4
    42b8:	00a42021 	addu	a0,a1,a0
    42bc:	00042080 	sll	a0,a0,0x2
    42c0:	24636698 	addiu	v1,v1,26264
    42c4:	00831821 	addu	v1,a0,v1
    42c8:	8c630000 	lw	v1,0(v1)
    42cc:	00000000 	sll	zero,zero,0x0
    42d0:	ac430000 	sw	v1,0(v0)
    42d4:	8fc20010 	lw	v0,16(s8)
    42d8:	00000000 	sll	zero,zero,0x0
    42dc:	2442002c 	addiu	v0,v0,44
    42e0:	8fc30000 	lw	v1,0(s8)
    42e4:	00000000 	sll	zero,zero,0x0
    42e8:	ac430000 	sw	v1,0(v0)
    42ec:	8fc20010 	lw	v0,16(s8)
    42f0:	00000000 	sll	zero,zero,0x0
    42f4:	2442005c 	addiu	v0,v0,92
    42f8:	8c420000 	lw	v0,0(v0)
    42fc:	00000000 	sll	zero,zero,0x0
    4300:	00022103 	sra	a0,v0,0x4
    4304:	8fc20010 	lw	v0,16(s8)
    4308:	00000000 	sll	zero,zero,0x0
    430c:	2442005c 	addiu	v0,v0,92
    4310:	8c420000 	lw	v0,0(v0)
    4314:	00000000 	sll	zero,zero,0x0
    4318:	3043000f 	andi	v1,v0,0xf
    431c:	3c020000 	lui	v0,0x0
    4320:	00042100 	sll	a0,a0,0x4
    4324:	00831821 	addu	v1,a0,v1
    4328:	00031880 	sll	v1,v1,0x2
    432c:	24426698 	addiu	v0,v0,26264
    4330:	00621021 	addu	v0,v1,v0
    4334:	8c420000 	lw	v0,0(v0)
    4338:	00000000 	sll	zero,zero,0x0
    433c:	afc20000 	sw	v0,0(s8)
    4340:	8fc20010 	lw	v0,16(s8)
    4344:	00000000 	sll	zero,zero,0x0
    4348:	2442005c 	addiu	v0,v0,92
    434c:	8fc30010 	lw	v1,16(s8)
    4350:	00000000 	sll	zero,zero,0x0
    4354:	2463001c 	addiu	v1,v1,28
    4358:	8c630000 	lw	v1,0(v1)
    435c:	00000000 	sll	zero,zero,0x0
    4360:	00032903 	sra	a1,v1,0x4
    4364:	8fc30010 	lw	v1,16(s8)
    4368:	00000000 	sll	zero,zero,0x0
    436c:	2463001c 	addiu	v1,v1,28
    4370:	8c630000 	lw	v1,0(v1)
    4374:	00000000 	sll	zero,zero,0x0
    4378:	3064000f 	andi	a0,v1,0xf
    437c:	3c030000 	lui	v1,0x0
    4380:	00052900 	sll	a1,a1,0x4
    4384:	00a42021 	addu	a0,a1,a0
    4388:	00042080 	sll	a0,a0,0x2
    438c:	24636698 	addiu	v1,v1,26264
    4390:	00831821 	addu	v1,a0,v1
    4394:	8c630000 	lw	v1,0(v1)
    4398:	00000000 	sll	zero,zero,0x0
    439c:	ac430000 	sw	v1,0(v0)
    43a0:	8fc20010 	lw	v0,16(s8)
    43a4:	00000000 	sll	zero,zero,0x0
    43a8:	2442001c 	addiu	v0,v0,28
    43ac:	8fc30000 	lw	v1,0(s8)
    43b0:	00000000 	sll	zero,zero,0x0
    43b4:	ac430000 	sw	v1,0(v0)
    43b8:	8fc20010 	lw	v0,16(s8)
    43bc:	00000000 	sll	zero,zero,0x0
    43c0:	2442004c 	addiu	v0,v0,76
    43c4:	8c420000 	lw	v0,0(v0)
    43c8:	00000000 	sll	zero,zero,0x0
    43cc:	00022103 	sra	a0,v0,0x4
    43d0:	8fc20010 	lw	v0,16(s8)
    43d4:	00000000 	sll	zero,zero,0x0
    43d8:	2442004c 	addiu	v0,v0,76
    43dc:	8c420000 	lw	v0,0(v0)
    43e0:	00000000 	sll	zero,zero,0x0
    43e4:	3043000f 	andi	v1,v0,0xf
    43e8:	3c020000 	lui	v0,0x0
    43ec:	00042100 	sll	a0,a0,0x4
    43f0:	00831821 	addu	v1,a0,v1
    43f4:	00031880 	sll	v1,v1,0x2
    43f8:	24426698 	addiu	v0,v0,26264
    43fc:	00621021 	addu	v0,v1,v0
    4400:	8c420000 	lw	v0,0(v0)
    4404:	00000000 	sll	zero,zero,0x0
    4408:	afc20000 	sw	v0,0(s8)
    440c:	8fc20010 	lw	v0,16(s8)
    4410:	00000000 	sll	zero,zero,0x0
    4414:	2442004c 	addiu	v0,v0,76
    4418:	8fc30010 	lw	v1,16(s8)
    441c:	00000000 	sll	zero,zero,0x0
    4420:	2463000c 	addiu	v1,v1,12
    4424:	8c630000 	lw	v1,0(v1)
    4428:	00000000 	sll	zero,zero,0x0
    442c:	00032903 	sra	a1,v1,0x4
    4430:	8fc30010 	lw	v1,16(s8)
    4434:	00000000 	sll	zero,zero,0x0
    4438:	2463000c 	addiu	v1,v1,12
    443c:	8c630000 	lw	v1,0(v1)
    4440:	00000000 	sll	zero,zero,0x0
    4444:	3064000f 	andi	a0,v1,0xf
    4448:	3c030000 	lui	v1,0x0
    444c:	00052900 	sll	a1,a1,0x4
    4450:	00a42021 	addu	a0,a1,a0
    4454:	00042080 	sll	a0,a0,0x2
    4458:	24636698 	addiu	v1,v1,26264
    445c:	00831821 	addu	v1,a0,v1
    4460:	8c630000 	lw	v1,0(v1)
    4464:	00000000 	sll	zero,zero,0x0
    4468:	ac430000 	sw	v1,0(v0)
    446c:	8fc20010 	lw	v0,16(s8)
    4470:	00000000 	sll	zero,zero,0x0
    4474:	2442000c 	addiu	v0,v0,12
    4478:	8fc30000 	lw	v1,0(s8)
    447c:	00000000 	sll	zero,zero,0x0
    4480:	ac430000 	sw	v1,0(v0)
    4484:	8fc20010 	lw	v0,16(s8)
    4488:	00000000 	sll	zero,zero,0x0
    448c:	8c420000 	lw	v0,0(v0)
    4490:	00000000 	sll	zero,zero,0x0
    4494:	00022103 	sra	a0,v0,0x4
    4498:	8fc20010 	lw	v0,16(s8)
    449c:	00000000 	sll	zero,zero,0x0
    44a0:	8c420000 	lw	v0,0(v0)
    44a4:	00000000 	sll	zero,zero,0x0
    44a8:	3043000f 	andi	v1,v0,0xf
    44ac:	3c020000 	lui	v0,0x0
    44b0:	00042100 	sll	a0,a0,0x4
    44b4:	00831821 	addu	v1,a0,v1
    44b8:	00031880 	sll	v1,v1,0x2
    44bc:	24426698 	addiu	v0,v0,26264
    44c0:	00621021 	addu	v0,v1,v0
    44c4:	8c430000 	lw	v1,0(v0)
    44c8:	8fc20010 	lw	v0,16(s8)
    44cc:	00000000 	sll	zero,zero,0x0
    44d0:	ac430000 	sw	v1,0(v0)
    44d4:	8fc20010 	lw	v0,16(s8)
    44d8:	00000000 	sll	zero,zero,0x0
    44dc:	24420010 	addiu	v0,v0,16
    44e0:	8fc30010 	lw	v1,16(s8)
    44e4:	00000000 	sll	zero,zero,0x0
    44e8:	24630010 	addiu	v1,v1,16
    44ec:	8c630000 	lw	v1,0(v1)
    44f0:	00000000 	sll	zero,zero,0x0
    44f4:	00032903 	sra	a1,v1,0x4
    44f8:	8fc30010 	lw	v1,16(s8)
    44fc:	00000000 	sll	zero,zero,0x0
    4500:	24630010 	addiu	v1,v1,16
    4504:	8c630000 	lw	v1,0(v1)
    4508:	00000000 	sll	zero,zero,0x0
    450c:	3064000f 	andi	a0,v1,0xf
    4510:	3c030000 	lui	v1,0x0
    4514:	00052900 	sll	a1,a1,0x4
    4518:	00a42021 	addu	a0,a1,a0
    451c:	00042080 	sll	a0,a0,0x2
    4520:	24636698 	addiu	v1,v1,26264
    4524:	00831821 	addu	v1,a0,v1
    4528:	8c630000 	lw	v1,0(v1)
    452c:	00000000 	sll	zero,zero,0x0
    4530:	ac430000 	sw	v1,0(v0)
    4534:	8fc20010 	lw	v0,16(s8)
    4538:	00000000 	sll	zero,zero,0x0
    453c:	24420020 	addiu	v0,v0,32
    4540:	8fc30010 	lw	v1,16(s8)
    4544:	00000000 	sll	zero,zero,0x0
    4548:	24630020 	addiu	v1,v1,32
    454c:	8c630000 	lw	v1,0(v1)
    4550:	00000000 	sll	zero,zero,0x0
    4554:	00032903 	sra	a1,v1,0x4
    4558:	8fc30010 	lw	v1,16(s8)
    455c:	00000000 	sll	zero,zero,0x0
    4560:	24630020 	addiu	v1,v1,32
    4564:	8c630000 	lw	v1,0(v1)
    4568:	00000000 	sll	zero,zero,0x0
    456c:	3064000f 	andi	a0,v1,0xf
    4570:	3c030000 	lui	v1,0x0
    4574:	00052900 	sll	a1,a1,0x4
    4578:	00a42021 	addu	a0,a1,a0
    457c:	00042080 	sll	a0,a0,0x2
    4580:	24636698 	addiu	v1,v1,26264
    4584:	00831821 	addu	v1,a0,v1
    4588:	8c630000 	lw	v1,0(v1)
    458c:	00000000 	sll	zero,zero,0x0
    4590:	ac430000 	sw	v1,0(v0)
    4594:	8fc20010 	lw	v0,16(s8)
    4598:	00000000 	sll	zero,zero,0x0
    459c:	24420030 	addiu	v0,v0,48
    45a0:	8fc30010 	lw	v1,16(s8)
    45a4:	00000000 	sll	zero,zero,0x0
    45a8:	24630030 	addiu	v1,v1,48
    45ac:	8c630000 	lw	v1,0(v1)
    45b0:	00000000 	sll	zero,zero,0x0
    45b4:	00032903 	sra	a1,v1,0x4
    45b8:	8fc30010 	lw	v1,16(s8)
    45bc:	00000000 	sll	zero,zero,0x0
    45c0:	24630030 	addiu	v1,v1,48
    45c4:	8c630000 	lw	v1,0(v1)
    45c8:	00000000 	sll	zero,zero,0x0
    45cc:	3064000f 	andi	a0,v1,0xf
    45d0:	3c030000 	lui	v1,0x0
    45d4:	00052900 	sll	a1,a1,0x4
    45d8:	00a42021 	addu	a0,a1,a0
    45dc:	00042080 	sll	a0,a0,0x2
    45e0:	24636698 	addiu	v1,v1,26264
    45e4:	00831821 	addu	v1,a0,v1
    45e8:	8c630000 	lw	v1,0(v1)
    45ec:	00000000 	sll	zero,zero,0x0
    45f0:	ac430000 	sw	v1,0(v0)
    45f4:	8fc20010 	lw	v0,16(s8)
    45f8:	00000000 	sll	zero,zero,0x0
    45fc:	24420040 	addiu	v0,v0,64
    4600:	8fc30010 	lw	v1,16(s8)
    4604:	00000000 	sll	zero,zero,0x0
    4608:	24630040 	addiu	v1,v1,64
    460c:	8c630000 	lw	v1,0(v1)
    4610:	00000000 	sll	zero,zero,0x0
    4614:	00032903 	sra	a1,v1,0x4
    4618:	8fc30010 	lw	v1,16(s8)
    461c:	00000000 	sll	zero,zero,0x0
    4620:	24630040 	addiu	v1,v1,64
    4624:	8c630000 	lw	v1,0(v1)
    4628:	00000000 	sll	zero,zero,0x0
    462c:	3064000f 	andi	a0,v1,0xf
    4630:	3c030000 	lui	v1,0x0
    4634:	00052900 	sll	a1,a1,0x4
    4638:	00a42021 	addu	a0,a1,a0
    463c:	00042080 	sll	a0,a0,0x2
    4640:	24636698 	addiu	v1,v1,26264
    4644:	00831821 	addu	v1,a0,v1
    4648:	8c630000 	lw	v1,0(v1)
    464c:	00000000 	sll	zero,zero,0x0
    4650:	ac430000 	sw	v1,0(v0)
    4654:	8fc20010 	lw	v0,16(s8)
    4658:	00000000 	sll	zero,zero,0x0
    465c:	24420050 	addiu	v0,v0,80
    4660:	8fc30010 	lw	v1,16(s8)
    4664:	00000000 	sll	zero,zero,0x0
    4668:	24630050 	addiu	v1,v1,80
    466c:	8c630000 	lw	v1,0(v1)
    4670:	00000000 	sll	zero,zero,0x0
    4674:	00032903 	sra	a1,v1,0x4
    4678:	8fc30010 	lw	v1,16(s8)
    467c:	00000000 	sll	zero,zero,0x0
    4680:	24630050 	addiu	v1,v1,80
    4684:	8c630000 	lw	v1,0(v1)
    4688:	00000000 	sll	zero,zero,0x0
    468c:	3064000f 	andi	a0,v1,0xf
    4690:	3c030000 	lui	v1,0x0
    4694:	00052900 	sll	a1,a1,0x4
    4698:	00a42021 	addu	a0,a1,a0
    469c:	00042080 	sll	a0,a0,0x2
    46a0:	24636698 	addiu	v1,v1,26264
    46a4:	00831821 	addu	v1,a0,v1
    46a8:	8c630000 	lw	v1,0(v1)
    46ac:	00000000 	sll	zero,zero,0x0
    46b0:	ac430000 	sw	v1,0(v0)
    46b4:	8fc20010 	lw	v0,16(s8)
    46b8:	00000000 	sll	zero,zero,0x0
    46bc:	24420060 	addiu	v0,v0,96
    46c0:	8fc30010 	lw	v1,16(s8)
    46c4:	00000000 	sll	zero,zero,0x0
    46c8:	24630060 	addiu	v1,v1,96
    46cc:	8c630000 	lw	v1,0(v1)
    46d0:	00000000 	sll	zero,zero,0x0
    46d4:	00032903 	sra	a1,v1,0x4
    46d8:	8fc30010 	lw	v1,16(s8)
    46dc:	00000000 	sll	zero,zero,0x0
    46e0:	24630060 	addiu	v1,v1,96
    46e4:	8c630000 	lw	v1,0(v1)
    46e8:	00000000 	sll	zero,zero,0x0
    46ec:	3064000f 	andi	a0,v1,0xf
    46f0:	3c030000 	lui	v1,0x0
    46f4:	00052900 	sll	a1,a1,0x4
    46f8:	00a42021 	addu	a0,a1,a0
    46fc:	00042080 	sll	a0,a0,0x2
    4700:	24636698 	addiu	v1,v1,26264
    4704:	00831821 	addu	v1,a0,v1
    4708:	8c630000 	lw	v1,0(v1)
    470c:	00000000 	sll	zero,zero,0x0
    4710:	ac430000 	sw	v1,0(v0)
    4714:	8fc20010 	lw	v0,16(s8)
    4718:	00000000 	sll	zero,zero,0x0
    471c:	24420070 	addiu	v0,v0,112
    4720:	8fc30010 	lw	v1,16(s8)
    4724:	00000000 	sll	zero,zero,0x0
    4728:	24630070 	addiu	v1,v1,112
    472c:	8c630000 	lw	v1,0(v1)
    4730:	00000000 	sll	zero,zero,0x0
    4734:	00032903 	sra	a1,v1,0x4
    4738:	8fc30010 	lw	v1,16(s8)
    473c:	00000000 	sll	zero,zero,0x0
    4740:	24630070 	addiu	v1,v1,112
    4744:	8c630000 	lw	v1,0(v1)
    4748:	00000000 	sll	zero,zero,0x0
    474c:	3064000f 	andi	a0,v1,0xf
    4750:	3c030000 	lui	v1,0x0
    4754:	00052900 	sll	a1,a1,0x4
    4758:	00a42021 	addu	a0,a1,a0
    475c:	00042080 	sll	a0,a0,0x2
    4760:	24636698 	addiu	v1,v1,26264
    4764:	00831821 	addu	v1,a0,v1
    4768:	8c630000 	lw	v1,0(v1)
    476c:	00000000 	sll	zero,zero,0x0
    4770:	ac430000 	sw	v1,0(v0)
    4774:	03c0e821 	addu	sp,s8,zero
    4778:	8fbe000c 	lw	s8,12(sp)
    477c:	27bd0010 	addiu	sp,sp,16
    4780:	03e00008 	jr	ra
    4784:	00000000 	sll	zero,zero,0x0
    4788:	27bdff70 	addiu	sp,sp,-144
    478c:	afbe008c 	sw	s8,140(sp)
    4790:	afb00088 	sw	s0,136(sp)
    4794:	03a0f021 	addu	s8,sp,zero
    4798:	afc40090 	sw	a0,144(s8)
    479c:	afc50094 	sw	a1,148(s8)
    47a0:	afc60098 	sw	a2,152(s8)
    47a4:	afc00000 	sw	zero,0(s8)
    47a8:	0800142f 	j	0x50bc
    47ac:	00000000 	sll	zero,zero,0x0
    47b0:	8fc20000 	lw	v0,0(s8)
    47b4:	00000000 	sll	zero,zero,0x0
    47b8:	00021080 	sll	v0,v0,0x2
    47bc:	8fc30000 	lw	v1,0(s8)
    47c0:	00000000 	sll	zero,zero,0x0
    47c4:	00031900 	sll	v1,v1,0x4
    47c8:	8fc40090 	lw	a0,144(s8)
    47cc:	00000000 	sll	zero,zero,0x0
    47d0:	00831821 	addu	v1,a0,v1
    47d4:	8c630000 	lw	v1,0(v1)
    47d8:	00000000 	sll	zero,zero,0x0
    47dc:	00031840 	sll	v1,v1,0x1
    47e0:	00021080 	sll	v0,v0,0x2
    47e4:	03c21021 	addu	v0,s8,v0
    47e8:	ac430004 	sw	v1,4(v0)
    47ec:	8fc20000 	lw	v0,0(s8)
    47f0:	00000000 	sll	zero,zero,0x0
    47f4:	00021080 	sll	v0,v0,0x2
    47f8:	00021080 	sll	v0,v0,0x2
    47fc:	03c21021 	addu	v0,s8,v0
    4800:	8c420004 	lw	v0,4(v0)
    4804:	00000000 	sll	zero,zero,0x0
    4808:	00021a03 	sra	v1,v0,0x8
    480c:	24020001 	addiu	v0,zero,1
    4810:	1462000f 	bne	v1,v0,0x4850
    4814:	00000000 	sll	zero,zero,0x0
    4818:	8fc20000 	lw	v0,0(s8)
    481c:	00000000 	sll	zero,zero,0x0
    4820:	00022080 	sll	a0,v0,0x2
    4824:	8fc20000 	lw	v0,0(s8)
    4828:	00000000 	sll	zero,zero,0x0
    482c:	00021080 	sll	v0,v0,0x2
    4830:	00021080 	sll	v0,v0,0x2
    4834:	03c21021 	addu	v0,s8,v0
    4838:	8c420004 	lw	v0,4(v0)
    483c:	00000000 	sll	zero,zero,0x0
    4840:	3843011b 	xori	v1,v0,0x11b
    4844:	00041080 	sll	v0,a0,0x2
    4848:	03c21021 	addu	v0,s8,v0
    484c:	ac430004 	sw	v1,4(v0)
    4850:	8fc20000 	lw	v0,0(s8)
    4854:	00000000 	sll	zero,zero,0x0
    4858:	00021080 	sll	v0,v0,0x2
    485c:	24420001 	addiu	v0,v0,1
    4860:	00021080 	sll	v0,v0,0x2
    4864:	8fc30090 	lw	v1,144(s8)
    4868:	00000000 	sll	zero,zero,0x0
    486c:	00621021 	addu	v0,v1,v0
    4870:	8c500000 	lw	s0,0(v0)
    4874:	00000000 	sll	zero,zero,0x0
    4878:	00101040 	sll	v0,s0,0x1
    487c:	02028026 	xor	s0,s0,v0
    4880:	00101a03 	sra	v1,s0,0x8
    4884:	24020001 	addiu	v0,zero,1
    4888:	14620011 	bne	v1,v0,0x48d0
    488c:	00000000 	sll	zero,zero,0x0
    4890:	8fc20000 	lw	v0,0(s8)
    4894:	00000000 	sll	zero,zero,0x0
    4898:	00022080 	sll	a0,v0,0x2
    489c:	8fc20000 	lw	v0,0(s8)
    48a0:	00000000 	sll	zero,zero,0x0
    48a4:	00021080 	sll	v0,v0,0x2
    48a8:	00021080 	sll	v0,v0,0x2
    48ac:	03c21021 	addu	v0,s8,v0
    48b0:	8c430004 	lw	v1,4(v0)
    48b4:	3a02011b 	xori	v0,s0,0x11b
    48b8:	00621826 	xor	v1,v1,v0
    48bc:	00041080 	sll	v0,a0,0x2
    48c0:	03c21021 	addu	v0,s8,v0
    48c4:	ac430004 	sw	v1,4(v0)
    48c8:	08001242 	j	0x4908
    48cc:	00000000 	sll	zero,zero,0x0
    48d0:	8fc20000 	lw	v0,0(s8)
    48d4:	00000000 	sll	zero,zero,0x0
    48d8:	00022080 	sll	a0,v0,0x2
    48dc:	8fc20000 	lw	v0,0(s8)
    48e0:	00000000 	sll	zero,zero,0x0
    48e4:	00021080 	sll	v0,v0,0x2
    48e8:	00021080 	sll	v0,v0,0x2
    48ec:	03c21021 	addu	v0,s8,v0
    48f0:	8c420004 	lw	v0,4(v0)
    48f4:	00000000 	sll	zero,zero,0x0
    48f8:	00501826 	xor	v1,v0,s0
    48fc:	00041080 	sll	v0,a0,0x2
    4900:	03c21021 	addu	v0,s8,v0
    4904:	ac430004 	sw	v1,4(v0)
    4908:	8fc20000 	lw	v0,0(s8)
    490c:	00000000 	sll	zero,zero,0x0
    4910:	00022080 	sll	a0,v0,0x2
    4914:	8fc20000 	lw	v0,0(s8)
    4918:	00000000 	sll	zero,zero,0x0
    491c:	00021080 	sll	v0,v0,0x2
    4920:	00021080 	sll	v0,v0,0x2
    4924:	03c21021 	addu	v0,s8,v0
    4928:	8c430004 	lw	v1,4(v0)
    492c:	8fc20000 	lw	v0,0(s8)
    4930:	00000000 	sll	zero,zero,0x0
    4934:	00021040 	sll	v0,v0,0x1
    4938:	24420001 	addiu	v0,v0,1
    493c:	000210c0 	sll	v0,v0,0x3
    4940:	8fc50090 	lw	a1,144(s8)
    4944:	00000000 	sll	zero,zero,0x0
    4948:	00a21021 	addu	v0,a1,v0
    494c:	8c450000 	lw	a1,0(v0)
    4950:	8fc20000 	lw	v0,0(s8)
    4954:	00000000 	sll	zero,zero,0x0
    4958:	00021100 	sll	v0,v0,0x4
    495c:	2442000c 	addiu	v0,v0,12
    4960:	8fc60090 	lw	a2,144(s8)
    4964:	00000000 	sll	zero,zero,0x0
    4968:	00c21021 	addu	v0,a2,v0
    496c:	8c420000 	lw	v0,0(v0)
    4970:	00000000 	sll	zero,zero,0x0
    4974:	00a22826 	xor	a1,a1,v0
    4978:	8fc60094 	lw	a2,148(s8)
    497c:	8fc20098 	lw	v0,152(s8)
    4980:	00000000 	sll	zero,zero,0x0
    4984:	00c20018 	mult	a2,v0
    4988:	00003012 	mflo	a2
    498c:	8fc20000 	lw	v0,0(s8)
    4990:	00000000 	sll	zero,zero,0x0
    4994:	00c23021 	addu	a2,a2,v0
    4998:	3c020000 	lui	v0,0x0
    499c:	00063080 	sll	a2,a2,0x2
    49a0:	24426e30 	addiu	v0,v0,28208
    49a4:	00c21021 	addu	v0,a2,v0
    49a8:	8c420000 	lw	v0,0(v0)
    49ac:	00000000 	sll	zero,zero,0x0
    49b0:	00a21026 	xor	v0,a1,v0
    49b4:	00621826 	xor	v1,v1,v0
    49b8:	00041080 	sll	v0,a0,0x2
    49bc:	03c21021 	addu	v0,s8,v0
    49c0:	ac430004 	sw	v1,4(v0)
    49c4:	8fc20000 	lw	v0,0(s8)
    49c8:	00000000 	sll	zero,zero,0x0
    49cc:	00021080 	sll	v0,v0,0x2
    49d0:	24420001 	addiu	v0,v0,1
    49d4:	8fc30000 	lw	v1,0(s8)
    49d8:	00000000 	sll	zero,zero,0x0
    49dc:	00031880 	sll	v1,v1,0x2
    49e0:	24630001 	addiu	v1,v1,1
    49e4:	00031880 	sll	v1,v1,0x2
    49e8:	8fc40090 	lw	a0,144(s8)
    49ec:	00000000 	sll	zero,zero,0x0
    49f0:	00831821 	addu	v1,a0,v1
    49f4:	8c630000 	lw	v1,0(v1)
    49f8:	00000000 	sll	zero,zero,0x0
    49fc:	00031840 	sll	v1,v1,0x1
    4a00:	00021080 	sll	v0,v0,0x2
    4a04:	03c21021 	addu	v0,s8,v0
    4a08:	ac430004 	sw	v1,4(v0)
    4a0c:	8fc20000 	lw	v0,0(s8)
    4a10:	00000000 	sll	zero,zero,0x0
    4a14:	00021080 	sll	v0,v0,0x2
    4a18:	24420001 	addiu	v0,v0,1
    4a1c:	00021080 	sll	v0,v0,0x2
    4a20:	03c21021 	addu	v0,s8,v0
    4a24:	8c420004 	lw	v0,4(v0)
    4a28:	00000000 	sll	zero,zero,0x0
    4a2c:	00021a03 	sra	v1,v0,0x8
    4a30:	24020001 	addiu	v0,zero,1
    4a34:	14620011 	bne	v1,v0,0x4a7c
    4a38:	00000000 	sll	zero,zero,0x0
    4a3c:	8fc20000 	lw	v0,0(s8)
    4a40:	00000000 	sll	zero,zero,0x0
    4a44:	00021080 	sll	v0,v0,0x2
    4a48:	24440001 	addiu	a0,v0,1
    4a4c:	8fc20000 	lw	v0,0(s8)
    4a50:	00000000 	sll	zero,zero,0x0
    4a54:	00021080 	sll	v0,v0,0x2
    4a58:	24420001 	addiu	v0,v0,1
    4a5c:	00021080 	sll	v0,v0,0x2
    4a60:	03c21021 	addu	v0,s8,v0
    4a64:	8c420004 	lw	v0,4(v0)
    4a68:	00000000 	sll	zero,zero,0x0
    4a6c:	3843011b 	xori	v1,v0,0x11b
    4a70:	00041080 	sll	v0,a0,0x2
    4a74:	03c21021 	addu	v0,s8,v0
    4a78:	ac430004 	sw	v1,4(v0)
    4a7c:	8fc20000 	lw	v0,0(s8)
    4a80:	00000000 	sll	zero,zero,0x0
    4a84:	00021040 	sll	v0,v0,0x1
    4a88:	24420001 	addiu	v0,v0,1
    4a8c:	000210c0 	sll	v0,v0,0x3
    4a90:	8fc30090 	lw	v1,144(s8)
    4a94:	00000000 	sll	zero,zero,0x0
    4a98:	00621021 	addu	v0,v1,v0
    4a9c:	8c500000 	lw	s0,0(v0)
    4aa0:	00000000 	sll	zero,zero,0x0
    4aa4:	00101040 	sll	v0,s0,0x1
    4aa8:	02028026 	xor	s0,s0,v0
    4aac:	00101a03 	sra	v1,s0,0x8
    4ab0:	24020001 	addiu	v0,zero,1
    4ab4:	14620013 	bne	v1,v0,0x4b04
    4ab8:	00000000 	sll	zero,zero,0x0
    4abc:	8fc20000 	lw	v0,0(s8)
    4ac0:	00000000 	sll	zero,zero,0x0
    4ac4:	00021080 	sll	v0,v0,0x2
    4ac8:	24440001 	addiu	a0,v0,1
    4acc:	8fc20000 	lw	v0,0(s8)
    4ad0:	00000000 	sll	zero,zero,0x0
    4ad4:	00021080 	sll	v0,v0,0x2
    4ad8:	24420001 	addiu	v0,v0,1
    4adc:	00021080 	sll	v0,v0,0x2
    4ae0:	03c21021 	addu	v0,s8,v0
    4ae4:	8c430004 	lw	v1,4(v0)
    4ae8:	3a02011b 	xori	v0,s0,0x11b
    4aec:	00621826 	xor	v1,v1,v0
    4af0:	00041080 	sll	v0,a0,0x2
    4af4:	03c21021 	addu	v0,s8,v0
    4af8:	ac430004 	sw	v1,4(v0)
    4afc:	080012d1 	j	0x4b44
    4b00:	00000000 	sll	zero,zero,0x0
    4b04:	8fc20000 	lw	v0,0(s8)
    4b08:	00000000 	sll	zero,zero,0x0
    4b0c:	00021080 	sll	v0,v0,0x2
    4b10:	24440001 	addiu	a0,v0,1
    4b14:	8fc20000 	lw	v0,0(s8)
    4b18:	00000000 	sll	zero,zero,0x0
    4b1c:	00021080 	sll	v0,v0,0x2
    4b20:	24420001 	addiu	v0,v0,1
    4b24:	00021080 	sll	v0,v0,0x2
    4b28:	03c21021 	addu	v0,s8,v0
    4b2c:	8c420004 	lw	v0,4(v0)
    4b30:	00000000 	sll	zero,zero,0x0
    4b34:	00501826 	xor	v1,v0,s0
    4b38:	00041080 	sll	v0,a0,0x2
    4b3c:	03c21021 	addu	v0,s8,v0
    4b40:	ac430004 	sw	v1,4(v0)
    4b44:	8fc20000 	lw	v0,0(s8)
    4b48:	00000000 	sll	zero,zero,0x0
    4b4c:	00021080 	sll	v0,v0,0x2
    4b50:	24440001 	addiu	a0,v0,1
    4b54:	8fc20000 	lw	v0,0(s8)
    4b58:	00000000 	sll	zero,zero,0x0
    4b5c:	00021080 	sll	v0,v0,0x2
    4b60:	24420001 	addiu	v0,v0,1
    4b64:	00021080 	sll	v0,v0,0x2
    4b68:	03c21021 	addu	v0,s8,v0
    4b6c:	8c430004 	lw	v1,4(v0)
    4b70:	8fc20000 	lw	v0,0(s8)
    4b74:	00000000 	sll	zero,zero,0x0
    4b78:	00021100 	sll	v0,v0,0x4
    4b7c:	2442000c 	addiu	v0,v0,12
    4b80:	8fc50090 	lw	a1,144(s8)
    4b84:	00000000 	sll	zero,zero,0x0
    4b88:	00a21021 	addu	v0,a1,v0
    4b8c:	8c450000 	lw	a1,0(v0)
    4b90:	8fc20000 	lw	v0,0(s8)
    4b94:	00000000 	sll	zero,zero,0x0
    4b98:	00021100 	sll	v0,v0,0x4
    4b9c:	8fc60090 	lw	a2,144(s8)
    4ba0:	00000000 	sll	zero,zero,0x0
    4ba4:	00c21021 	addu	v0,a2,v0
    4ba8:	8c420000 	lw	v0,0(v0)
    4bac:	00000000 	sll	zero,zero,0x0
    4bb0:	00a22826 	xor	a1,a1,v0
    4bb4:	8fc60094 	lw	a2,148(s8)
    4bb8:	8fc20098 	lw	v0,152(s8)
    4bbc:	00000000 	sll	zero,zero,0x0
    4bc0:	00c20018 	mult	a2,v0
    4bc4:	00003012 	mflo	a2
    4bc8:	8fc20000 	lw	v0,0(s8)
    4bcc:	00000000 	sll	zero,zero,0x0
    4bd0:	00c23021 	addu	a2,a2,v0
    4bd4:	3c020000 	lui	v0,0x0
    4bd8:	24c60078 	addiu	a2,a2,120
    4bdc:	00063080 	sll	a2,a2,0x2
    4be0:	24426e30 	addiu	v0,v0,28208
    4be4:	00c21021 	addu	v0,a2,v0
    4be8:	8c420000 	lw	v0,0(v0)
    4bec:	00000000 	sll	zero,zero,0x0
    4bf0:	00a21026 	xor	v0,a1,v0
    4bf4:	00621826 	xor	v1,v1,v0
    4bf8:	00041080 	sll	v0,a0,0x2
    4bfc:	03c21021 	addu	v0,s8,v0
    4c00:	ac430004 	sw	v1,4(v0)
    4c04:	8fc20000 	lw	v0,0(s8)
    4c08:	00000000 	sll	zero,zero,0x0
    4c0c:	00021040 	sll	v0,v0,0x1
    4c10:	24420001 	addiu	v0,v0,1
    4c14:	00021040 	sll	v0,v0,0x1
    4c18:	8fc30000 	lw	v1,0(s8)
    4c1c:	00000000 	sll	zero,zero,0x0
    4c20:	00031840 	sll	v1,v1,0x1
    4c24:	24630001 	addiu	v1,v1,1
    4c28:	000318c0 	sll	v1,v1,0x3
    4c2c:	8fc40090 	lw	a0,144(s8)
    4c30:	00000000 	sll	zero,zero,0x0
    4c34:	00831821 	addu	v1,a0,v1
    4c38:	8c630000 	lw	v1,0(v1)
    4c3c:	00000000 	sll	zero,zero,0x0
    4c40:	00031840 	sll	v1,v1,0x1
    4c44:	00021080 	sll	v0,v0,0x2
    4c48:	03c21021 	addu	v0,s8,v0
    4c4c:	ac430004 	sw	v1,4(v0)
    4c50:	8fc20000 	lw	v0,0(s8)
    4c54:	00000000 	sll	zero,zero,0x0
    4c58:	00021040 	sll	v0,v0,0x1
    4c5c:	24420001 	addiu	v0,v0,1
    4c60:	00021040 	sll	v0,v0,0x1
    4c64:	00021080 	sll	v0,v0,0x2
    4c68:	03c21021 	addu	v0,s8,v0
    4c6c:	8c420004 	lw	v0,4(v0)
    4c70:	00000000 	sll	zero,zero,0x0
    4c74:	00021a03 	sra	v1,v0,0x8
    4c78:	24020001 	addiu	v0,zero,1
    4c7c:	14620013 	bne	v1,v0,0x4ccc
    4c80:	00000000 	sll	zero,zero,0x0
    4c84:	8fc20000 	lw	v0,0(s8)
    4c88:	00000000 	sll	zero,zero,0x0
    4c8c:	00021040 	sll	v0,v0,0x1
    4c90:	24420001 	addiu	v0,v0,1
    4c94:	00022040 	sll	a0,v0,0x1
    4c98:	8fc20000 	lw	v0,0(s8)
    4c9c:	00000000 	sll	zero,zero,0x0
    4ca0:	00021040 	sll	v0,v0,0x1
    4ca4:	24420001 	addiu	v0,v0,1
    4ca8:	00021040 	sll	v0,v0,0x1
    4cac:	00021080 	sll	v0,v0,0x2
    4cb0:	03c21021 	addu	v0,s8,v0
    4cb4:	8c420004 	lw	v0,4(v0)
    4cb8:	00000000 	sll	zero,zero,0x0
    4cbc:	3843011b 	xori	v1,v0,0x11b
    4cc0:	00041080 	sll	v0,a0,0x2
    4cc4:	03c21021 	addu	v0,s8,v0
    4cc8:	ac430004 	sw	v1,4(v0)
    4ccc:	8fc20000 	lw	v0,0(s8)
    4cd0:	00000000 	sll	zero,zero,0x0
    4cd4:	00021100 	sll	v0,v0,0x4
    4cd8:	2442000c 	addiu	v0,v0,12
    4cdc:	8fc30090 	lw	v1,144(s8)
    4ce0:	00000000 	sll	zero,zero,0x0
    4ce4:	00621021 	addu	v0,v1,v0
    4ce8:	8c500000 	lw	s0,0(v0)
    4cec:	00000000 	sll	zero,zero,0x0
    4cf0:	00101040 	sll	v0,s0,0x1
    4cf4:	02028026 	xor	s0,s0,v0
    4cf8:	00101a03 	sra	v1,s0,0x8
    4cfc:	24020001 	addiu	v0,zero,1
    4d00:	14620015 	bne	v1,v0,0x4d58
    4d04:	00000000 	sll	zero,zero,0x0
    4d08:	8fc20000 	lw	v0,0(s8)
    4d0c:	00000000 	sll	zero,zero,0x0
    4d10:	00021040 	sll	v0,v0,0x1
    4d14:	24420001 	addiu	v0,v0,1
    4d18:	00022040 	sll	a0,v0,0x1
    4d1c:	8fc20000 	lw	v0,0(s8)
    4d20:	00000000 	sll	zero,zero,0x0
    4d24:	00021040 	sll	v0,v0,0x1
    4d28:	24420001 	addiu	v0,v0,1
    4d2c:	00021040 	sll	v0,v0,0x1
    4d30:	00021080 	sll	v0,v0,0x2
    4d34:	03c21021 	addu	v0,s8,v0
    4d38:	8c430004 	lw	v1,4(v0)
    4d3c:	3a02011b 	xori	v0,s0,0x11b
    4d40:	00621826 	xor	v1,v1,v0
    4d44:	00041080 	sll	v0,a0,0x2
    4d48:	03c21021 	addu	v0,s8,v0
    4d4c:	ac430004 	sw	v1,4(v0)
    4d50:	08001368 	j	0x4da0
    4d54:	00000000 	sll	zero,zero,0x0
    4d58:	8fc20000 	lw	v0,0(s8)
    4d5c:	00000000 	sll	zero,zero,0x0
    4d60:	00021040 	sll	v0,v0,0x1
    4d64:	24420001 	addiu	v0,v0,1
    4d68:	00022040 	sll	a0,v0,0x1
    4d6c:	8fc20000 	lw	v0,0(s8)
    4d70:	00000000 	sll	zero,zero,0x0
    4d74:	00021040 	sll	v0,v0,0x1
    4d78:	24420001 	addiu	v0,v0,1
    4d7c:	00021040 	sll	v0,v0,0x1
    4d80:	00021080 	sll	v0,v0,0x2
    4d84:	03c21021 	addu	v0,s8,v0
    4d88:	8c420004 	lw	v0,4(v0)
    4d8c:	00000000 	sll	zero,zero,0x0
    4d90:	00501826 	xor	v1,v0,s0
    4d94:	00041080 	sll	v0,a0,0x2
    4d98:	03c21021 	addu	v0,s8,v0
    4d9c:	ac430004 	sw	v1,4(v0)
    4da0:	8fc20000 	lw	v0,0(s8)
    4da4:	00000000 	sll	zero,zero,0x0
    4da8:	00021040 	sll	v0,v0,0x1
    4dac:	24420001 	addiu	v0,v0,1
    4db0:	00022040 	sll	a0,v0,0x1
    4db4:	8fc20000 	lw	v0,0(s8)
    4db8:	00000000 	sll	zero,zero,0x0
    4dbc:	00021040 	sll	v0,v0,0x1
    4dc0:	24420001 	addiu	v0,v0,1
    4dc4:	00021040 	sll	v0,v0,0x1
    4dc8:	00021080 	sll	v0,v0,0x2
    4dcc:	03c21021 	addu	v0,s8,v0
    4dd0:	8c430004 	lw	v1,4(v0)
    4dd4:	8fc20000 	lw	v0,0(s8)
    4dd8:	00000000 	sll	zero,zero,0x0
    4ddc:	00021100 	sll	v0,v0,0x4
    4de0:	8fc50090 	lw	a1,144(s8)
    4de4:	00000000 	sll	zero,zero,0x0
    4de8:	00a21021 	addu	v0,a1,v0
    4dec:	8c450000 	lw	a1,0(v0)
    4df0:	8fc20000 	lw	v0,0(s8)
    4df4:	00000000 	sll	zero,zero,0x0
    4df8:	00021080 	sll	v0,v0,0x2
    4dfc:	24420001 	addiu	v0,v0,1
    4e00:	00021080 	sll	v0,v0,0x2
    4e04:	8fc60090 	lw	a2,144(s8)
    4e08:	00000000 	sll	zero,zero,0x0
    4e0c:	00c21021 	addu	v0,a2,v0
    4e10:	8c420000 	lw	v0,0(v0)
    4e14:	00000000 	sll	zero,zero,0x0
    4e18:	00a22826 	xor	a1,a1,v0
    4e1c:	8fc60094 	lw	a2,148(s8)
    4e20:	8fc20098 	lw	v0,152(s8)
    4e24:	00000000 	sll	zero,zero,0x0
    4e28:	00c20018 	mult	a2,v0
    4e2c:	00003012 	mflo	a2
    4e30:	8fc20000 	lw	v0,0(s8)
    4e34:	00000000 	sll	zero,zero,0x0
    4e38:	00c23021 	addu	a2,a2,v0
    4e3c:	3c020000 	lui	v0,0x0
    4e40:	24c600f0 	addiu	a2,a2,240
    4e44:	00063080 	sll	a2,a2,0x2
    4e48:	24426e30 	addiu	v0,v0,28208
    4e4c:	00c21021 	addu	v0,a2,v0
    4e50:	8c420000 	lw	v0,0(v0)
    4e54:	00000000 	sll	zero,zero,0x0
    4e58:	00a21026 	xor	v0,a1,v0
    4e5c:	00621826 	xor	v1,v1,v0
    4e60:	00041080 	sll	v0,a0,0x2
    4e64:	03c21021 	addu	v0,s8,v0
    4e68:	ac430004 	sw	v1,4(v0)
    4e6c:	8fc20000 	lw	v0,0(s8)
    4e70:	00000000 	sll	zero,zero,0x0
    4e74:	00021080 	sll	v0,v0,0x2
    4e78:	24420003 	addiu	v0,v0,3
    4e7c:	8fc30000 	lw	v1,0(s8)
    4e80:	00000000 	sll	zero,zero,0x0
    4e84:	00031900 	sll	v1,v1,0x4
    4e88:	2463000c 	addiu	v1,v1,12
    4e8c:	8fc40090 	lw	a0,144(s8)
    4e90:	00000000 	sll	zero,zero,0x0
    4e94:	00831821 	addu	v1,a0,v1
    4e98:	8c630000 	lw	v1,0(v1)
    4e9c:	00000000 	sll	zero,zero,0x0
    4ea0:	00031840 	sll	v1,v1,0x1
    4ea4:	00021080 	sll	v0,v0,0x2
    4ea8:	03c21021 	addu	v0,s8,v0
    4eac:	ac430004 	sw	v1,4(v0)
    4eb0:	8fc20000 	lw	v0,0(s8)
    4eb4:	00000000 	sll	zero,zero,0x0
    4eb8:	00021080 	sll	v0,v0,0x2
    4ebc:	24420003 	addiu	v0,v0,3
    4ec0:	00021080 	sll	v0,v0,0x2
    4ec4:	03c21021 	addu	v0,s8,v0
    4ec8:	8c420004 	lw	v0,4(v0)
    4ecc:	00000000 	sll	zero,zero,0x0
    4ed0:	00021a03 	sra	v1,v0,0x8
    4ed4:	24020001 	addiu	v0,zero,1
    4ed8:	14620011 	bne	v1,v0,0x4f20
    4edc:	00000000 	sll	zero,zero,0x0
    4ee0:	8fc20000 	lw	v0,0(s8)
    4ee4:	00000000 	sll	zero,zero,0x0
    4ee8:	00021080 	sll	v0,v0,0x2
    4eec:	24440003 	addiu	a0,v0,3
    4ef0:	8fc20000 	lw	v0,0(s8)
    4ef4:	00000000 	sll	zero,zero,0x0
    4ef8:	00021080 	sll	v0,v0,0x2
    4efc:	24420003 	addiu	v0,v0,3
    4f00:	00021080 	sll	v0,v0,0x2
    4f04:	03c21021 	addu	v0,s8,v0
    4f08:	8c420004 	lw	v0,4(v0)
    4f0c:	00000000 	sll	zero,zero,0x0
    4f10:	3843011b 	xori	v1,v0,0x11b
    4f14:	00041080 	sll	v0,a0,0x2
    4f18:	03c21021 	addu	v0,s8,v0
    4f1c:	ac430004 	sw	v1,4(v0)
    4f20:	8fc20000 	lw	v0,0(s8)
    4f24:	00000000 	sll	zero,zero,0x0
    4f28:	00021100 	sll	v0,v0,0x4
    4f2c:	8fc30090 	lw	v1,144(s8)
    4f30:	00000000 	sll	zero,zero,0x0
    4f34:	00621021 	addu	v0,v1,v0
    4f38:	8c500000 	lw	s0,0(v0)
    4f3c:	00000000 	sll	zero,zero,0x0
    4f40:	00101040 	sll	v0,s0,0x1
    4f44:	02028026 	xor	s0,s0,v0
    4f48:	00101a03 	sra	v1,s0,0x8
    4f4c:	24020001 	addiu	v0,zero,1
    4f50:	14620013 	bne	v1,v0,0x4fa0
    4f54:	00000000 	sll	zero,zero,0x0
    4f58:	8fc20000 	lw	v0,0(s8)
    4f5c:	00000000 	sll	zero,zero,0x0
    4f60:	00021080 	sll	v0,v0,0x2
    4f64:	24440003 	addiu	a0,v0,3
    4f68:	8fc20000 	lw	v0,0(s8)
    4f6c:	00000000 	sll	zero,zero,0x0
    4f70:	00021080 	sll	v0,v0,0x2
    4f74:	24420003 	addiu	v0,v0,3
    4f78:	00021080 	sll	v0,v0,0x2
    4f7c:	03c21021 	addu	v0,s8,v0
    4f80:	8c430004 	lw	v1,4(v0)
    4f84:	3a02011b 	xori	v0,s0,0x11b
    4f88:	00621826 	xor	v1,v1,v0
    4f8c:	00041080 	sll	v0,a0,0x2
    4f90:	03c21021 	addu	v0,s8,v0
    4f94:	ac430004 	sw	v1,4(v0)
    4f98:	080013f8 	j	0x4fe0
    4f9c:	00000000 	sll	zero,zero,0x0
    4fa0:	8fc20000 	lw	v0,0(s8)
    4fa4:	00000000 	sll	zero,zero,0x0
    4fa8:	00021080 	sll	v0,v0,0x2
    4fac:	24440003 	addiu	a0,v0,3
    4fb0:	8fc20000 	lw	v0,0(s8)
    4fb4:	00000000 	sll	zero,zero,0x0
    4fb8:	00021080 	sll	v0,v0,0x2
    4fbc:	24420003 	addiu	v0,v0,3
    4fc0:	00021080 	sll	v0,v0,0x2
    4fc4:	03c21021 	addu	v0,s8,v0
    4fc8:	8c420004 	lw	v0,4(v0)
    4fcc:	00000000 	sll	zero,zero,0x0
    4fd0:	00501826 	xor	v1,v0,s0
    4fd4:	00041080 	sll	v0,a0,0x2
    4fd8:	03c21021 	addu	v0,s8,v0
    4fdc:	ac430004 	sw	v1,4(v0)
    4fe0:	8fc20000 	lw	v0,0(s8)
    4fe4:	00000000 	sll	zero,zero,0x0
    4fe8:	00021080 	sll	v0,v0,0x2
    4fec:	24440003 	addiu	a0,v0,3
    4ff0:	8fc20000 	lw	v0,0(s8)
    4ff4:	00000000 	sll	zero,zero,0x0
    4ff8:	00021080 	sll	v0,v0,0x2
    4ffc:	24420003 	addiu	v0,v0,3
    5000:	00021080 	sll	v0,v0,0x2
    5004:	03c21021 	addu	v0,s8,v0
    5008:	8c430004 	lw	v1,4(v0)
    500c:	8fc20000 	lw	v0,0(s8)
    5010:	00000000 	sll	zero,zero,0x0
    5014:	00021080 	sll	v0,v0,0x2
    5018:	24420001 	addiu	v0,v0,1
    501c:	00021080 	sll	v0,v0,0x2
    5020:	8fc50090 	lw	a1,144(s8)
    5024:	00000000 	sll	zero,zero,0x0
    5028:	00a21021 	addu	v0,a1,v0
    502c:	8c450000 	lw	a1,0(v0)
    5030:	8fc20000 	lw	v0,0(s8)
    5034:	00000000 	sll	zero,zero,0x0
    5038:	00021040 	sll	v0,v0,0x1
    503c:	24420001 	addiu	v0,v0,1
    5040:	000210c0 	sll	v0,v0,0x3
    5044:	8fc60090 	lw	a2,144(s8)
    5048:	00000000 	sll	zero,zero,0x0
    504c:	00c21021 	addu	v0,a2,v0
    5050:	8c420000 	lw	v0,0(v0)
    5054:	00000000 	sll	zero,zero,0x0
    5058:	00a22826 	xor	a1,a1,v0
    505c:	8fc60094 	lw	a2,148(s8)
    5060:	8fc20098 	lw	v0,152(s8)
    5064:	00000000 	sll	zero,zero,0x0
    5068:	00c20018 	mult	a2,v0
    506c:	00003012 	mflo	a2
    5070:	8fc20000 	lw	v0,0(s8)
    5074:	00000000 	sll	zero,zero,0x0
    5078:	00c23021 	addu	a2,a2,v0
    507c:	3c020000 	lui	v0,0x0
    5080:	24c60168 	addiu	a2,a2,360
    5084:	00063080 	sll	a2,a2,0x2
    5088:	24426e30 	addiu	v0,v0,28208
    508c:	00c21021 	addu	v0,a2,v0
    5090:	8c420000 	lw	v0,0(v0)
    5094:	00000000 	sll	zero,zero,0x0
    5098:	00a21026 	xor	v0,a1,v0
    509c:	00621826 	xor	v1,v1,v0
    50a0:	00041080 	sll	v0,a0,0x2
    50a4:	03c21021 	addu	v0,s8,v0
    50a8:	ac430004 	sw	v1,4(v0)
    50ac:	8fc20000 	lw	v0,0(s8)
    50b0:	00000000 	sll	zero,zero,0x0
    50b4:	24420001 	addiu	v0,v0,1
    50b8:	afc20000 	sw	v0,0(s8)
    50bc:	8fc30000 	lw	v1,0(s8)
    50c0:	8fc20094 	lw	v0,148(s8)
    50c4:	00000000 	sll	zero,zero,0x0
    50c8:	0062102a 	slt	v0,v1,v0
    50cc:	1440fdb8 	bnez	v0,0x47b0
    50d0:	00000000 	sll	zero,zero,0x0
    50d4:	afc00000 	sw	zero,0(s8)
    50d8:	0800147d 	j	0x51f4
    50dc:	00000000 	sll	zero,zero,0x0
    50e0:	8fc20000 	lw	v0,0(s8)
    50e4:	00000000 	sll	zero,zero,0x0
    50e8:	00021100 	sll	v0,v0,0x4
    50ec:	8fc30090 	lw	v1,144(s8)
    50f0:	00000000 	sll	zero,zero,0x0
    50f4:	00621821 	addu	v1,v1,v0
    50f8:	8fc20000 	lw	v0,0(s8)
    50fc:	00000000 	sll	zero,zero,0x0
    5100:	00021080 	sll	v0,v0,0x2
    5104:	00021080 	sll	v0,v0,0x2
    5108:	03c21021 	addu	v0,s8,v0
    510c:	8c420004 	lw	v0,4(v0)
    5110:	00000000 	sll	zero,zero,0x0
    5114:	ac620000 	sw	v0,0(v1)
    5118:	8fc20000 	lw	v0,0(s8)
    511c:	00000000 	sll	zero,zero,0x0
    5120:	00021080 	sll	v0,v0,0x2
    5124:	24420001 	addiu	v0,v0,1
    5128:	00021080 	sll	v0,v0,0x2
    512c:	8fc30090 	lw	v1,144(s8)
    5130:	00000000 	sll	zero,zero,0x0
    5134:	00621821 	addu	v1,v1,v0
    5138:	8fc20000 	lw	v0,0(s8)
    513c:	00000000 	sll	zero,zero,0x0
    5140:	00021080 	sll	v0,v0,0x2
    5144:	24420001 	addiu	v0,v0,1
    5148:	00021080 	sll	v0,v0,0x2
    514c:	03c21021 	addu	v0,s8,v0
    5150:	8c420004 	lw	v0,4(v0)
    5154:	00000000 	sll	zero,zero,0x0
    5158:	ac620000 	sw	v0,0(v1)
    515c:	8fc20000 	lw	v0,0(s8)
    5160:	00000000 	sll	zero,zero,0x0
    5164:	00021040 	sll	v0,v0,0x1
    5168:	24420001 	addiu	v0,v0,1
    516c:	000210c0 	sll	v0,v0,0x3
    5170:	8fc30090 	lw	v1,144(s8)
    5174:	00000000 	sll	zero,zero,0x0
    5178:	00621821 	addu	v1,v1,v0
    517c:	8fc20000 	lw	v0,0(s8)
    5180:	00000000 	sll	zero,zero,0x0
    5184:	00021040 	sll	v0,v0,0x1
    5188:	24420001 	addiu	v0,v0,1
    518c:	00021040 	sll	v0,v0,0x1
    5190:	00021080 	sll	v0,v0,0x2
    5194:	03c21021 	addu	v0,s8,v0
    5198:	8c420004 	lw	v0,4(v0)
    519c:	00000000 	sll	zero,zero,0x0
    51a0:	ac620000 	sw	v0,0(v1)
    51a4:	8fc20000 	lw	v0,0(s8)
    51a8:	00000000 	sll	zero,zero,0x0
    51ac:	00021100 	sll	v0,v0,0x4
    51b0:	2442000c 	addiu	v0,v0,12
    51b4:	8fc30090 	lw	v1,144(s8)
    51b8:	00000000 	sll	zero,zero,0x0
    51bc:	00621821 	addu	v1,v1,v0
    51c0:	8fc20000 	lw	v0,0(s8)
    51c4:	00000000 	sll	zero,zero,0x0
    51c8:	00021080 	sll	v0,v0,0x2
    51cc:	24420003 	addiu	v0,v0,3
    51d0:	00021080 	sll	v0,v0,0x2
    51d4:	03c21021 	addu	v0,s8,v0
    51d8:	8c420004 	lw	v0,4(v0)
    51dc:	00000000 	sll	zero,zero,0x0
    51e0:	ac620000 	sw	v0,0(v1)
    51e4:	8fc20000 	lw	v0,0(s8)
    51e8:	00000000 	sll	zero,zero,0x0
    51ec:	24420001 	addiu	v0,v0,1
    51f0:	afc20000 	sw	v0,0(s8)
    51f4:	8fc30000 	lw	v1,0(s8)
    51f8:	8fc20094 	lw	v0,148(s8)
    51fc:	00000000 	sll	zero,zero,0x0
    5200:	0062102a 	slt	v0,v1,v0
    5204:	1440ffb6 	bnez	v0,0x50e0
    5208:	00000000 	sll	zero,zero,0x0
    520c:	00001021 	addu	v0,zero,zero
    5210:	03c0e821 	addu	sp,s8,zero
    5214:	8fbe008c 	lw	s8,140(sp)
    5218:	8fb00088 	lw	s0,136(sp)
    521c:	27bd0090 	addiu	sp,sp,144
    5220:	03e00008 	jr	ra
    5224:	00000000 	sll	zero,zero,0x0
    5228:	27bdff70 	addiu	sp,sp,-144
    522c:	afbe008c 	sw	s8,140(sp)
    5230:	afb00088 	sw	s0,136(sp)
    5234:	03a0f021 	addu	s8,sp,zero
    5238:	afc40090 	sw	a0,144(s8)
    523c:	afc50094 	sw	a1,148(s8)
    5240:	afc60098 	sw	a2,152(s8)
    5244:	afc00000 	sw	zero,0(s8)
    5248:	08001519 	j	0x5464
    524c:	00000000 	sll	zero,zero,0x0
    5250:	8fc20000 	lw	v0,0(s8)
    5254:	00000000 	sll	zero,zero,0x0
    5258:	00021100 	sll	v0,v0,0x4
    525c:	8fc30090 	lw	v1,144(s8)
    5260:	00000000 	sll	zero,zero,0x0
    5264:	00621021 	addu	v0,v1,v0
    5268:	8fc30000 	lw	v1,0(s8)
    526c:	00000000 	sll	zero,zero,0x0
    5270:	00031900 	sll	v1,v1,0x4
    5274:	8fc40090 	lw	a0,144(s8)
    5278:	00000000 	sll	zero,zero,0x0
    527c:	00831821 	addu	v1,a0,v1
    5280:	8c640000 	lw	a0,0(v1)
    5284:	8fc50094 	lw	a1,148(s8)
    5288:	8fc30098 	lw	v1,152(s8)
    528c:	00000000 	sll	zero,zero,0x0
    5290:	00a30018 	mult	a1,v1
    5294:	00002812 	mflo	a1
    5298:	8fc30000 	lw	v1,0(s8)
    529c:	00000000 	sll	zero,zero,0x0
    52a0:	00a32821 	addu	a1,a1,v1
    52a4:	3c030000 	lui	v1,0x0
    52a8:	00052880 	sll	a1,a1,0x2
    52ac:	24636e30 	addiu	v1,v1,28208
    52b0:	00a31821 	addu	v1,a1,v1
    52b4:	8c630000 	lw	v1,0(v1)
    52b8:	00000000 	sll	zero,zero,0x0
    52bc:	00831826 	xor	v1,a0,v1
    52c0:	ac430000 	sw	v1,0(v0)
    52c4:	8fc20000 	lw	v0,0(s8)
    52c8:	00000000 	sll	zero,zero,0x0
    52cc:	00021080 	sll	v0,v0,0x2
    52d0:	24420001 	addiu	v0,v0,1
    52d4:	00021080 	sll	v0,v0,0x2
    52d8:	8fc30090 	lw	v1,144(s8)
    52dc:	00000000 	sll	zero,zero,0x0
    52e0:	00621021 	addu	v0,v1,v0
    52e4:	8fc30000 	lw	v1,0(s8)
    52e8:	00000000 	sll	zero,zero,0x0
    52ec:	00031880 	sll	v1,v1,0x2
    52f0:	24630001 	addiu	v1,v1,1
    52f4:	00031880 	sll	v1,v1,0x2
    52f8:	8fc40090 	lw	a0,144(s8)
    52fc:	00000000 	sll	zero,zero,0x0
    5300:	00831821 	addu	v1,a0,v1
    5304:	8c640000 	lw	a0,0(v1)
    5308:	8fc50094 	lw	a1,148(s8)
    530c:	8fc30098 	lw	v1,152(s8)
    5310:	00000000 	sll	zero,zero,0x0
    5314:	00a30018 	mult	a1,v1
    5318:	00002812 	mflo	a1
    531c:	8fc30000 	lw	v1,0(s8)
    5320:	00000000 	sll	zero,zero,0x0
    5324:	00a32821 	addu	a1,a1,v1
    5328:	3c030000 	lui	v1,0x0
    532c:	24a50078 	addiu	a1,a1,120
    5330:	00052880 	sll	a1,a1,0x2
    5334:	24636e30 	addiu	v1,v1,28208
    5338:	00a31821 	addu	v1,a1,v1
    533c:	8c630000 	lw	v1,0(v1)
    5340:	00000000 	sll	zero,zero,0x0
    5344:	00831826 	xor	v1,a0,v1
    5348:	ac430000 	sw	v1,0(v0)
    534c:	8fc20000 	lw	v0,0(s8)
    5350:	00000000 	sll	zero,zero,0x0
    5354:	00021040 	sll	v0,v0,0x1
    5358:	24420001 	addiu	v0,v0,1
    535c:	000210c0 	sll	v0,v0,0x3
    5360:	8fc30090 	lw	v1,144(s8)
    5364:	00000000 	sll	zero,zero,0x0
    5368:	00621021 	addu	v0,v1,v0
    536c:	8fc30000 	lw	v1,0(s8)
    5370:	00000000 	sll	zero,zero,0x0
    5374:	00031840 	sll	v1,v1,0x1
    5378:	24630001 	addiu	v1,v1,1
    537c:	000318c0 	sll	v1,v1,0x3
    5380:	8fc40090 	lw	a0,144(s8)
    5384:	00000000 	sll	zero,zero,0x0
    5388:	00831821 	addu	v1,a0,v1
    538c:	8c640000 	lw	a0,0(v1)
    5390:	8fc50094 	lw	a1,148(s8)
    5394:	8fc30098 	lw	v1,152(s8)
    5398:	00000000 	sll	zero,zero,0x0
    539c:	00a30018 	mult	a1,v1
    53a0:	00002812 	mflo	a1
    53a4:	8fc30000 	lw	v1,0(s8)
    53a8:	00000000 	sll	zero,zero,0x0
    53ac:	00a32821 	addu	a1,a1,v1
    53b0:	3c030000 	lui	v1,0x0
    53b4:	24a500f0 	addiu	a1,a1,240
    53b8:	00052880 	sll	a1,a1,0x2
    53bc:	24636e30 	addiu	v1,v1,28208
    53c0:	00a31821 	addu	v1,a1,v1
    53c4:	8c630000 	lw	v1,0(v1)
    53c8:	00000000 	sll	zero,zero,0x0
    53cc:	00831826 	xor	v1,a0,v1
    53d0:	ac430000 	sw	v1,0(v0)
    53d4:	8fc20000 	lw	v0,0(s8)
    53d8:	00000000 	sll	zero,zero,0x0
    53dc:	00021100 	sll	v0,v0,0x4
    53e0:	2442000c 	addiu	v0,v0,12
    53e4:	8fc30090 	lw	v1,144(s8)
    53e8:	00000000 	sll	zero,zero,0x0
    53ec:	00621021 	addu	v0,v1,v0
    53f0:	8fc30000 	lw	v1,0(s8)
    53f4:	00000000 	sll	zero,zero,0x0
    53f8:	00031900 	sll	v1,v1,0x4
    53fc:	2463000c 	addiu	v1,v1,12
    5400:	8fc40090 	lw	a0,144(s8)
    5404:	00000000 	sll	zero,zero,0x0
    5408:	00831821 	addu	v1,a0,v1
    540c:	8c640000 	lw	a0,0(v1)
    5410:	8fc50094 	lw	a1,148(s8)
    5414:	8fc30098 	lw	v1,152(s8)
    5418:	00000000 	sll	zero,zero,0x0
    541c:	00a30018 	mult	a1,v1
    5420:	00002812 	mflo	a1
    5424:	8fc30000 	lw	v1,0(s8)
    5428:	00000000 	sll	zero,zero,0x0
    542c:	00a32821 	addu	a1,a1,v1
    5430:	3c030000 	lui	v1,0x0
    5434:	24a50168 	addiu	a1,a1,360
    5438:	00052880 	sll	a1,a1,0x2
    543c:	24636e30 	addiu	v1,v1,28208
    5440:	00a31821 	addu	v1,a1,v1
    5444:	8c630000 	lw	v1,0(v1)
    5448:	00000000 	sll	zero,zero,0x0
    544c:	00831826 	xor	v1,a0,v1
    5450:	ac430000 	sw	v1,0(v0)
    5454:	8fc20000 	lw	v0,0(s8)
    5458:	00000000 	sll	zero,zero,0x0
    545c:	24420001 	addiu	v0,v0,1
    5460:	afc20000 	sw	v0,0(s8)
    5464:	8fc30000 	lw	v1,0(s8)
    5468:	8fc20094 	lw	v0,148(s8)
    546c:	00000000 	sll	zero,zero,0x0
    5470:	0062102a 	slt	v0,v1,v0
    5474:	1440ff76 	bnez	v0,0x5250
    5478:	00000000 	sll	zero,zero,0x0
    547c:	afc00000 	sw	zero,0(s8)
    5480:	080016a2 	j	0x5a88
    5484:	00000000 	sll	zero,zero,0x0
    5488:	afc00004 	sw	zero,4(s8)
    548c:	08001699 	j	0x5a64
    5490:	00000000 	sll	zero,zero,0x0
    5494:	8fc20000 	lw	v0,0(s8)
    5498:	00000000 	sll	zero,zero,0x0
    549c:	00021880 	sll	v1,v0,0x2
    54a0:	8fc20004 	lw	v0,4(s8)
    54a4:	00000000 	sll	zero,zero,0x0
    54a8:	00621021 	addu	v0,v1,v0
    54ac:	00021080 	sll	v0,v0,0x2
    54b0:	8fc30090 	lw	v1,144(s8)
    54b4:	00000000 	sll	zero,zero,0x0
    54b8:	00621021 	addu	v0,v1,v0
    54bc:	8c420000 	lw	v0,0(v0)
    54c0:	00000000 	sll	zero,zero,0x0
    54c4:	00028040 	sll	s0,v0,0x1
    54c8:	00101a03 	sra	v1,s0,0x8
    54cc:	24020001 	addiu	v0,zero,1
    54d0:	14620002 	bne	v1,v0,0x54dc
    54d4:	00000000 	sll	zero,zero,0x0
    54d8:	3a10011b 	xori	s0,s0,0x11b
    54dc:	8fc20000 	lw	v0,0(s8)
    54e0:	00000000 	sll	zero,zero,0x0
    54e4:	00021880 	sll	v1,v0,0x2
    54e8:	8fc20004 	lw	v0,4(s8)
    54ec:	00000000 	sll	zero,zero,0x0
    54f0:	00621021 	addu	v0,v1,v0
    54f4:	00021080 	sll	v0,v0,0x2
    54f8:	8fc30090 	lw	v1,144(s8)
    54fc:	00000000 	sll	zero,zero,0x0
    5500:	00621021 	addu	v0,v1,v0
    5504:	8c420000 	lw	v0,0(v0)
    5508:	00000000 	sll	zero,zero,0x0
    550c:	02028026 	xor	s0,s0,v0
    5510:	00108040 	sll	s0,s0,0x1
    5514:	00101a03 	sra	v1,s0,0x8
    5518:	24020001 	addiu	v0,zero,1
    551c:	14620002 	bne	v1,v0,0x5528
    5520:	00000000 	sll	zero,zero,0x0
    5524:	3a10011b 	xori	s0,s0,0x11b
    5528:	8fc20000 	lw	v0,0(s8)
    552c:	00000000 	sll	zero,zero,0x0
    5530:	00021880 	sll	v1,v0,0x2
    5534:	8fc20004 	lw	v0,4(s8)
    5538:	00000000 	sll	zero,zero,0x0
    553c:	00621021 	addu	v0,v1,v0
    5540:	00021080 	sll	v0,v0,0x2
    5544:	8fc30090 	lw	v1,144(s8)
    5548:	00000000 	sll	zero,zero,0x0
    554c:	00621021 	addu	v0,v1,v0
    5550:	8c420000 	lw	v0,0(v0)
    5554:	00000000 	sll	zero,zero,0x0
    5558:	02028026 	xor	s0,s0,v0
    555c:	00108040 	sll	s0,s0,0x1
    5560:	00101a03 	sra	v1,s0,0x8
    5564:	24020001 	addiu	v0,zero,1
    5568:	14620002 	bne	v1,v0,0x5574
    556c:	00000000 	sll	zero,zero,0x0
    5570:	3a10011b 	xori	s0,s0,0x11b
    5574:	8fc20000 	lw	v0,0(s8)
    5578:	00000000 	sll	zero,zero,0x0
    557c:	00021880 	sll	v1,v0,0x2
    5580:	8fc20004 	lw	v0,4(s8)
    5584:	00000000 	sll	zero,zero,0x0
    5588:	00621021 	addu	v0,v1,v0
    558c:	00021080 	sll	v0,v0,0x2
    5590:	03c21021 	addu	v0,s8,v0
    5594:	ac500008 	sw	s0,8(v0)
    5598:	8fc20004 	lw	v0,4(s8)
    559c:	00000000 	sll	zero,zero,0x0
    55a0:	24430001 	addiu	v1,v0,1
    55a4:	3c028000 	lui	v0,0x8000
    55a8:	34420003 	ori	v0,v0,0x3
    55ac:	00621024 	and	v0,v1,v0
    55b0:	04410005 	bgez	v0,0x55c8
    55b4:	00000000 	sll	zero,zero,0x0
    55b8:	2442ffff 	addiu	v0,v0,-1
    55bc:	2403fffc 	addiu	v1,zero,-4
    55c0:	00431025 	or	v0,v0,v1
    55c4:	24420001 	addiu	v0,v0,1
    55c8:	00401821 	addu	v1,v0,zero
    55cc:	8fc20000 	lw	v0,0(s8)
    55d0:	00000000 	sll	zero,zero,0x0
    55d4:	00021080 	sll	v0,v0,0x2
    55d8:	00621021 	addu	v0,v1,v0
    55dc:	00021080 	sll	v0,v0,0x2
    55e0:	8fc30090 	lw	v1,144(s8)
    55e4:	00000000 	sll	zero,zero,0x0
    55e8:	00621021 	addu	v0,v1,v0
    55ec:	8c420000 	lw	v0,0(v0)
    55f0:	00000000 	sll	zero,zero,0x0
    55f4:	00028040 	sll	s0,v0,0x1
    55f8:	00101a03 	sra	v1,s0,0x8
    55fc:	24020001 	addiu	v0,zero,1
    5600:	14620002 	bne	v1,v0,0x560c
    5604:	00000000 	sll	zero,zero,0x0
    5608:	3a10011b 	xori	s0,s0,0x11b
    560c:	00108040 	sll	s0,s0,0x1
    5610:	00101a03 	sra	v1,s0,0x8
    5614:	24020001 	addiu	v0,zero,1
    5618:	14620002 	bne	v1,v0,0x5624
    561c:	00000000 	sll	zero,zero,0x0
    5620:	3a10011b 	xori	s0,s0,0x11b
    5624:	8fc20004 	lw	v0,4(s8)
    5628:	00000000 	sll	zero,zero,0x0
    562c:	24430001 	addiu	v1,v0,1
    5630:	3c028000 	lui	v0,0x8000
    5634:	34420003 	ori	v0,v0,0x3
    5638:	00621024 	and	v0,v1,v0
    563c:	04410005 	bgez	v0,0x5654
    5640:	00000000 	sll	zero,zero,0x0
    5644:	2442ffff 	addiu	v0,v0,-1
    5648:	2403fffc 	addiu	v1,zero,-4
    564c:	00431025 	or	v0,v0,v1
    5650:	24420001 	addiu	v0,v0,1
    5654:	00401821 	addu	v1,v0,zero
    5658:	8fc20000 	lw	v0,0(s8)
    565c:	00000000 	sll	zero,zero,0x0
    5660:	00021080 	sll	v0,v0,0x2
    5664:	00621021 	addu	v0,v1,v0
    5668:	00021080 	sll	v0,v0,0x2
    566c:	8fc30090 	lw	v1,144(s8)
    5670:	00000000 	sll	zero,zero,0x0
    5674:	00621021 	addu	v0,v1,v0
    5678:	8c420000 	lw	v0,0(v0)
    567c:	00000000 	sll	zero,zero,0x0
    5680:	02028026 	xor	s0,s0,v0
    5684:	00108040 	sll	s0,s0,0x1
    5688:	00101a03 	sra	v1,s0,0x8
    568c:	24020001 	addiu	v0,zero,1
    5690:	14620002 	bne	v1,v0,0x569c
    5694:	00000000 	sll	zero,zero,0x0
    5698:	3a10011b 	xori	s0,s0,0x11b
    569c:	8fc20004 	lw	v0,4(s8)
    56a0:	00000000 	sll	zero,zero,0x0
    56a4:	24430001 	addiu	v1,v0,1
    56a8:	3c028000 	lui	v0,0x8000
    56ac:	34420003 	ori	v0,v0,0x3
    56b0:	00621024 	and	v0,v1,v0
    56b4:	04410005 	bgez	v0,0x56cc
    56b8:	00000000 	sll	zero,zero,0x0
    56bc:	2442ffff 	addiu	v0,v0,-1
    56c0:	2403fffc 	addiu	v1,zero,-4
    56c4:	00431025 	or	v0,v0,v1
    56c8:	24420001 	addiu	v0,v0,1
    56cc:	00401821 	addu	v1,v0,zero
    56d0:	8fc20000 	lw	v0,0(s8)
    56d4:	00000000 	sll	zero,zero,0x0
    56d8:	00021080 	sll	v0,v0,0x2
    56dc:	00621021 	addu	v0,v1,v0
    56e0:	00021080 	sll	v0,v0,0x2
    56e4:	8fc30090 	lw	v1,144(s8)
    56e8:	00000000 	sll	zero,zero,0x0
    56ec:	00621021 	addu	v0,v1,v0
    56f0:	8c420000 	lw	v0,0(v0)
    56f4:	00000000 	sll	zero,zero,0x0
    56f8:	02028026 	xor	s0,s0,v0
    56fc:	8fc20000 	lw	v0,0(s8)
    5700:	00000000 	sll	zero,zero,0x0
    5704:	00021880 	sll	v1,v0,0x2
    5708:	8fc20004 	lw	v0,4(s8)
    570c:	00000000 	sll	zero,zero,0x0
    5710:	00622021 	addu	a0,v1,v0
    5714:	8fc20000 	lw	v0,0(s8)
    5718:	00000000 	sll	zero,zero,0x0
    571c:	00021880 	sll	v1,v0,0x2
    5720:	8fc20004 	lw	v0,4(s8)
    5724:	00000000 	sll	zero,zero,0x0
    5728:	00621021 	addu	v0,v1,v0
    572c:	00021080 	sll	v0,v0,0x2
    5730:	03c21021 	addu	v0,s8,v0
    5734:	8c420008 	lw	v0,8(v0)
    5738:	00000000 	sll	zero,zero,0x0
    573c:	00501826 	xor	v1,v0,s0
    5740:	00041080 	sll	v0,a0,0x2
    5744:	03c21021 	addu	v0,s8,v0
    5748:	ac430008 	sw	v1,8(v0)
    574c:	8fc20004 	lw	v0,4(s8)
    5750:	00000000 	sll	zero,zero,0x0
    5754:	24430002 	addiu	v1,v0,2
    5758:	3c028000 	lui	v0,0x8000
    575c:	34420003 	ori	v0,v0,0x3
    5760:	00621024 	and	v0,v1,v0
    5764:	04410005 	bgez	v0,0x577c
    5768:	00000000 	sll	zero,zero,0x0
    576c:	2442ffff 	addiu	v0,v0,-1
    5770:	2403fffc 	addiu	v1,zero,-4
    5774:	00431025 	or	v0,v0,v1
    5778:	24420001 	addiu	v0,v0,1
    577c:	00401821 	addu	v1,v0,zero
    5780:	8fc20000 	lw	v0,0(s8)
    5784:	00000000 	sll	zero,zero,0x0
    5788:	00021080 	sll	v0,v0,0x2
    578c:	00621021 	addu	v0,v1,v0
    5790:	00021080 	sll	v0,v0,0x2
    5794:	8fc30090 	lw	v1,144(s8)
    5798:	00000000 	sll	zero,zero,0x0
    579c:	00621021 	addu	v0,v1,v0
    57a0:	8c420000 	lw	v0,0(v0)
    57a4:	00000000 	sll	zero,zero,0x0
    57a8:	00028040 	sll	s0,v0,0x1
    57ac:	00101a03 	sra	v1,s0,0x8
    57b0:	24020001 	addiu	v0,zero,1
    57b4:	14620002 	bne	v1,v0,0x57c0
    57b8:	00000000 	sll	zero,zero,0x0
    57bc:	3a10011b 	xori	s0,s0,0x11b
    57c0:	8fc20004 	lw	v0,4(s8)
    57c4:	00000000 	sll	zero,zero,0x0
    57c8:	24430002 	addiu	v1,v0,2
    57cc:	3c028000 	lui	v0,0x8000
    57d0:	34420003 	ori	v0,v0,0x3
    57d4:	00621024 	and	v0,v1,v0
    57d8:	04410005 	bgez	v0,0x57f0
    57dc:	00000000 	sll	zero,zero,0x0
    57e0:	2442ffff 	addiu	v0,v0,-1
    57e4:	2403fffc 	addiu	v1,zero,-4
    57e8:	00431025 	or	v0,v0,v1
    57ec:	24420001 	addiu	v0,v0,1
    57f0:	00401821 	addu	v1,v0,zero
    57f4:	8fc20000 	lw	v0,0(s8)
    57f8:	00000000 	sll	zero,zero,0x0
    57fc:	00021080 	sll	v0,v0,0x2
    5800:	00621021 	addu	v0,v1,v0
    5804:	00021080 	sll	v0,v0,0x2
    5808:	8fc30090 	lw	v1,144(s8)
    580c:	00000000 	sll	zero,zero,0x0
    5810:	00621021 	addu	v0,v1,v0
    5814:	8c420000 	lw	v0,0(v0)
    5818:	00000000 	sll	zero,zero,0x0
    581c:	02028026 	xor	s0,s0,v0
    5820:	00108040 	sll	s0,s0,0x1
    5824:	00101a03 	sra	v1,s0,0x8
    5828:	24020001 	addiu	v0,zero,1
    582c:	14620002 	bne	v1,v0,0x5838
    5830:	00000000 	sll	zero,zero,0x0
    5834:	3a10011b 	xori	s0,s0,0x11b
    5838:	00108040 	sll	s0,s0,0x1
    583c:	00101a03 	sra	v1,s0,0x8
    5840:	24020001 	addiu	v0,zero,1
    5844:	14620002 	bne	v1,v0,0x5850
    5848:	00000000 	sll	zero,zero,0x0
    584c:	3a10011b 	xori	s0,s0,0x11b
    5850:	8fc20004 	lw	v0,4(s8)
    5854:	00000000 	sll	zero,zero,0x0
    5858:	24430002 	addiu	v1,v0,2
    585c:	3c028000 	lui	v0,0x8000
    5860:	34420003 	ori	v0,v0,0x3
    5864:	00621024 	and	v0,v1,v0
    5868:	04410005 	bgez	v0,0x5880
    586c:	00000000 	sll	zero,zero,0x0
    5870:	2442ffff 	addiu	v0,v0,-1
    5874:	2403fffc 	addiu	v1,zero,-4
    5878:	00431025 	or	v0,v0,v1
    587c:	24420001 	addiu	v0,v0,1
    5880:	00401821 	addu	v1,v0,zero
    5884:	8fc20000 	lw	v0,0(s8)
    5888:	00000000 	sll	zero,zero,0x0
    588c:	00021080 	sll	v0,v0,0x2
    5890:	00621021 	addu	v0,v1,v0
    5894:	00021080 	sll	v0,v0,0x2
    5898:	8fc30090 	lw	v1,144(s8)
    589c:	00000000 	sll	zero,zero,0x0
    58a0:	00621021 	addu	v0,v1,v0
    58a4:	8c420000 	lw	v0,0(v0)
    58a8:	00000000 	sll	zero,zero,0x0
    58ac:	02028026 	xor	s0,s0,v0
    58b0:	8fc20000 	lw	v0,0(s8)
    58b4:	00000000 	sll	zero,zero,0x0
    58b8:	00021880 	sll	v1,v0,0x2
    58bc:	8fc20004 	lw	v0,4(s8)
    58c0:	00000000 	sll	zero,zero,0x0
    58c4:	00622021 	addu	a0,v1,v0
    58c8:	8fc20000 	lw	v0,0(s8)
    58cc:	00000000 	sll	zero,zero,0x0
    58d0:	00021880 	sll	v1,v0,0x2
    58d4:	8fc20004 	lw	v0,4(s8)
    58d8:	00000000 	sll	zero,zero,0x0
    58dc:	00621021 	addu	v0,v1,v0
    58e0:	00021080 	sll	v0,v0,0x2
    58e4:	03c21021 	addu	v0,s8,v0
    58e8:	8c420008 	lw	v0,8(v0)
    58ec:	00000000 	sll	zero,zero,0x0
    58f0:	00501826 	xor	v1,v0,s0
    58f4:	00041080 	sll	v0,a0,0x2
    58f8:	03c21021 	addu	v0,s8,v0
    58fc:	ac430008 	sw	v1,8(v0)
    5900:	8fc20004 	lw	v0,4(s8)
    5904:	00000000 	sll	zero,zero,0x0
    5908:	24430003 	addiu	v1,v0,3
    590c:	3c028000 	lui	v0,0x8000
    5910:	34420003 	ori	v0,v0,0x3
    5914:	00621024 	and	v0,v1,v0
    5918:	04410005 	bgez	v0,0x5930
    591c:	00000000 	sll	zero,zero,0x0
    5920:	2442ffff 	addiu	v0,v0,-1
    5924:	2403fffc 	addiu	v1,zero,-4
    5928:	00431025 	or	v0,v0,v1
    592c:	24420001 	addiu	v0,v0,1
    5930:	00401821 	addu	v1,v0,zero
    5934:	8fc20000 	lw	v0,0(s8)
    5938:	00000000 	sll	zero,zero,0x0
    593c:	00021080 	sll	v0,v0,0x2
    5940:	00621021 	addu	v0,v1,v0
    5944:	00021080 	sll	v0,v0,0x2
    5948:	8fc30090 	lw	v1,144(s8)
    594c:	00000000 	sll	zero,zero,0x0
    5950:	00621021 	addu	v0,v1,v0
    5954:	8c420000 	lw	v0,0(v0)
    5958:	00000000 	sll	zero,zero,0x0
    595c:	00028040 	sll	s0,v0,0x1
    5960:	00101a03 	sra	v1,s0,0x8
    5964:	24020001 	addiu	v0,zero,1
    5968:	14620002 	bne	v1,v0,0x5974
    596c:	00000000 	sll	zero,zero,0x0
    5970:	3a10011b 	xori	s0,s0,0x11b
    5974:	00108040 	sll	s0,s0,0x1
    5978:	00101a03 	sra	v1,s0,0x8
    597c:	24020001 	addiu	v0,zero,1
    5980:	14620002 	bne	v1,v0,0x598c
    5984:	00000000 	sll	zero,zero,0x0
    5988:	3a10011b 	xori	s0,s0,0x11b
    598c:	00108040 	sll	s0,s0,0x1
    5990:	00101a03 	sra	v1,s0,0x8
    5994:	24020001 	addiu	v0,zero,1
    5998:	14620002 	bne	v1,v0,0x59a4
    599c:	00000000 	sll	zero,zero,0x0
    59a0:	3a10011b 	xori	s0,s0,0x11b
    59a4:	8fc20004 	lw	v0,4(s8)
    59a8:	00000000 	sll	zero,zero,0x0
    59ac:	24430003 	addiu	v1,v0,3
    59b0:	3c028000 	lui	v0,0x8000
    59b4:	34420003 	ori	v0,v0,0x3
    59b8:	00621024 	and	v0,v1,v0
    59bc:	04410005 	bgez	v0,0x59d4
    59c0:	00000000 	sll	zero,zero,0x0
    59c4:	2442ffff 	addiu	v0,v0,-1
    59c8:	2403fffc 	addiu	v1,zero,-4
    59cc:	00431025 	or	v0,v0,v1
    59d0:	24420001 	addiu	v0,v0,1
    59d4:	00401821 	addu	v1,v0,zero
    59d8:	8fc20000 	lw	v0,0(s8)
    59dc:	00000000 	sll	zero,zero,0x0
    59e0:	00021080 	sll	v0,v0,0x2
    59e4:	00621021 	addu	v0,v1,v0
    59e8:	00021080 	sll	v0,v0,0x2
    59ec:	8fc30090 	lw	v1,144(s8)
    59f0:	00000000 	sll	zero,zero,0x0
    59f4:	00621021 	addu	v0,v1,v0
    59f8:	8c420000 	lw	v0,0(v0)
    59fc:	00000000 	sll	zero,zero,0x0
    5a00:	02028026 	xor	s0,s0,v0
    5a04:	8fc20000 	lw	v0,0(s8)
    5a08:	00000000 	sll	zero,zero,0x0
    5a0c:	00021880 	sll	v1,v0,0x2
    5a10:	8fc20004 	lw	v0,4(s8)
    5a14:	00000000 	sll	zero,zero,0x0
    5a18:	00622021 	addu	a0,v1,v0
    5a1c:	8fc20000 	lw	v0,0(s8)
    5a20:	00000000 	sll	zero,zero,0x0
    5a24:	00021880 	sll	v1,v0,0x2
    5a28:	8fc20004 	lw	v0,4(s8)
    5a2c:	00000000 	sll	zero,zero,0x0
    5a30:	00621021 	addu	v0,v1,v0
    5a34:	00021080 	sll	v0,v0,0x2
    5a38:	03c21021 	addu	v0,s8,v0
    5a3c:	8c420008 	lw	v0,8(v0)
    5a40:	00000000 	sll	zero,zero,0x0
    5a44:	00501826 	xor	v1,v0,s0
    5a48:	00041080 	sll	v0,a0,0x2
    5a4c:	03c21021 	addu	v0,s8,v0
    5a50:	ac430008 	sw	v1,8(v0)
    5a54:	8fc20004 	lw	v0,4(s8)
    5a58:	00000000 	sll	zero,zero,0x0
    5a5c:	24420001 	addiu	v0,v0,1
    5a60:	afc20004 	sw	v0,4(s8)
    5a64:	8fc20004 	lw	v0,4(s8)
    5a68:	00000000 	sll	zero,zero,0x0
    5a6c:	28420004 	slti	v0,v0,4
    5a70:	1440fe88 	bnez	v0,0x5494
    5a74:	00000000 	sll	zero,zero,0x0
    5a78:	8fc20000 	lw	v0,0(s8)
    5a7c:	00000000 	sll	zero,zero,0x0
    5a80:	24420001 	addiu	v0,v0,1
    5a84:	afc20000 	sw	v0,0(s8)
    5a88:	8fc30000 	lw	v1,0(s8)
    5a8c:	8fc20094 	lw	v0,148(s8)
    5a90:	00000000 	sll	zero,zero,0x0
    5a94:	0062102a 	slt	v0,v1,v0
    5a98:	1440fe7b 	bnez	v0,0x5488
    5a9c:	00000000 	sll	zero,zero,0x0
    5aa0:	afc00004 	sw	zero,4(s8)
    5aa4:	080016f0 	j	0x5bc0
    5aa8:	00000000 	sll	zero,zero,0x0
    5aac:	8fc20004 	lw	v0,4(s8)
    5ab0:	00000000 	sll	zero,zero,0x0
    5ab4:	00021100 	sll	v0,v0,0x4
    5ab8:	8fc30090 	lw	v1,144(s8)
    5abc:	00000000 	sll	zero,zero,0x0
    5ac0:	00621821 	addu	v1,v1,v0
    5ac4:	8fc20004 	lw	v0,4(s8)
    5ac8:	00000000 	sll	zero,zero,0x0
    5acc:	00021080 	sll	v0,v0,0x2
    5ad0:	00021080 	sll	v0,v0,0x2
    5ad4:	03c21021 	addu	v0,s8,v0
    5ad8:	8c420008 	lw	v0,8(v0)
    5adc:	00000000 	sll	zero,zero,0x0
    5ae0:	ac620000 	sw	v0,0(v1)
    5ae4:	8fc20004 	lw	v0,4(s8)
    5ae8:	00000000 	sll	zero,zero,0x0
    5aec:	00021080 	sll	v0,v0,0x2
    5af0:	24420001 	addiu	v0,v0,1
    5af4:	00021080 	sll	v0,v0,0x2
    5af8:	8fc30090 	lw	v1,144(s8)
    5afc:	00000000 	sll	zero,zero,0x0
    5b00:	00621821 	addu	v1,v1,v0
    5b04:	8fc20004 	lw	v0,4(s8)
    5b08:	00000000 	sll	zero,zero,0x0
    5b0c:	00021080 	sll	v0,v0,0x2
    5b10:	24420001 	addiu	v0,v0,1
    5b14:	00021080 	sll	v0,v0,0x2
    5b18:	03c21021 	addu	v0,s8,v0
    5b1c:	8c420008 	lw	v0,8(v0)
    5b20:	00000000 	sll	zero,zero,0x0
    5b24:	ac620000 	sw	v0,0(v1)
    5b28:	8fc20004 	lw	v0,4(s8)
    5b2c:	00000000 	sll	zero,zero,0x0
    5b30:	00021040 	sll	v0,v0,0x1
    5b34:	24420001 	addiu	v0,v0,1
    5b38:	000210c0 	sll	v0,v0,0x3
    5b3c:	8fc30090 	lw	v1,144(s8)
    5b40:	00000000 	sll	zero,zero,0x0
    5b44:	00621821 	addu	v1,v1,v0
    5b48:	8fc20004 	lw	v0,4(s8)
    5b4c:	00000000 	sll	zero,zero,0x0
    5b50:	00021040 	sll	v0,v0,0x1
    5b54:	24420001 	addiu	v0,v0,1
    5b58:	00021040 	sll	v0,v0,0x1
    5b5c:	00021080 	sll	v0,v0,0x2
    5b60:	03c21021 	addu	v0,s8,v0
    5b64:	8c420008 	lw	v0,8(v0)
    5b68:	00000000 	sll	zero,zero,0x0
    5b6c:	ac620000 	sw	v0,0(v1)
    5b70:	8fc20004 	lw	v0,4(s8)
    5b74:	00000000 	sll	zero,zero,0x0
    5b78:	00021100 	sll	v0,v0,0x4
    5b7c:	2442000c 	addiu	v0,v0,12
    5b80:	8fc30090 	lw	v1,144(s8)
    5b84:	00000000 	sll	zero,zero,0x0
    5b88:	00621821 	addu	v1,v1,v0
    5b8c:	8fc20004 	lw	v0,4(s8)
    5b90:	00000000 	sll	zero,zero,0x0
    5b94:	00021080 	sll	v0,v0,0x2
    5b98:	24420003 	addiu	v0,v0,3
    5b9c:	00021080 	sll	v0,v0,0x2
    5ba0:	03c21021 	addu	v0,s8,v0
    5ba4:	8c420008 	lw	v0,8(v0)
    5ba8:	00000000 	sll	zero,zero,0x0
    5bac:	ac620000 	sw	v0,0(v1)
    5bb0:	8fc20004 	lw	v0,4(s8)
    5bb4:	00000000 	sll	zero,zero,0x0
    5bb8:	24420001 	addiu	v0,v0,1
    5bbc:	afc20004 	sw	v0,4(s8)
    5bc0:	8fc30004 	lw	v1,4(s8)
    5bc4:	8fc20094 	lw	v0,148(s8)
    5bc8:	00000000 	sll	zero,zero,0x0
    5bcc:	0062102a 	slt	v0,v1,v0
    5bd0:	1440ffb6 	bnez	v0,0x5aac
    5bd4:	00000000 	sll	zero,zero,0x0
    5bd8:	00001021 	addu	v0,zero,zero
    5bdc:	03c0e821 	addu	sp,s8,zero
    5be0:	8fbe008c 	lw	s8,140(sp)
    5be4:	8fb00088 	lw	s0,136(sp)
    5be8:	27bd0090 	addiu	sp,sp,144
    5bec:	03e00008 	jr	ra
    5bf0:	00000000 	sll	zero,zero,0x0
    5bf4:	27bdfff0 	addiu	sp,sp,-16
    5bf8:	afbe000c 	sw	s8,12(sp)
    5bfc:	03a0f021 	addu	s8,sp,zero
    5c00:	afc40010 	sw	a0,16(s8)
    5c04:	afc50014 	sw	a1,20(s8)
    5c08:	afc60018 	sw	a2,24(s8)
    5c0c:	8fc20014 	lw	v0,20(s8)
    5c10:	3c030002 	lui	v1,0x2
    5c14:	3463eec0 	ori	v1,v1,0xeec0
    5c18:	1043003c 	beq	v0,v1,0x5d0c
    5c1c:	00000000 	sll	zero,zero,0x0
    5c20:	3c030002 	lui	v1,0x2
    5c24:	3463eec1 	ori	v1,v1,0xeec1
    5c28:	0043182a 	slt	v1,v0,v1
    5c2c:	1060001a 	beqz	v1,0x5c98
    5c30:	00000000 	sll	zero,zero,0x0
    5c34:	3c030001 	lui	v1,0x1
    5c38:	3463f4c0 	ori	v1,v1,0xf4c0
    5c3c:	10430033 	beq	v0,v1,0x5d0c
    5c40:	00000000 	sll	zero,zero,0x0
    5c44:	3c030001 	lui	v1,0x1
    5c48:	3463f4c1 	ori	v1,v1,0xf4c1
    5c4c:	0043182a 	slt	v1,v0,v1
    5c50:	10600007 	beqz	v1,0x5c70
    5c54:	00000000 	sll	zero,zero,0x0
    5c58:	3c030001 	lui	v1,0x1
    5c5c:	3463f480 	ori	v1,v1,0xf480
    5c60:	10430026 	beq	v0,v1,0x5cfc
    5c64:	00000000 	sll	zero,zero,0x0
    5c68:	08001749 	j	0x5d24
    5c6c:	00000000 	sll	zero,zero,0x0
    5c70:	3c030001 	lui	v1,0x1
    5c74:	3463f500 	ori	v1,v1,0xf500
    5c78:	10430028 	beq	v0,v1,0x5d1c
    5c7c:	00000000 	sll	zero,zero,0x0
    5c80:	3c030002 	lui	v1,0x2
    5c84:	3463ee80 	ori	v1,v1,0xee80
    5c88:	1043001c 	beq	v0,v1,0x5cfc
    5c8c:	00000000 	sll	zero,zero,0x0
    5c90:	08001749 	j	0x5d24
    5c94:	00000000 	sll	zero,zero,0x0
    5c98:	3c030003 	lui	v1,0x3
    5c9c:	3463e880 	ori	v1,v1,0xe880
    5ca0:	10430016 	beq	v0,v1,0x5cfc
    5ca4:	00000000 	sll	zero,zero,0x0
    5ca8:	3c030003 	lui	v1,0x3
    5cac:	3463e881 	ori	v1,v1,0xe881
    5cb0:	0043182a 	slt	v1,v0,v1
    5cb4:	10600007 	beqz	v1,0x5cd4
    5cb8:	00000000 	sll	zero,zero,0x0
    5cbc:	3c030002 	lui	v1,0x2
    5cc0:	3463ef00 	ori	v1,v1,0xef00
    5cc4:	10430015 	beq	v0,v1,0x5d1c
    5cc8:	00000000 	sll	zero,zero,0x0
    5ccc:	08001749 	j	0x5d24
    5cd0:	00000000 	sll	zero,zero,0x0
    5cd4:	3c030003 	lui	v1,0x3
    5cd8:	3463e8c0 	ori	v1,v1,0xe8c0
    5cdc:	1043000b 	beq	v0,v1,0x5d0c
    5ce0:	00000000 	sll	zero,zero,0x0
    5ce4:	3c030003 	lui	v1,0x3
    5ce8:	3463e900 	ori	v1,v1,0xe900
    5cec:	1043000b 	beq	v0,v1,0x5d1c
    5cf0:	00000000 	sll	zero,zero,0x0
    5cf4:	08001749 	j	0x5d24
    5cf8:	00000000 	sll	zero,zero,0x0
    5cfc:	24020004 	addiu	v0,zero,4
    5d00:	afc20000 	sw	v0,0(s8)
    5d04:	08001749 	j	0x5d24
    5d08:	00000000 	sll	zero,zero,0x0
    5d0c:	24020006 	addiu	v0,zero,6
    5d10:	afc20000 	sw	v0,0(s8)
    5d14:	08001749 	j	0x5d24
    5d18:	00000000 	sll	zero,zero,0x0
    5d1c:	24020008 	addiu	v0,zero,8
    5d20:	afc20000 	sw	v0,0(s8)
    5d24:	afc00004 	sw	zero,4(s8)
    5d28:	080017d1 	j	0x5f44
    5d2c:	00000000 	sll	zero,zero,0x0
    5d30:	8fc20004 	lw	v0,4(s8)
    5d34:	00000000 	sll	zero,zero,0x0
    5d38:	00021100 	sll	v0,v0,0x4
    5d3c:	8fc30010 	lw	v1,16(s8)
    5d40:	00000000 	sll	zero,zero,0x0
    5d44:	00621021 	addu	v0,v1,v0
    5d48:	8fc30004 	lw	v1,4(s8)
    5d4c:	00000000 	sll	zero,zero,0x0
    5d50:	00031900 	sll	v1,v1,0x4
    5d54:	8fc40010 	lw	a0,16(s8)
    5d58:	00000000 	sll	zero,zero,0x0
    5d5c:	00831821 	addu	v1,a0,v1
    5d60:	8c640000 	lw	a0,0(v1)
    5d64:	8fc50000 	lw	a1,0(s8)
    5d68:	8fc30018 	lw	v1,24(s8)
    5d6c:	00000000 	sll	zero,zero,0x0
    5d70:	00a30018 	mult	a1,v1
    5d74:	00002812 	mflo	a1
    5d78:	8fc30004 	lw	v1,4(s8)
    5d7c:	00000000 	sll	zero,zero,0x0
    5d80:	00a32821 	addu	a1,a1,v1
    5d84:	3c030000 	lui	v1,0x0
    5d88:	00052880 	sll	a1,a1,0x2
    5d8c:	24636e30 	addiu	v1,v1,28208
    5d90:	00a31821 	addu	v1,a1,v1
    5d94:	8c630000 	lw	v1,0(v1)
    5d98:	00000000 	sll	zero,zero,0x0
    5d9c:	00831826 	xor	v1,a0,v1
    5da0:	ac430000 	sw	v1,0(v0)
    5da4:	8fc20004 	lw	v0,4(s8)
    5da8:	00000000 	sll	zero,zero,0x0
    5dac:	00021080 	sll	v0,v0,0x2
    5db0:	24420001 	addiu	v0,v0,1
    5db4:	00021080 	sll	v0,v0,0x2
    5db8:	8fc30010 	lw	v1,16(s8)
    5dbc:	00000000 	sll	zero,zero,0x0
    5dc0:	00621021 	addu	v0,v1,v0
    5dc4:	8fc30004 	lw	v1,4(s8)
    5dc8:	00000000 	sll	zero,zero,0x0
    5dcc:	00031880 	sll	v1,v1,0x2
    5dd0:	24630001 	addiu	v1,v1,1
    5dd4:	00031880 	sll	v1,v1,0x2
    5dd8:	8fc40010 	lw	a0,16(s8)
    5ddc:	00000000 	sll	zero,zero,0x0
    5de0:	00831821 	addu	v1,a0,v1
    5de4:	8c640000 	lw	a0,0(v1)
    5de8:	8fc50000 	lw	a1,0(s8)
    5dec:	8fc30018 	lw	v1,24(s8)
    5df0:	00000000 	sll	zero,zero,0x0
    5df4:	00a30018 	mult	a1,v1
    5df8:	00002812 	mflo	a1
    5dfc:	8fc30004 	lw	v1,4(s8)
    5e00:	00000000 	sll	zero,zero,0x0
    5e04:	00a32821 	addu	a1,a1,v1
    5e08:	3c030000 	lui	v1,0x0
    5e0c:	24a50078 	addiu	a1,a1,120
    5e10:	00052880 	sll	a1,a1,0x2
    5e14:	24636e30 	addiu	v1,v1,28208
    5e18:	00a31821 	addu	v1,a1,v1
    5e1c:	8c630000 	lw	v1,0(v1)
    5e20:	00000000 	sll	zero,zero,0x0
    5e24:	00831826 	xor	v1,a0,v1
    5e28:	ac430000 	sw	v1,0(v0)
    5e2c:	8fc20004 	lw	v0,4(s8)
    5e30:	00000000 	sll	zero,zero,0x0
    5e34:	00021040 	sll	v0,v0,0x1
    5e38:	24420001 	addiu	v0,v0,1
    5e3c:	000210c0 	sll	v0,v0,0x3
    5e40:	8fc30010 	lw	v1,16(s8)
    5e44:	00000000 	sll	zero,zero,0x0
    5e48:	00621021 	addu	v0,v1,v0
    5e4c:	8fc30004 	lw	v1,4(s8)
    5e50:	00000000 	sll	zero,zero,0x0
    5e54:	00031840 	sll	v1,v1,0x1
    5e58:	24630001 	addiu	v1,v1,1
    5e5c:	000318c0 	sll	v1,v1,0x3
    5e60:	8fc40010 	lw	a0,16(s8)
    5e64:	00000000 	sll	zero,zero,0x0
    5e68:	00831821 	addu	v1,a0,v1
    5e6c:	8c640000 	lw	a0,0(v1)
    5e70:	8fc50000 	lw	a1,0(s8)
    5e74:	8fc30018 	lw	v1,24(s8)
    5e78:	00000000 	sll	zero,zero,0x0
    5e7c:	00a30018 	mult	a1,v1
    5e80:	00002812 	mflo	a1
    5e84:	8fc30004 	lw	v1,4(s8)
    5e88:	00000000 	sll	zero,zero,0x0
    5e8c:	00a32821 	addu	a1,a1,v1
    5e90:	3c030000 	lui	v1,0x0
    5e94:	24a500f0 	addiu	a1,a1,240
    5e98:	00052880 	sll	a1,a1,0x2
    5e9c:	24636e30 	addiu	v1,v1,28208
    5ea0:	00a31821 	addu	v1,a1,v1
    5ea4:	8c630000 	lw	v1,0(v1)
    5ea8:	00000000 	sll	zero,zero,0x0
    5eac:	00831826 	xor	v1,a0,v1
    5eb0:	ac430000 	sw	v1,0(v0)
    5eb4:	8fc20004 	lw	v0,4(s8)
    5eb8:	00000000 	sll	zero,zero,0x0
    5ebc:	00021100 	sll	v0,v0,0x4
    5ec0:	2442000c 	addiu	v0,v0,12
    5ec4:	8fc30010 	lw	v1,16(s8)
    5ec8:	00000000 	sll	zero,zero,0x0
    5ecc:	00621021 	addu	v0,v1,v0
    5ed0:	8fc30004 	lw	v1,4(s8)
    5ed4:	00000000 	sll	zero,zero,0x0
    5ed8:	00031900 	sll	v1,v1,0x4
    5edc:	2463000c 	addiu	v1,v1,12
    5ee0:	8fc40010 	lw	a0,16(s8)
    5ee4:	00000000 	sll	zero,zero,0x0
    5ee8:	00831821 	addu	v1,a0,v1
    5eec:	8c640000 	lw	a0,0(v1)
    5ef0:	8fc50000 	lw	a1,0(s8)
    5ef4:	8fc30018 	lw	v1,24(s8)
    5ef8:	00000000 	sll	zero,zero,0x0
    5efc:	00a30018 	mult	a1,v1
    5f00:	00002812 	mflo	a1
    5f04:	8fc30004 	lw	v1,4(s8)
    5f08:	00000000 	sll	zero,zero,0x0
    5f0c:	00a32821 	addu	a1,a1,v1
    5f10:	3c030000 	lui	v1,0x0
    5f14:	24a50168 	addiu	a1,a1,360
    5f18:	00052880 	sll	a1,a1,0x2
    5f1c:	24636e30 	addiu	v1,v1,28208
    5f20:	00a31821 	addu	v1,a1,v1
    5f24:	8c630000 	lw	v1,0(v1)
    5f28:	00000000 	sll	zero,zero,0x0
    5f2c:	00831826 	xor	v1,a0,v1
    5f30:	ac430000 	sw	v1,0(v0)
    5f34:	8fc20004 	lw	v0,4(s8)
    5f38:	00000000 	sll	zero,zero,0x0
    5f3c:	24420001 	addiu	v0,v0,1
    5f40:	afc20004 	sw	v0,4(s8)
    5f44:	8fc30004 	lw	v1,4(s8)
    5f48:	8fc20000 	lw	v0,0(s8)
    5f4c:	00000000 	sll	zero,zero,0x0
    5f50:	0062102a 	slt	v0,v1,v0
    5f54:	1440ff76 	bnez	v0,0x5d30
    5f58:	00000000 	sll	zero,zero,0x0
    5f5c:	00001021 	addu	v0,zero,zero
    5f60:	03c0e821 	addu	sp,s8,zero
    5f64:	8fbe000c 	lw	s8,12(sp)
    5f68:	27bd0010 	addiu	sp,sp,16
    5f6c:	03e00008 	jr	ra
    5f70:	00000000 	sll	zero,zero,0x0
    5f74:	27bdffe8 	addiu	sp,sp,-24
    5f78:	afbf0014 	sw	ra,20(sp)
    5f7c:	afbe0010 	sw	s8,16(sp)
    5f80:	03a0f021 	addu	s8,sp,zero
    5f84:	3c020000 	lui	v0,0x0
    5f88:	24030032 	addiu	v1,zero,50
    5f8c:	ac436db0 	sw	v1,28080(v0)
    5f90:	3c020000 	lui	v0,0x0
    5f94:	24426db0 	addiu	v0,v0,28080
    5f98:	24030043 	addiu	v1,zero,67
    5f9c:	ac430004 	sw	v1,4(v0)
    5fa0:	3c020000 	lui	v0,0x0
    5fa4:	24426db0 	addiu	v0,v0,28080
    5fa8:	240300f6 	addiu	v1,zero,246
    5fac:	ac430008 	sw	v1,8(v0)
    5fb0:	3c020000 	lui	v0,0x0
    5fb4:	24426db0 	addiu	v0,v0,28080
    5fb8:	240300a8 	addiu	v1,zero,168
    5fbc:	ac43000c 	sw	v1,12(v0)
    5fc0:	3c020000 	lui	v0,0x0
    5fc4:	24426db0 	addiu	v0,v0,28080
    5fc8:	24030088 	addiu	v1,zero,136
    5fcc:	ac430010 	sw	v1,16(v0)
    5fd0:	3c020000 	lui	v0,0x0
    5fd4:	24426db0 	addiu	v0,v0,28080
    5fd8:	2403005a 	addiu	v1,zero,90
    5fdc:	ac430014 	sw	v1,20(v0)
    5fe0:	3c020000 	lui	v0,0x0
    5fe4:	24426db0 	addiu	v0,v0,28080
    5fe8:	24030030 	addiu	v1,zero,48
    5fec:	ac430018 	sw	v1,24(v0)
    5ff0:	3c020000 	lui	v0,0x0
    5ff4:	24426db0 	addiu	v0,v0,28080
    5ff8:	2403008d 	addiu	v1,zero,141
    5ffc:	ac43001c 	sw	v1,28(v0)
    6000:	3c020000 	lui	v0,0x0
    6004:	24426db0 	addiu	v0,v0,28080
    6008:	24030031 	addiu	v1,zero,49
    600c:	ac430020 	sw	v1,32(v0)
    6010:	3c020000 	lui	v0,0x0
    6014:	24426db0 	addiu	v0,v0,28080
    6018:	24030031 	addiu	v1,zero,49
    601c:	ac430024 	sw	v1,36(v0)
    6020:	3c020000 	lui	v0,0x0
    6024:	24426db0 	addiu	v0,v0,28080
    6028:	24030098 	addiu	v1,zero,152
    602c:	ac430028 	sw	v1,40(v0)
    6030:	3c020000 	lui	v0,0x0
    6034:	24426db0 	addiu	v0,v0,28080
    6038:	240300a2 	addiu	v1,zero,162
    603c:	ac43002c 	sw	v1,44(v0)
    6040:	3c020000 	lui	v0,0x0
    6044:	24426db0 	addiu	v0,v0,28080
    6048:	240300e0 	addiu	v1,zero,224
    604c:	ac430030 	sw	v1,48(v0)
    6050:	3c020000 	lui	v0,0x0
    6054:	24426db0 	addiu	v0,v0,28080
    6058:	24030037 	addiu	v1,zero,55
    605c:	ac430034 	sw	v1,52(v0)
    6060:	3c020000 	lui	v0,0x0
    6064:	24426db0 	addiu	v0,v0,28080
    6068:	24030007 	addiu	v1,zero,7
    606c:	ac430038 	sw	v1,56(v0)
    6070:	3c020000 	lui	v0,0x0
    6074:	24426db0 	addiu	v0,v0,28080
    6078:	24030034 	addiu	v1,zero,52
    607c:	ac43003c 	sw	v1,60(v0)
    6080:	3c020000 	lui	v0,0x0
    6084:	2403002b 	addiu	v1,zero,43
    6088:	ac436d30 	sw	v1,27952(v0)
    608c:	3c020000 	lui	v0,0x0
    6090:	24426d30 	addiu	v0,v0,27952
    6094:	2403007e 	addiu	v1,zero,126
    6098:	ac430004 	sw	v1,4(v0)
    609c:	3c020000 	lui	v0,0x0
    60a0:	24426d30 	addiu	v0,v0,27952
    60a4:	24030015 	addiu	v1,zero,21
    60a8:	ac430008 	sw	v1,8(v0)
    60ac:	3c020000 	lui	v0,0x0
    60b0:	24426d30 	addiu	v0,v0,27952
    60b4:	24030016 	addiu	v1,zero,22
    60b8:	ac43000c 	sw	v1,12(v0)
    60bc:	3c020000 	lui	v0,0x0
    60c0:	24426d30 	addiu	v0,v0,27952
    60c4:	24030028 	addiu	v1,zero,40
    60c8:	ac430010 	sw	v1,16(v0)
    60cc:	3c020000 	lui	v0,0x0
    60d0:	24426d30 	addiu	v0,v0,27952
    60d4:	240300ae 	addiu	v1,zero,174
    60d8:	ac430014 	sw	v1,20(v0)
    60dc:	3c020000 	lui	v0,0x0
    60e0:	24426d30 	addiu	v0,v0,27952
    60e4:	240300d2 	addiu	v1,zero,210
    60e8:	ac430018 	sw	v1,24(v0)
    60ec:	3c020000 	lui	v0,0x0
    60f0:	24426d30 	addiu	v0,v0,27952
    60f4:	240300a6 	addiu	v1,zero,166
    60f8:	ac43001c 	sw	v1,28(v0)
    60fc:	3c020000 	lui	v0,0x0
    6100:	24426d30 	addiu	v0,v0,27952
    6104:	240300ab 	addiu	v1,zero,171
    6108:	ac430020 	sw	v1,32(v0)
    610c:	3c020000 	lui	v0,0x0
    6110:	24426d30 	addiu	v0,v0,27952
    6114:	240300f7 	addiu	v1,zero,247
    6118:	ac430024 	sw	v1,36(v0)
    611c:	3c020000 	lui	v0,0x0
    6120:	24426d30 	addiu	v0,v0,27952
    6124:	24030015 	addiu	v1,zero,21
    6128:	ac430028 	sw	v1,40(v0)
    612c:	3c020000 	lui	v0,0x0
    6130:	24426d30 	addiu	v0,v0,27952
    6134:	24030088 	addiu	v1,zero,136
    6138:	ac43002c 	sw	v1,44(v0)
    613c:	3c020000 	lui	v0,0x0
    6140:	24426d30 	addiu	v0,v0,27952
    6144:	24030009 	addiu	v1,zero,9
    6148:	ac430030 	sw	v1,48(v0)
    614c:	3c020000 	lui	v0,0x0
    6150:	24426d30 	addiu	v0,v0,27952
    6154:	240300cf 	addiu	v1,zero,207
    6158:	ac430034 	sw	v1,52(v0)
    615c:	3c020000 	lui	v0,0x0
    6160:	24426d30 	addiu	v0,v0,27952
    6164:	2403004f 	addiu	v1,zero,79
    6168:	ac430038 	sw	v1,56(v0)
    616c:	3c020000 	lui	v0,0x0
    6170:	24426d30 	addiu	v0,v0,27952
    6174:	2403003c 	addiu	v1,zero,60
    6178:	ac43003c 	sw	v1,60(v0)
    617c:	3c020000 	lui	v0,0x0
    6180:	24446db0 	addiu	a0,v0,28080
    6184:	3c020000 	lui	v0,0x0
    6188:	24456d30 	addiu	a1,v0,27952
    618c:	3c020001 	lui	v0,0x1
    6190:	3446f480 	ori	a2,v0,0xf480
    6194:	0c000060 	jal	0x180
    6198:	00000000 	sll	zero,zero,0x0
    619c:	3c020000 	lui	v0,0x0
    61a0:	24446db0 	addiu	a0,v0,28080
    61a4:	3c020000 	lui	v0,0x0
    61a8:	24456d30 	addiu	a1,v0,27952
    61ac:	3c020001 	lui	v0,0x1
    61b0:	3446f480 	ori	a2,v0,0xf480
    61b4:	0c000133 	jal	0x4cc
    61b8:	00000000 	sll	zero,zero,0x0
    61bc:	00001021 	addu	v0,zero,zero
    61c0:	03c0e821 	addu	sp,s8,zero
    61c4:	8fbf0014 	lw	ra,20(sp)
    61c8:	8fbe0010 	lw	s8,16(sp)
    61cc:	27bd0018 	addiu	sp,sp,24
    61d0:	03e00008 	jr	ra
    61d4:	00000000 	sll	zero,zero,0x0
    61d8:	27bdffe8 	addiu	sp,sp,-24
    61dc:	afbf0014 	sw	ra,20(sp)
    61e0:	afbe0010 	sw	s8,16(sp)
    61e4:	03a0f021 	addu	s8,sp,zero
    61e8:	3c020000 	lui	v0,0x0
    61ec:	ac406b28 	sw	zero,27432(v0)
    61f0:	0c0017dd 	jal	0x5f74
    61f4:	00000000 	sll	zero,zero,0x0
    61f8:	3c020000 	lui	v0,0x0
    61fc:	8c426b28 	lw	v0,27432(v0)
    6200:	03c0e821 	addu	sp,s8,zero
    6204:	8fbf0014 	lw	ra,20(sp)
    6208:	8fbe0010 	lw	s8,16(sp)
    620c:	27bd0018 	addiu	sp,sp,24
    6210:	03e00008 	jr	ra
    6214:	00000000 	sll	zero,zero,0x0
	...

Disassembly of section .rodata:

00006220 <.rodata>:
    6220:	00000001 	0x1
    6224:	00000002 	srl	zero,zero,0x0
    6228:	00000004 	sllv	zero,zero,zero
    622c:	00000008 	jr	zero
    6230:	00000010 	mfhi	zero
    6234:	00000020 	add	zero,zero,zero
    6238:	00000040 	sll	zero,zero,0x1
    623c:	00000080 	sll	zero,zero,0x2
    6240:	0000001b 	divu	zero,zero,zero
    6244:	00000036 	0x36
    6248:	0000006c 	0x6c
    624c:	000000d8 	0xd8
    6250:	000000ab 	0xab
    6254:	0000004d 	break	0x0,0x1
    6258:	0000009a 	0x9a
    625c:	0000002f 	0x2f
    6260:	0000005e 	0x5e
    6264:	000000bc 	0xbc
    6268:	00000063 	0x63
    626c:	000000c6 	0xc6
    6270:	00000097 	0x97
    6274:	00000035 	0x35
    6278:	0000006a 	0x6a
    627c:	000000d4 	0xd4
    6280:	000000b3 	0xb3
    6284:	0000007d 	0x7d
    6288:	000000fa 	0xfa
    628c:	000000ef 	0xef
    6290:	000000c5 	0xc5
    6294:	00000091 	0x91
    6298:	00000063 	0x63
    629c:	0000007c 	0x7c
    62a0:	00000077 	0x77
    62a4:	0000007b 	0x7b
    62a8:	000000f2 	0xf2
    62ac:	0000006b 	0x6b
    62b0:	0000006f 	0x6f
    62b4:	000000c5 	0xc5
    62b8:	00000030 	0x30
    62bc:	00000001 	0x1
    62c0:	00000067 	0x67
    62c4:	0000002b 	sltu	zero,zero,zero
    62c8:	000000fe 	0xfe
    62cc:	000000d7 	0xd7
    62d0:	000000ab 	0xab
    62d4:	00000076 	0x76
    62d8:	000000ca 	0xca
    62dc:	00000082 	srl	zero,zero,0x2
    62e0:	000000c9 	0xc9
    62e4:	0000007d 	0x7d
    62e8:	000000fa 	0xfa
    62ec:	00000059 	0x59
    62f0:	00000047 	0x47
    62f4:	000000f0 	0xf0
    62f8:	000000ad 	0xad
    62fc:	000000d4 	0xd4
    6300:	000000a2 	0xa2
    6304:	000000af 	0xaf
    6308:	0000009c 	0x9c
    630c:	000000a4 	0xa4
    6310:	00000072 	0x72
    6314:	000000c0 	sll	zero,zero,0x3
    6318:	000000b7 	0xb7
    631c:	000000fd 	0xfd
    6320:	00000093 	0x93
    6324:	00000026 	xor	zero,zero,zero
    6328:	00000036 	0x36
    632c:	0000003f 	0x3f
    6330:	000000f7 	0xf7
    6334:	000000cc 	syscall	0x3
    6338:	00000034 	0x34
    633c:	000000a5 	0xa5
    6340:	000000e5 	0xe5
    6344:	000000f1 	0xf1
    6348:	00000071 	0x71
    634c:	000000d8 	0xd8
    6350:	00000031 	0x31
    6354:	00000015 	0x15
    6358:	00000004 	sllv	zero,zero,zero
    635c:	000000c7 	0xc7
    6360:	00000023 	negu	zero,zero
    6364:	000000c3 	sra	zero,zero,0x3
    6368:	00000018 	mult	zero,zero
    636c:	00000096 	0x96
    6370:	00000005 	0x5
    6374:	0000009a 	0x9a
    6378:	00000007 	srav	zero,zero,zero
    637c:	00000012 	mflo	zero
    6380:	00000080 	sll	zero,zero,0x2
    6384:	000000e2 	0xe2
    6388:	000000eb 	0xeb
    638c:	00000027 	nor	zero,zero,zero
    6390:	000000b2 	0xb2
    6394:	00000075 	0x75
    6398:	00000009 	jalr	zero,zero
    639c:	00000083 	sra	zero,zero,0x2
    63a0:	0000002c 	0x2c
    63a4:	0000001a 	div	zero,zero,zero
    63a8:	0000001b 	divu	zero,zero,zero
    63ac:	0000006e 	0x6e
    63b0:	0000005a 	0x5a
    63b4:	000000a0 	0xa0
    63b8:	00000052 	0x52
    63bc:	0000003b 	0x3b
    63c0:	000000d6 	0xd6
    63c4:	000000b3 	0xb3
    63c8:	00000029 	0x29
    63cc:	000000e3 	0xe3
    63d0:	0000002f 	0x2f
    63d4:	00000084 	0x84
    63d8:	00000053 	0x53
    63dc:	000000d1 	0xd1
    63e0:	00000000 	sll	zero,zero,0x0
    63e4:	000000ed 	0xed
    63e8:	00000020 	add	zero,zero,zero
    63ec:	000000fc 	0xfc
    63f0:	000000b1 	0xb1
    63f4:	0000005b 	0x5b
    63f8:	0000006a 	0x6a
    63fc:	000000cb 	0xcb
    6400:	000000be 	0xbe
    6404:	00000039 	0x39
    6408:	0000004a 	0x4a
    640c:	0000004c 	syscall	0x1
    6410:	00000058 	0x58
    6414:	000000cf 	0xcf
    6418:	000000d0 	0xd0
    641c:	000000ef 	0xef
    6420:	000000aa 	0xaa
    6424:	000000fb 	0xfb
    6428:	00000043 	sra	zero,zero,0x1
    642c:	0000004d 	break	0x0,0x1
    6430:	00000033 	0x33
    6434:	00000085 	0x85
    6438:	00000045 	0x45
    643c:	000000f9 	0xf9
    6440:	00000002 	srl	zero,zero,0x0
    6444:	0000007f 	0x7f
    6448:	00000050 	0x50
    644c:	0000003c 	0x3c
    6450:	0000009f 	0x9f
    6454:	000000a8 	0xa8
    6458:	00000051 	0x51
    645c:	000000a3 	0xa3
    6460:	00000040 	sll	zero,zero,0x1
    6464:	0000008f 	0x8f
    6468:	00000092 	0x92
    646c:	0000009d 	0x9d
    6470:	00000038 	0x38
    6474:	000000f5 	0xf5
    6478:	000000bc 	0xbc
    647c:	000000b6 	0xb6
    6480:	000000da 	0xda
    6484:	00000021 	addu	zero,zero,zero
    6488:	00000010 	mfhi	zero
    648c:	000000ff 	0xff
    6490:	000000f3 	0xf3
    6494:	000000d2 	0xd2
    6498:	000000cd 	break	0x0,0x3
    649c:	0000000c 	syscall
    64a0:	00000013 	mtlo	zero
    64a4:	000000ec 	0xec
    64a8:	0000005f 	0x5f
    64ac:	00000097 	0x97
    64b0:	00000044 	0x44
    64b4:	00000017 	0x17
    64b8:	000000c4 	0xc4
    64bc:	000000a7 	0xa7
    64c0:	0000007e 	0x7e
    64c4:	0000003d 	0x3d
    64c8:	00000064 	0x64
    64cc:	0000005d 	0x5d
    64d0:	00000019 	multu	zero,zero
    64d4:	00000073 	0x73
    64d8:	00000060 	0x60
    64dc:	00000081 	0x81
    64e0:	0000004f 	0x4f
    64e4:	000000dc 	0xdc
    64e8:	00000022 	neg	zero,zero
    64ec:	0000002a 	slt	zero,zero,zero
    64f0:	00000090 	0x90
    64f4:	00000088 	0x88
    64f8:	00000046 	0x46
    64fc:	000000ee 	0xee
    6500:	000000b8 	0xb8
    6504:	00000014 	0x14
    6508:	000000de 	0xde
    650c:	0000005e 	0x5e
    6510:	0000000b 	0xb
    6514:	000000db 	0xdb
    6518:	000000e0 	0xe0
    651c:	00000032 	0x32
    6520:	0000003a 	0x3a
    6524:	0000000a 	0xa
    6528:	00000049 	0x49
    652c:	00000006 	srlv	zero,zero,zero
    6530:	00000024 	and	zero,zero,zero
    6534:	0000005c 	0x5c
    6538:	000000c2 	srl	zero,zero,0x3
    653c:	000000d3 	0xd3
    6540:	000000ac 	0xac
    6544:	00000062 	0x62
    6548:	00000091 	0x91
    654c:	00000095 	0x95
    6550:	000000e4 	0xe4
    6554:	00000079 	0x79
    6558:	000000e7 	0xe7
    655c:	000000c8 	0xc8
    6560:	00000037 	0x37
    6564:	0000006d 	0x6d
    6568:	0000008d 	break	0x0,0x2
    656c:	000000d5 	0xd5
    6570:	0000004e 	0x4e
    6574:	000000a9 	0xa9
    6578:	0000006c 	0x6c
    657c:	00000056 	0x56
    6580:	000000f4 	0xf4
    6584:	000000ea 	0xea
    6588:	00000065 	0x65
    658c:	0000007a 	0x7a
    6590:	000000ae 	0xae
    6594:	00000008 	jr	zero
    6598:	000000ba 	0xba
    659c:	00000078 	0x78
    65a0:	00000025 	or	zero,zero,zero
    65a4:	0000002e 	0x2e
    65a8:	0000001c 	0x1c
    65ac:	000000a6 	0xa6
    65b0:	000000b4 	0xb4
    65b4:	000000c6 	0xc6
    65b8:	000000e8 	0xe8
    65bc:	000000dd 	0xdd
    65c0:	00000074 	0x74
    65c4:	0000001f 	0x1f
    65c8:	0000004b 	0x4b
    65cc:	000000bd 	0xbd
    65d0:	0000008b 	0x8b
    65d4:	0000008a 	0x8a
    65d8:	00000070 	0x70
    65dc:	0000003e 	0x3e
    65e0:	000000b5 	0xb5
    65e4:	00000066 	0x66
    65e8:	00000048 	0x48
    65ec:	00000003 	sra	zero,zero,0x0
    65f0:	000000f6 	0xf6
    65f4:	0000000e 	0xe
    65f8:	00000061 	0x61
    65fc:	00000035 	0x35
    6600:	00000057 	0x57
    6604:	000000b9 	0xb9
    6608:	00000086 	0x86
    660c:	000000c1 	0xc1
    6610:	0000001d 	0x1d
    6614:	0000009e 	0x9e
    6618:	000000e1 	0xe1
    661c:	000000f8 	0xf8
    6620:	00000098 	0x98
    6624:	00000011 	mthi	zero
    6628:	00000069 	0x69
    662c:	000000d9 	0xd9
    6630:	0000008e 	0x8e
    6634:	00000094 	0x94
    6638:	0000009b 	0x9b
    663c:	0000001e 	0x1e
    6640:	00000087 	0x87
    6644:	000000e9 	0xe9
    6648:	000000ce 	0xce
    664c:	00000055 	0x55
    6650:	00000028 	0x28
    6654:	000000df 	0xdf
    6658:	0000008c 	syscall	0x2
    665c:	000000a1 	0xa1
    6660:	00000089 	0x89
    6664:	0000000d 	break
    6668:	000000bf 	0xbf
    666c:	000000e6 	0xe6
    6670:	00000042 	srl	zero,zero,0x1
    6674:	00000068 	0x68
    6678:	00000041 	0x41
    667c:	00000099 	0x99
    6680:	0000002d 	0x2d
    6684:	0000000f 	0xf
    6688:	000000b0 	0xb0
    668c:	00000054 	0x54
    6690:	000000bb 	0xbb
    6694:	00000016 	0x16
    6698:	00000052 	0x52
    669c:	00000009 	jalr	zero,zero
    66a0:	0000006a 	0x6a
    66a4:	000000d5 	0xd5
    66a8:	00000030 	0x30
    66ac:	00000036 	0x36
    66b0:	000000a5 	0xa5
    66b4:	00000038 	0x38
    66b8:	000000bf 	0xbf
    66bc:	00000040 	sll	zero,zero,0x1
    66c0:	000000a3 	0xa3
    66c4:	0000009e 	0x9e
    66c8:	00000081 	0x81
    66cc:	000000f3 	0xf3
    66d0:	000000d7 	0xd7
    66d4:	000000fb 	0xfb
    66d8:	0000007c 	0x7c
    66dc:	000000e3 	0xe3
    66e0:	00000039 	0x39
    66e4:	00000082 	srl	zero,zero,0x2
    66e8:	0000009b 	0x9b
    66ec:	0000002f 	0x2f
    66f0:	000000ff 	0xff
    66f4:	00000087 	0x87
    66f8:	00000034 	0x34
    66fc:	0000008e 	0x8e
    6700:	00000043 	sra	zero,zero,0x1
    6704:	00000044 	0x44
    6708:	000000c4 	0xc4
    670c:	000000de 	0xde
    6710:	000000e9 	0xe9
    6714:	000000cb 	0xcb
    6718:	00000054 	0x54
    671c:	0000007b 	0x7b
    6720:	00000094 	0x94
    6724:	00000032 	0x32
    6728:	000000a6 	0xa6
    672c:	000000c2 	srl	zero,zero,0x3
    6730:	00000023 	negu	zero,zero
    6734:	0000003d 	0x3d
    6738:	000000ee 	0xee
    673c:	0000004c 	syscall	0x1
    6740:	00000095 	0x95
    6744:	0000000b 	0xb
    6748:	00000042 	srl	zero,zero,0x1
    674c:	000000fa 	0xfa
    6750:	000000c3 	sra	zero,zero,0x3
    6754:	0000004e 	0x4e
    6758:	00000008 	jr	zero
    675c:	0000002e 	0x2e
    6760:	000000a1 	0xa1
    6764:	00000066 	0x66
    6768:	00000028 	0x28
    676c:	000000d9 	0xd9
    6770:	00000024 	and	zero,zero,zero
    6774:	000000b2 	0xb2
    6778:	00000076 	0x76
    677c:	0000005b 	0x5b
    6780:	000000a2 	0xa2
    6784:	00000049 	0x49
    6788:	0000006d 	0x6d
    678c:	0000008b 	0x8b
    6790:	000000d1 	0xd1
    6794:	00000025 	or	zero,zero,zero
    6798:	00000072 	0x72
    679c:	000000f8 	0xf8
    67a0:	000000f6 	0xf6
    67a4:	00000064 	0x64
    67a8:	00000086 	0x86
    67ac:	00000068 	0x68
    67b0:	00000098 	0x98
    67b4:	00000016 	0x16
    67b8:	000000d4 	0xd4
    67bc:	000000a4 	0xa4
    67c0:	0000005c 	0x5c
    67c4:	000000cc 	syscall	0x3
    67c8:	0000005d 	0x5d
    67cc:	00000065 	0x65
    67d0:	000000b6 	0xb6
    67d4:	00000092 	0x92
    67d8:	0000006c 	0x6c
    67dc:	00000070 	0x70
    67e0:	00000048 	0x48
    67e4:	00000050 	0x50
    67e8:	000000fd 	0xfd
    67ec:	000000ed 	0xed
    67f0:	000000b9 	0xb9
    67f4:	000000da 	0xda
    67f8:	0000005e 	0x5e
    67fc:	00000015 	0x15
    6800:	00000046 	0x46
    6804:	00000057 	0x57
    6808:	000000a7 	0xa7
    680c:	0000008d 	break	0x0,0x2
    6810:	0000009d 	0x9d
    6814:	00000084 	0x84
    6818:	00000090 	0x90
    681c:	000000d8 	0xd8
    6820:	000000ab 	0xab
    6824:	00000000 	sll	zero,zero,0x0
    6828:	0000008c 	syscall	0x2
    682c:	000000bc 	0xbc
    6830:	000000d3 	0xd3
    6834:	0000000a 	0xa
    6838:	000000f7 	0xf7
    683c:	000000e4 	0xe4
    6840:	00000058 	0x58
    6844:	00000005 	0x5
    6848:	000000b8 	0xb8
    684c:	000000b3 	0xb3
    6850:	00000045 	0x45
    6854:	00000006 	srlv	zero,zero,zero
    6858:	000000d0 	0xd0
    685c:	0000002c 	0x2c
    6860:	0000001e 	0x1e
    6864:	0000008f 	0x8f
    6868:	000000ca 	0xca
    686c:	0000003f 	0x3f
    6870:	0000000f 	0xf
    6874:	00000002 	srl	zero,zero,0x0
    6878:	000000c1 	0xc1
    687c:	000000af 	0xaf
    6880:	000000bd 	0xbd
    6884:	00000003 	sra	zero,zero,0x0
    6888:	00000001 	0x1
    688c:	00000013 	mtlo	zero
    6890:	0000008a 	0x8a
    6894:	0000006b 	0x6b
    6898:	0000003a 	0x3a
    689c:	00000091 	0x91
    68a0:	00000011 	mthi	zero
    68a4:	00000041 	0x41
    68a8:	0000004f 	0x4f
    68ac:	00000067 	0x67
    68b0:	000000dc 	0xdc
    68b4:	000000ea 	0xea
    68b8:	00000097 	0x97
    68bc:	000000f2 	0xf2
    68c0:	000000cf 	0xcf
    68c4:	000000ce 	0xce
    68c8:	000000f0 	0xf0
    68cc:	000000b4 	0xb4
    68d0:	000000e6 	0xe6
    68d4:	00000073 	0x73
    68d8:	00000096 	0x96
    68dc:	000000ac 	0xac
    68e0:	00000074 	0x74
    68e4:	00000022 	neg	zero,zero
    68e8:	000000e7 	0xe7
    68ec:	000000ad 	0xad
    68f0:	00000035 	0x35
    68f4:	00000085 	0x85
    68f8:	000000e2 	0xe2
    68fc:	000000f9 	0xf9
    6900:	00000037 	0x37
    6904:	000000e8 	0xe8
    6908:	0000001c 	0x1c
    690c:	00000075 	0x75
    6910:	000000df 	0xdf
    6914:	0000006e 	0x6e
    6918:	00000047 	0x47
    691c:	000000f1 	0xf1
    6920:	0000001a 	div	zero,zero,zero
    6924:	00000071 	0x71
    6928:	0000001d 	0x1d
    692c:	00000029 	0x29
    6930:	000000c5 	0xc5
    6934:	00000089 	0x89
    6938:	0000006f 	0x6f
    693c:	000000b7 	0xb7
    6940:	00000062 	0x62
    6944:	0000000e 	0xe
    6948:	000000aa 	0xaa
    694c:	00000018 	mult	zero,zero
    6950:	000000be 	0xbe
    6954:	0000001b 	divu	zero,zero,zero
    6958:	000000fc 	0xfc
    695c:	00000056 	0x56
    6960:	0000003e 	0x3e
    6964:	0000004b 	0x4b
    6968:	000000c6 	0xc6
    696c:	000000d2 	0xd2
    6970:	00000079 	0x79
    6974:	00000020 	add	zero,zero,zero
    6978:	0000009a 	0x9a
    697c:	000000db 	0xdb
    6980:	000000c0 	sll	zero,zero,0x3
    6984:	000000fe 	0xfe
    6988:	00000078 	0x78
    698c:	000000cd 	break	0x0,0x3
    6990:	0000005a 	0x5a
    6994:	000000f4 	0xf4
    6998:	0000001f 	0x1f
    699c:	000000dd 	0xdd
    69a0:	000000a8 	0xa8
    69a4:	00000033 	0x33
    69a8:	00000088 	0x88
    69ac:	00000007 	srav	zero,zero,zero
    69b0:	000000c7 	0xc7
    69b4:	00000031 	0x31
    69b8:	000000b1 	0xb1
    69bc:	00000012 	mflo	zero
    69c0:	00000010 	mfhi	zero
    69c4:	00000059 	0x59
    69c8:	00000027 	nor	zero,zero,zero
    69cc:	00000080 	sll	zero,zero,0x2
    69d0:	000000ec 	0xec
    69d4:	0000005f 	0x5f
    69d8:	00000060 	0x60
    69dc:	00000051 	0x51
    69e0:	0000007f 	0x7f
    69e4:	000000a9 	0xa9
    69e8:	00000019 	multu	zero,zero
    69ec:	000000b5 	0xb5
    69f0:	0000004a 	0x4a
    69f4:	0000000d 	break
    69f8:	0000002d 	0x2d
    69fc:	000000e5 	0xe5
    6a00:	0000007a 	0x7a
    6a04:	0000009f 	0x9f
    6a08:	00000093 	0x93
    6a0c:	000000c9 	0xc9
    6a10:	0000009c 	0x9c
    6a14:	000000ef 	0xef
    6a18:	000000a0 	0xa0
    6a1c:	000000e0 	0xe0
    6a20:	0000003b 	0x3b
    6a24:	0000004d 	break	0x0,0x1
    6a28:	000000ae 	0xae
    6a2c:	0000002a 	slt	zero,zero,zero
    6a30:	000000f5 	0xf5
    6a34:	000000b0 	0xb0
    6a38:	000000c8 	0xc8
    6a3c:	000000eb 	0xeb
    6a40:	000000bb 	0xbb
    6a44:	0000003c 	0x3c
    6a48:	00000083 	sra	zero,zero,0x2
    6a4c:	00000053 	0x53
    6a50:	00000099 	0x99
    6a54:	00000061 	0x61
    6a58:	00000017 	0x17
    6a5c:	0000002b 	sltu	zero,zero,zero
    6a60:	00000004 	sllv	zero,zero,zero
    6a64:	0000007e 	0x7e
    6a68:	000000ba 	0xba
    6a6c:	00000077 	0x77
    6a70:	000000d6 	0xd6
    6a74:	00000026 	xor	zero,zero,zero
    6a78:	000000e1 	0xe1
    6a7c:	00000069 	0x69
    6a80:	00000014 	0x14
    6a84:	00000063 	0x63
    6a88:	00000055 	0x55
    6a8c:	00000021 	addu	zero,zero,zero
    6a90:	0000000c 	syscall
    6a94:	0000007d 	0x7d
    6a98:	00000032 	0x32
    6a9c:	00000043 	sra	zero,zero,0x1
    6aa0:	000000f6 	0xf6
    6aa4:	000000a8 	0xa8
    6aa8:	00000088 	0x88
    6aac:	0000005a 	0x5a
    6ab0:	00000030 	0x30
    6ab4:	0000008d 	break	0x0,0x2
    6ab8:	00000031 	0x31
    6abc:	00000031 	0x31
    6ac0:	00000098 	0x98
    6ac4:	000000a2 	0xa2
    6ac8:	000000e0 	0xe0
    6acc:	00000037 	0x37
    6ad0:	00000007 	srav	zero,zero,zero
    6ad4:	00000034 	0x34
    6ad8:	00000039 	0x39
    6adc:	00000025 	or	zero,zero,zero
    6ae0:	00000084 	0x84
    6ae4:	0000001d 	0x1d
    6ae8:	00000002 	srl	zero,zero,0x0
    6aec:	000000dc 	0xdc
    6af0:	00000009 	jalr	zero,zero
    6af4:	000000fb 	0xfb
    6af8:	000000dc 	0xdc
    6afc:	00000011 	mthi	zero
    6b00:	00000085 	0x85
    6b04:	00000097 	0x97
    6b08:	00000019 	multu	zero,zero
    6b0c:	0000006a 	0x6a
    6b10:	0000000b 	0xb
    6b14:	00000032 	0x32
	...

Disassembly of section .bss:

00006b30 <.bss>:
	...
