
gsm.elf:     file format elf32-tradbigmips


Disassembly of section .text:

00000000 <.text>:
       0:	0c0007ad 	jal	0x1eb4
       4:	00000000 	sll	zero,zero,0x0
       8:	08000002 	j	0x8
       c:	00000000 	sll	zero,zero,0x0
      10:	27bdfff0 	addiu	sp,sp,-16
      14:	afbe000c 	sw	s8,12(sp)
      18:	03a0f021 	addu	s8,sp,zero
      1c:	00801821 	addu	v1,a0,zero
      20:	00a01021 	addu	v0,a1,zero
      24:	a7c30010 	sh	v1,16(s8)
      28:	a7c20014 	sh	v0,20(s8)
      2c:	87c30010 	lh	v1,16(s8)
      30:	87c20014 	lh	v0,20(s8)
      34:	00000000 	sll	zero,zero,0x0
      38:	00621021 	addu	v0,v1,v0
      3c:	afc20000 	sw	v0,0(s8)
      40:	8fc20000 	lw	v0,0(s8)
      44:	00000000 	sll	zero,zero,0x0
      48:	28428000 	slti	v0,v0,-32768
      4c:	1440000b 	bnez	v0,0x7c
      50:	00000000 	sll	zero,zero,0x0
      54:	8fc20000 	lw	v0,0(s8)
      58:	34038000 	ori	v1,zero,0x8000
      5c:	0043182a 	slt	v1,v0,v1
      60:	14600002 	bnez	v1,0x6c
      64:	00000000 	sll	zero,zero,0x0
      68:	24027fff 	addiu	v0,zero,32767
      6c:	00021400 	sll	v0,v0,0x10
      70:	00021403 	sra	v0,v0,0x10
      74:	08000020 	j	0x80
      78:	00000000 	sll	zero,zero,0x0
      7c:	24028000 	addiu	v0,zero,-32768
      80:	03c0e821 	addu	sp,s8,zero
      84:	8fbe000c 	lw	s8,12(sp)
      88:	27bd0010 	addiu	sp,sp,16
      8c:	03e00008 	jr	ra
      90:	00000000 	sll	zero,zero,0x0
      94:	27bdfff8 	addiu	sp,sp,-8
      98:	afbe0004 	sw	s8,4(sp)
      9c:	03a0f021 	addu	s8,sp,zero
      a0:	00801821 	addu	v1,a0,zero
      a4:	00a01021 	addu	v0,a1,zero
      a8:	a7c30008 	sh	v1,8(s8)
      ac:	a7c2000c 	sh	v0,12(s8)
      b0:	87c30008 	lh	v1,8(s8)
      b4:	24028000 	addiu	v0,zero,-32768
      b8:	14620008 	bne	v1,v0,0xdc
      bc:	00000000 	sll	zero,zero,0x0
      c0:	87c3000c 	lh	v1,12(s8)
      c4:	24028000 	addiu	v0,zero,-32768
      c8:	14620004 	bne	v1,v0,0xdc
      cc:	00000000 	sll	zero,zero,0x0
      d0:	24027fff 	addiu	v0,zero,32767
      d4:	0800003f 	j	0xfc
      d8:	00000000 	sll	zero,zero,0x0
      dc:	87c30008 	lh	v1,8(s8)
      e0:	87c2000c 	lh	v0,12(s8)
      e4:	00000000 	sll	zero,zero,0x0
      e8:	00620018 	mult	v1,v0
      ec:	00001012 	mflo	v0
      f0:	000213c3 	sra	v0,v0,0xf
      f4:	00021400 	sll	v0,v0,0x10
      f8:	00021403 	sra	v0,v0,0x10
      fc:	03c0e821 	addu	sp,s8,zero
     100:	8fbe0004 	lw	s8,4(sp)
     104:	27bd0008 	addiu	sp,sp,8
     108:	03e00008 	jr	ra
     10c:	00000000 	sll	zero,zero,0x0
     110:	27bdfff0 	addiu	sp,sp,-16
     114:	afbe000c 	sw	s8,12(sp)
     118:	03a0f021 	addu	s8,sp,zero
     11c:	00801821 	addu	v1,a0,zero
     120:	00a01021 	addu	v0,a1,zero
     124:	a7c30010 	sh	v1,16(s8)
     128:	a7c20014 	sh	v0,20(s8)
     12c:	87c30014 	lh	v1,20(s8)
     130:	24028000 	addiu	v0,zero,-32768
     134:	14620008 	bne	v1,v0,0x158
     138:	00000000 	sll	zero,zero,0x0
     13c:	87c30010 	lh	v1,16(s8)
     140:	24028000 	addiu	v0,zero,-32768
     144:	14620004 	bne	v1,v0,0x158
     148:	00000000 	sll	zero,zero,0x0
     14c:	24027fff 	addiu	v0,zero,32767
     150:	08000065 	j	0x194
     154:	00000000 	sll	zero,zero,0x0
     158:	87c30010 	lh	v1,16(s8)
     15c:	87c20014 	lh	v0,20(s8)
     160:	00000000 	sll	zero,zero,0x0
     164:	00620018 	mult	v1,v0
     168:	00001012 	mflo	v0
     16c:	24424000 	addiu	v0,v0,16384
     170:	afc20000 	sw	v0,0(s8)
     174:	8fc20000 	lw	v0,0(s8)
     178:	00000000 	sll	zero,zero,0x0
     17c:	000213c3 	sra	v0,v0,0xf
     180:	afc20000 	sw	v0,0(s8)
     184:	8fc20000 	lw	v0,0(s8)
     188:	00000000 	sll	zero,zero,0x0
     18c:	00021400 	sll	v0,v0,0x10
     190:	00021403 	sra	v0,v0,0x10
     194:	03c0e821 	addu	sp,s8,zero
     198:	8fbe000c 	lw	s8,12(sp)
     19c:	27bd0010 	addiu	sp,sp,16
     1a0:	03e00008 	jr	ra
     1a4:	00000000 	sll	zero,zero,0x0
     1a8:	27bdfff8 	addiu	sp,sp,-8
     1ac:	afbe0004 	sw	s8,4(sp)
     1b0:	03a0f021 	addu	s8,sp,zero
     1b4:	00801021 	addu	v0,a0,zero
     1b8:	a7c20008 	sh	v0,8(s8)
     1bc:	87c20008 	lh	v0,8(s8)
     1c0:	00000000 	sll	zero,zero,0x0
     1c4:	0441000f 	bgez	v0,0x204
     1c8:	00000000 	sll	zero,zero,0x0
     1cc:	87c30008 	lh	v1,8(s8)
     1d0:	24028000 	addiu	v0,zero,-32768
     1d4:	10620008 	beq	v1,v0,0x1f8
     1d8:	00000000 	sll	zero,zero,0x0
     1dc:	97c20008 	lhu	v0,8(s8)
     1e0:	00000000 	sll	zero,zero,0x0
     1e4:	00021023 	negu	v0,v0
     1e8:	00021400 	sll	v0,v0,0x10
     1ec:	00021403 	sra	v0,v0,0x10
     1f0:	0800007f 	j	0x1fc
     1f4:	00000000 	sll	zero,zero,0x0
     1f8:	24027fff 	addiu	v0,zero,32767
     1fc:	08000082 	j	0x208
     200:	00000000 	sll	zero,zero,0x0
     204:	87c20008 	lh	v0,8(s8)
     208:	03c0e821 	addu	sp,s8,zero
     20c:	8fbe0004 	lw	s8,4(sp)
     210:	27bd0008 	addiu	sp,sp,8
     214:	03e00008 	jr	ra
     218:	00000000 	sll	zero,zero,0x0
     21c:	27bdfff8 	addiu	sp,sp,-8
     220:	afbe0004 	sw	s8,4(sp)
     224:	03a0f021 	addu	s8,sp,zero
     228:	afc40008 	sw	a0,8(s8)
     22c:	8fc20008 	lw	v0,8(s8)
     230:	00000000 	sll	zero,zero,0x0
     234:	0441000e 	bgez	v0,0x270
     238:	00000000 	sll	zero,zero,0x0
     23c:	8fc30008 	lw	v1,8(s8)
     240:	3c02c000 	lui	v0,0xc000
     244:	34420001 	ori	v0,v0,0x1
     248:	0062102a 	slt	v0,v1,v0
     24c:	10400004 	beqz	v0,0x260
     250:	00000000 	sll	zero,zero,0x0
     254:	00001021 	addu	v0,zero,zero
     258:	080000e4 	j	0x390
     25c:	00000000 	sll	zero,zero,0x0
     260:	8fc20008 	lw	v0,8(s8)
     264:	00000000 	sll	zero,zero,0x0
     268:	00021027 	nor	v0,zero,v0
     26c:	afc20008 	sw	v0,8(s8)
     270:	8fc30008 	lw	v1,8(s8)
     274:	3c02ffff 	lui	v0,0xffff
     278:	00621024 	and	v0,v1,v0
     27c:	10400024 	beqz	v0,0x310
     280:	00000000 	sll	zero,zero,0x0
     284:	8fc30008 	lw	v1,8(s8)
     288:	3c02ff00 	lui	v0,0xff00
     28c:	00621024 	and	v0,v1,v0
     290:	10400010 	beqz	v0,0x2d4
     294:	00000000 	sll	zero,zero,0x0
     298:	8fc20008 	lw	v0,8(s8)
     29c:	00000000 	sll	zero,zero,0x0
     2a0:	00021602 	srl	v0,v0,0x18
     2a4:	00401821 	addu	v1,v0,zero
     2a8:	3c020000 	lui	v0,0x0
     2ac:	24422050 	addiu	v0,v0,8272
     2b0:	00621021 	addu	v0,v1,v0
     2b4:	90420000 	lbu	v0,0(v0)
     2b8:	00000000 	sll	zero,zero,0x0
     2bc:	2442ffff 	addiu	v0,v0,-1
     2c0:	3042ffff 	andi	v0,v0,0xffff
     2c4:	00021400 	sll	v0,v0,0x10
     2c8:	00021403 	sra	v0,v0,0x10
     2cc:	080000c2 	j	0x308
     2d0:	00000000 	sll	zero,zero,0x0
     2d4:	8fc20008 	lw	v0,8(s8)
     2d8:	00000000 	sll	zero,zero,0x0
     2dc:	00021403 	sra	v0,v0,0x10
     2e0:	304300ff 	andi	v1,v0,0xff
     2e4:	3c020000 	lui	v0,0x0
     2e8:	24422050 	addiu	v0,v0,8272
     2ec:	00621021 	addu	v0,v1,v0
     2f0:	90420000 	lbu	v0,0(v0)
     2f4:	00000000 	sll	zero,zero,0x0
     2f8:	24420007 	addiu	v0,v0,7
     2fc:	3042ffff 	andi	v0,v0,0xffff
     300:	00021400 	sll	v0,v0,0x10
     304:	00021403 	sra	v0,v0,0x10
     308:	080000e4 	j	0x390
     30c:	00000000 	sll	zero,zero,0x0
     310:	8fc20008 	lw	v0,8(s8)
     314:	00000000 	sll	zero,zero,0x0
     318:	3042ff00 	andi	v0,v0,0xff00
     31c:	10400010 	beqz	v0,0x360
     320:	00000000 	sll	zero,zero,0x0
     324:	8fc20008 	lw	v0,8(s8)
     328:	00000000 	sll	zero,zero,0x0
     32c:	00021203 	sra	v0,v0,0x8
     330:	304300ff 	andi	v1,v0,0xff
     334:	3c020000 	lui	v0,0x0
     338:	24422050 	addiu	v0,v0,8272
     33c:	00621021 	addu	v0,v1,v0
     340:	90420000 	lbu	v0,0(v0)
     344:	00000000 	sll	zero,zero,0x0
     348:	2442000f 	addiu	v0,v0,15
     34c:	3042ffff 	andi	v0,v0,0xffff
     350:	00021400 	sll	v0,v0,0x10
     354:	00021403 	sra	v0,v0,0x10
     358:	080000e4 	j	0x390
     35c:	00000000 	sll	zero,zero,0x0
     360:	8fc20008 	lw	v0,8(s8)
     364:	00000000 	sll	zero,zero,0x0
     368:	304300ff 	andi	v1,v0,0xff
     36c:	3c020000 	lui	v0,0x0
     370:	24422050 	addiu	v0,v0,8272
     374:	00621021 	addu	v0,v1,v0
     378:	90420000 	lbu	v0,0(v0)
     37c:	00000000 	sll	zero,zero,0x0
     380:	24420017 	addiu	v0,v0,23
     384:	3042ffff 	andi	v0,v0,0xffff
     388:	00021400 	sll	v0,v0,0x10
     38c:	00021403 	sra	v0,v0,0x10
     390:	03c0e821 	addu	sp,s8,zero
     394:	8fbe0004 	lw	s8,4(sp)
     398:	27bd0008 	addiu	sp,sp,8
     39c:	03e00008 	jr	ra
     3a0:	00000000 	sll	zero,zero,0x0
     3a4:	27bdffe8 	addiu	sp,sp,-24
     3a8:	afbe0014 	sw	s8,20(sp)
     3ac:	03a0f021 	addu	s8,sp,zero
     3b0:	00801821 	addu	v1,a0,zero
     3b4:	00a01021 	addu	v0,a1,zero
     3b8:	a7c30018 	sh	v1,24(s8)
     3bc:	a7c2001c 	sh	v0,28(s8)
     3c0:	87c20018 	lh	v0,24(s8)
     3c4:	00000000 	sll	zero,zero,0x0
     3c8:	afc2000c 	sw	v0,12(s8)
     3cc:	87c2001c 	lh	v0,28(s8)
     3d0:	00000000 	sll	zero,zero,0x0
     3d4:	afc20008 	sw	v0,8(s8)
     3d8:	a7c00004 	sh	zero,4(s8)
     3dc:	2402000f 	addiu	v0,zero,15
     3e0:	afc20000 	sw	v0,0(s8)
     3e4:	87c20018 	lh	v0,24(s8)
     3e8:	00000000 	sll	zero,zero,0x0
     3ec:	1440001d 	bnez	v0,0x464
     3f0:	00000000 	sll	zero,zero,0x0
     3f4:	00001021 	addu	v0,zero,zero
     3f8:	08000125 	j	0x494
     3fc:	00000000 	sll	zero,zero,0x0
     400:	87c20004 	lh	v0,4(s8)
     404:	00000000 	sll	zero,zero,0x0
     408:	00021040 	sll	v0,v0,0x1
     40c:	a7c20004 	sh	v0,4(s8)
     410:	8fc2000c 	lw	v0,12(s8)
     414:	00000000 	sll	zero,zero,0x0
     418:	00021040 	sll	v0,v0,0x1
     41c:	afc2000c 	sw	v0,12(s8)
     420:	8fc3000c 	lw	v1,12(s8)
     424:	8fc20008 	lw	v0,8(s8)
     428:	00000000 	sll	zero,zero,0x0
     42c:	0062102a 	slt	v0,v1,v0
     430:	1440000d 	bnez	v0,0x468
     434:	00000000 	sll	zero,zero,0x0
     438:	8fc3000c 	lw	v1,12(s8)
     43c:	8fc20008 	lw	v0,8(s8)
     440:	00000000 	sll	zero,zero,0x0
     444:	00621023 	subu	v0,v1,v0
     448:	afc2000c 	sw	v0,12(s8)
     44c:	97c20004 	lhu	v0,4(s8)
     450:	00000000 	sll	zero,zero,0x0
     454:	24420001 	addiu	v0,v0,1
     458:	a7c20004 	sh	v0,4(s8)
     45c:	0800011a 	j	0x468
     460:	00000000 	sll	zero,zero,0x0
     464:	00000000 	sll	zero,zero,0x0
     468:	8fc20000 	lw	v0,0(s8)
     46c:	00000000 	sll	zero,zero,0x0
     470:	0002102b 	sltu	v0,zero,v0
     474:	304200ff 	andi	v0,v0,0xff
     478:	8fc30000 	lw	v1,0(s8)
     47c:	00000000 	sll	zero,zero,0x0
     480:	2463ffff 	addiu	v1,v1,-1
     484:	afc30000 	sw	v1,0(s8)
     488:	1440ffdd 	bnez	v0,0x400
     48c:	00000000 	sll	zero,zero,0x0
     490:	87c20004 	lh	v0,4(s8)
     494:	03c0e821 	addu	sp,s8,zero
     498:	8fbe0014 	lw	s8,20(sp)
     49c:	27bd0018 	addiu	sp,sp,24
     4a0:	03e00008 	jr	ra
     4a4:	00000000 	sll	zero,zero,0x0
     4a8:	27bdffd0 	addiu	sp,sp,-48
     4ac:	afbf002c 	sw	ra,44(sp)
     4b0:	afbe0028 	sw	s8,40(sp)
     4b4:	afb10024 	sw	s1,36(sp)
     4b8:	afb00020 	sw	s0,32(sp)
     4bc:	03a0f021 	addu	s8,sp,zero
     4c0:	afc40030 	sw	a0,48(s8)
     4c4:	afc50034 	sw	a1,52(s8)
     4c8:	a7c0001c 	sh	zero,28(s8)
     4cc:	00008021 	addu	s0,zero,zero
     4d0:	0800014b 	j	0x52c
     4d4:	00000000 	sll	zero,zero,0x0
     4d8:	02001021 	addu	v0,s0,zero
     4dc:	00021040 	sll	v0,v0,0x1
     4e0:	8fc30030 	lw	v1,48(s8)
     4e4:	00000000 	sll	zero,zero,0x0
     4e8:	00621021 	addu	v0,v1,v0
     4ec:	84420000 	lh	v0,0(v0)
     4f0:	00000000 	sll	zero,zero,0x0
     4f4:	00402021 	addu	a0,v0,zero
     4f8:	0c00006a 	jal	0x1a8
     4fc:	00000000 	sll	zero,zero,0x0
     500:	a7c2001e 	sh	v0,30(s8)
     504:	87c3001e 	lh	v1,30(s8)
     508:	87c2001c 	lh	v0,28(s8)
     50c:	00000000 	sll	zero,zero,0x0
     510:	0043102a 	slt	v0,v0,v1
     514:	10400004 	beqz	v0,0x528
     518:	00000000 	sll	zero,zero,0x0
     51c:	97c2001e 	lhu	v0,30(s8)
     520:	00000000 	sll	zero,zero,0x0
     524:	a7c2001c 	sh	v0,28(s8)
     528:	26100001 	addiu	s0,s0,1
     52c:	2a0200a0 	slti	v0,s0,160
     530:	1440ffe9 	bnez	v0,0x4d8
     534:	00000000 	sll	zero,zero,0x0
     538:	87c2001c 	lh	v0,28(s8)
     53c:	00000000 	sll	zero,zero,0x0
     540:	14400004 	bnez	v0,0x554
     544:	00000000 	sll	zero,zero,0x0
     548:	a7c0001a 	sh	zero,26(s8)
     54c:	08000160 	j	0x580
     550:	00000000 	sll	zero,zero,0x0
     554:	87c2001c 	lh	v0,28(s8)
     558:	00000000 	sll	zero,zero,0x0
     55c:	00021400 	sll	v0,v0,0x10
     560:	00402021 	addu	a0,v0,zero
     564:	0c000087 	jal	0x21c
     568:	00000000 	sll	zero,zero,0x0
     56c:	3042ffff 	andi	v0,v0,0xffff
     570:	24030004 	addiu	v1,zero,4
     574:	00621023 	subu	v0,v1,v0
     578:	3042ffff 	andi	v0,v0,0xffff
     57c:	a7c2001a 	sh	v0,26(s8)
     580:	87c2001a 	lh	v0,26(s8)
     584:	00000000 	sll	zero,zero,0x0
     588:	18400029 	blez	v0,0x630
     58c:	00000000 	sll	zero,zero,0x0
     590:	87c2001a 	lh	v0,26(s8)
     594:	00000000 	sll	zero,zero,0x0
     598:	28420005 	slti	v0,v0,5
     59c:	10400024 	beqz	v0,0x630
     5a0:	00000000 	sll	zero,zero,0x0
     5a4:	97c2001a 	lhu	v0,26(s8)
     5a8:	00000000 	sll	zero,zero,0x0
     5ac:	a7c20018 	sh	v0,24(s8)
     5b0:	00008021 	addu	s0,zero,zero
     5b4:	08000189 	j	0x624
     5b8:	00000000 	sll	zero,zero,0x0
     5bc:	02001021 	addu	v0,s0,zero
     5c0:	00021040 	sll	v0,v0,0x1
     5c4:	8fc30030 	lw	v1,48(s8)
     5c8:	00000000 	sll	zero,zero,0x0
     5cc:	00628821 	addu	s1,v1,v0
     5d0:	02001021 	addu	v0,s0,zero
     5d4:	00021040 	sll	v0,v0,0x1
     5d8:	8fc30030 	lw	v1,48(s8)
     5dc:	00000000 	sll	zero,zero,0x0
     5e0:	00621021 	addu	v0,v1,v0
     5e4:	84420000 	lh	v0,0(v0)
     5e8:	00000000 	sll	zero,zero,0x0
     5ec:	00401821 	addu	v1,v0,zero
     5f0:	87c20018 	lh	v0,24(s8)
     5f4:	00000000 	sll	zero,zero,0x0
     5f8:	2442ffff 	addiu	v0,v0,-1
     5fc:	24044000 	addiu	a0,zero,16384
     600:	00441007 	srav	v0,a0,v0
     604:	00021400 	sll	v0,v0,0x10
     608:	00021403 	sra	v0,v0,0x10
     60c:	00602021 	addu	a0,v1,zero
     610:	00402821 	addu	a1,v0,zero
     614:	0c000044 	jal	0x110
     618:	00000000 	sll	zero,zero,0x0
     61c:	a6220000 	sh	v0,0(s1)
     620:	26100001 	addiu	s0,s0,1
     624:	2a0200a0 	slti	v0,s0,160
     628:	1440ffe4 	bnez	v0,0x5bc
     62c:	00000000 	sll	zero,zero,0x0
     630:	8fc20030 	lw	v0,48(s8)
     634:	00000000 	sll	zero,zero,0x0
     638:	afc20014 	sw	v0,20(s8)
     63c:	8fc20014 	lw	v0,20(s8)
     640:	00000000 	sll	zero,zero,0x0
     644:	94420000 	lhu	v0,0(v0)
     648:	00000000 	sll	zero,zero,0x0
     64c:	a7c20010 	sh	v0,16(s8)
     650:	24100008 	addiu	s0,zero,8
     654:	0800019e 	j	0x678
     658:	00000000 	sll	zero,zero,0x0
     65c:	02001021 	addu	v0,s0,zero
     660:	00021080 	sll	v0,v0,0x2
     664:	8fc30034 	lw	v1,52(s8)
     668:	00000000 	sll	zero,zero,0x0
     66c:	00621021 	addu	v0,v1,v0
     670:	ac400000 	sw	zero,0(v0)
     674:	2610ffff 	addiu	s0,s0,-1
     678:	0601fff8 	bgez	s0,0x65c
     67c:	00000000 	sll	zero,zero,0x0
     680:	8fc20034 	lw	v0,52(s8)
     684:	00000000 	sll	zero,zero,0x0
     688:	8c420000 	lw	v0,0(v0)
     68c:	87c40010 	lh	a0,16(s8)
     690:	8fc30014 	lw	v1,20(s8)
     694:	00000000 	sll	zero,zero,0x0
     698:	84630000 	lh	v1,0(v1)
     69c:	00000000 	sll	zero,zero,0x0
     6a0:	00830018 	mult	a0,v1
     6a4:	00001812 	mflo	v1
     6a8:	00431821 	addu	v1,v0,v1
     6ac:	8fc20034 	lw	v0,52(s8)
     6b0:	00000000 	sll	zero,zero,0x0
     6b4:	ac430000 	sw	v1,0(v0)
     6b8:	8fc20014 	lw	v0,20(s8)
     6bc:	00000000 	sll	zero,zero,0x0
     6c0:	24420002 	addiu	v0,v0,2
     6c4:	afc20014 	sw	v0,20(s8)
     6c8:	8fc20014 	lw	v0,20(s8)
     6cc:	00000000 	sll	zero,zero,0x0
     6d0:	94420000 	lhu	v0,0(v0)
     6d4:	00000000 	sll	zero,zero,0x0
     6d8:	a7c20010 	sh	v0,16(s8)
     6dc:	8fc20034 	lw	v0,52(s8)
     6e0:	00000000 	sll	zero,zero,0x0
     6e4:	8c420000 	lw	v0,0(v0)
     6e8:	87c40010 	lh	a0,16(s8)
     6ec:	8fc30014 	lw	v1,20(s8)
     6f0:	00000000 	sll	zero,zero,0x0
     6f4:	84630000 	lh	v1,0(v1)
     6f8:	00000000 	sll	zero,zero,0x0
     6fc:	00830018 	mult	a0,v1
     700:	00001812 	mflo	v1
     704:	00431821 	addu	v1,v0,v1
     708:	8fc20034 	lw	v0,52(s8)
     70c:	00000000 	sll	zero,zero,0x0
     710:	ac430000 	sw	v1,0(v0)
     714:	8fc20034 	lw	v0,52(s8)
     718:	00000000 	sll	zero,zero,0x0
     71c:	24420004 	addiu	v0,v0,4
     720:	8fc30034 	lw	v1,52(s8)
     724:	00000000 	sll	zero,zero,0x0
     728:	24630004 	addiu	v1,v1,4
     72c:	8c630000 	lw	v1,0(v1)
     730:	87c50010 	lh	a1,16(s8)
     734:	8fc40014 	lw	a0,20(s8)
     738:	00000000 	sll	zero,zero,0x0
     73c:	2484fffe 	addiu	a0,a0,-2
     740:	84840000 	lh	a0,0(a0)
     744:	00000000 	sll	zero,zero,0x0
     748:	00a40018 	mult	a1,a0
     74c:	00002012 	mflo	a0
     750:	00641821 	addu	v1,v1,a0
     754:	ac430000 	sw	v1,0(v0)
     758:	8fc20014 	lw	v0,20(s8)
     75c:	00000000 	sll	zero,zero,0x0
     760:	24420002 	addiu	v0,v0,2
     764:	afc20014 	sw	v0,20(s8)
     768:	8fc20014 	lw	v0,20(s8)
     76c:	00000000 	sll	zero,zero,0x0
     770:	94420000 	lhu	v0,0(v0)
     774:	00000000 	sll	zero,zero,0x0
     778:	a7c20010 	sh	v0,16(s8)
     77c:	8fc20034 	lw	v0,52(s8)
     780:	00000000 	sll	zero,zero,0x0
     784:	8c420000 	lw	v0,0(v0)
     788:	87c40010 	lh	a0,16(s8)
     78c:	8fc30014 	lw	v1,20(s8)
     790:	00000000 	sll	zero,zero,0x0
     794:	84630000 	lh	v1,0(v1)
     798:	00000000 	sll	zero,zero,0x0
     79c:	00830018 	mult	a0,v1
     7a0:	00001812 	mflo	v1
     7a4:	00431821 	addu	v1,v0,v1
     7a8:	8fc20034 	lw	v0,52(s8)
     7ac:	00000000 	sll	zero,zero,0x0
     7b0:	ac430000 	sw	v1,0(v0)
     7b4:	8fc20034 	lw	v0,52(s8)
     7b8:	00000000 	sll	zero,zero,0x0
     7bc:	24420004 	addiu	v0,v0,4
     7c0:	8fc30034 	lw	v1,52(s8)
     7c4:	00000000 	sll	zero,zero,0x0
     7c8:	24630004 	addiu	v1,v1,4
     7cc:	8c630000 	lw	v1,0(v1)
     7d0:	87c50010 	lh	a1,16(s8)
     7d4:	8fc40014 	lw	a0,20(s8)
     7d8:	00000000 	sll	zero,zero,0x0
     7dc:	2484fffe 	addiu	a0,a0,-2
     7e0:	84840000 	lh	a0,0(a0)
     7e4:	00000000 	sll	zero,zero,0x0
     7e8:	00a40018 	mult	a1,a0
     7ec:	00002012 	mflo	a0
     7f0:	00641821 	addu	v1,v1,a0
     7f4:	ac430000 	sw	v1,0(v0)
     7f8:	8fc20034 	lw	v0,52(s8)
     7fc:	00000000 	sll	zero,zero,0x0
     800:	24420008 	addiu	v0,v0,8
     804:	8fc30034 	lw	v1,52(s8)
     808:	00000000 	sll	zero,zero,0x0
     80c:	24630008 	addiu	v1,v1,8
     810:	8c630000 	lw	v1,0(v1)
     814:	87c50010 	lh	a1,16(s8)
     818:	8fc40014 	lw	a0,20(s8)
     81c:	00000000 	sll	zero,zero,0x0
     820:	2484fffc 	addiu	a0,a0,-4
     824:	84840000 	lh	a0,0(a0)
     828:	00000000 	sll	zero,zero,0x0
     82c:	00a40018 	mult	a1,a0
     830:	00002012 	mflo	a0
     834:	00641821 	addu	v1,v1,a0
     838:	ac430000 	sw	v1,0(v0)
     83c:	8fc20014 	lw	v0,20(s8)
     840:	00000000 	sll	zero,zero,0x0
     844:	24420002 	addiu	v0,v0,2
     848:	afc20014 	sw	v0,20(s8)
     84c:	8fc20014 	lw	v0,20(s8)
     850:	00000000 	sll	zero,zero,0x0
     854:	94420000 	lhu	v0,0(v0)
     858:	00000000 	sll	zero,zero,0x0
     85c:	a7c20010 	sh	v0,16(s8)
     860:	8fc20034 	lw	v0,52(s8)
     864:	00000000 	sll	zero,zero,0x0
     868:	8c420000 	lw	v0,0(v0)
     86c:	87c40010 	lh	a0,16(s8)
     870:	8fc30014 	lw	v1,20(s8)
     874:	00000000 	sll	zero,zero,0x0
     878:	84630000 	lh	v1,0(v1)
     87c:	00000000 	sll	zero,zero,0x0
     880:	00830018 	mult	a0,v1
     884:	00001812 	mflo	v1
     888:	00431821 	addu	v1,v0,v1
     88c:	8fc20034 	lw	v0,52(s8)
     890:	00000000 	sll	zero,zero,0x0
     894:	ac430000 	sw	v1,0(v0)
     898:	8fc20034 	lw	v0,52(s8)
     89c:	00000000 	sll	zero,zero,0x0
     8a0:	24420004 	addiu	v0,v0,4
     8a4:	8fc30034 	lw	v1,52(s8)
     8a8:	00000000 	sll	zero,zero,0x0
     8ac:	24630004 	addiu	v1,v1,4
     8b0:	8c630000 	lw	v1,0(v1)
     8b4:	87c50010 	lh	a1,16(s8)
     8b8:	8fc40014 	lw	a0,20(s8)
     8bc:	00000000 	sll	zero,zero,0x0
     8c0:	2484fffe 	addiu	a0,a0,-2
     8c4:	84840000 	lh	a0,0(a0)
     8c8:	00000000 	sll	zero,zero,0x0
     8cc:	00a40018 	mult	a1,a0
     8d0:	00002012 	mflo	a0
     8d4:	00641821 	addu	v1,v1,a0
     8d8:	ac430000 	sw	v1,0(v0)
     8dc:	8fc20034 	lw	v0,52(s8)
     8e0:	00000000 	sll	zero,zero,0x0
     8e4:	24420008 	addiu	v0,v0,8
     8e8:	8fc30034 	lw	v1,52(s8)
     8ec:	00000000 	sll	zero,zero,0x0
     8f0:	24630008 	addiu	v1,v1,8
     8f4:	8c630000 	lw	v1,0(v1)
     8f8:	87c50010 	lh	a1,16(s8)
     8fc:	8fc40014 	lw	a0,20(s8)
     900:	00000000 	sll	zero,zero,0x0
     904:	2484fffc 	addiu	a0,a0,-4
     908:	84840000 	lh	a0,0(a0)
     90c:	00000000 	sll	zero,zero,0x0
     910:	00a40018 	mult	a1,a0
     914:	00002012 	mflo	a0
     918:	00641821 	addu	v1,v1,a0
     91c:	ac430000 	sw	v1,0(v0)
     920:	8fc20034 	lw	v0,52(s8)
     924:	00000000 	sll	zero,zero,0x0
     928:	2442000c 	addiu	v0,v0,12
     92c:	8fc30034 	lw	v1,52(s8)
     930:	00000000 	sll	zero,zero,0x0
     934:	2463000c 	addiu	v1,v1,12
     938:	8c630000 	lw	v1,0(v1)
     93c:	87c50010 	lh	a1,16(s8)
     940:	8fc40014 	lw	a0,20(s8)
     944:	00000000 	sll	zero,zero,0x0
     948:	2484fffa 	addiu	a0,a0,-6
     94c:	84840000 	lh	a0,0(a0)
     950:	00000000 	sll	zero,zero,0x0
     954:	00a40018 	mult	a1,a0
     958:	00002012 	mflo	a0
     95c:	00641821 	addu	v1,v1,a0
     960:	ac430000 	sw	v1,0(v0)
     964:	8fc20014 	lw	v0,20(s8)
     968:	00000000 	sll	zero,zero,0x0
     96c:	24420002 	addiu	v0,v0,2
     970:	afc20014 	sw	v0,20(s8)
     974:	8fc20014 	lw	v0,20(s8)
     978:	00000000 	sll	zero,zero,0x0
     97c:	94420000 	lhu	v0,0(v0)
     980:	00000000 	sll	zero,zero,0x0
     984:	a7c20010 	sh	v0,16(s8)
     988:	8fc20034 	lw	v0,52(s8)
     98c:	00000000 	sll	zero,zero,0x0
     990:	8c420000 	lw	v0,0(v0)
     994:	87c40010 	lh	a0,16(s8)
     998:	8fc30014 	lw	v1,20(s8)
     99c:	00000000 	sll	zero,zero,0x0
     9a0:	84630000 	lh	v1,0(v1)
     9a4:	00000000 	sll	zero,zero,0x0
     9a8:	00830018 	mult	a0,v1
     9ac:	00001812 	mflo	v1
     9b0:	00431821 	addu	v1,v0,v1
     9b4:	8fc20034 	lw	v0,52(s8)
     9b8:	00000000 	sll	zero,zero,0x0
     9bc:	ac430000 	sw	v1,0(v0)
     9c0:	8fc20034 	lw	v0,52(s8)
     9c4:	00000000 	sll	zero,zero,0x0
     9c8:	24420004 	addiu	v0,v0,4
     9cc:	8fc30034 	lw	v1,52(s8)
     9d0:	00000000 	sll	zero,zero,0x0
     9d4:	24630004 	addiu	v1,v1,4
     9d8:	8c630000 	lw	v1,0(v1)
     9dc:	87c50010 	lh	a1,16(s8)
     9e0:	8fc40014 	lw	a0,20(s8)
     9e4:	00000000 	sll	zero,zero,0x0
     9e8:	2484fffe 	addiu	a0,a0,-2
     9ec:	84840000 	lh	a0,0(a0)
     9f0:	00000000 	sll	zero,zero,0x0
     9f4:	00a40018 	mult	a1,a0
     9f8:	00002012 	mflo	a0
     9fc:	00641821 	addu	v1,v1,a0
     a00:	ac430000 	sw	v1,0(v0)
     a04:	8fc20034 	lw	v0,52(s8)
     a08:	00000000 	sll	zero,zero,0x0
     a0c:	24420008 	addiu	v0,v0,8
     a10:	8fc30034 	lw	v1,52(s8)
     a14:	00000000 	sll	zero,zero,0x0
     a18:	24630008 	addiu	v1,v1,8
     a1c:	8c630000 	lw	v1,0(v1)
     a20:	87c50010 	lh	a1,16(s8)
     a24:	8fc40014 	lw	a0,20(s8)
     a28:	00000000 	sll	zero,zero,0x0
     a2c:	2484fffc 	addiu	a0,a0,-4
     a30:	84840000 	lh	a0,0(a0)
     a34:	00000000 	sll	zero,zero,0x0
     a38:	00a40018 	mult	a1,a0
     a3c:	00002012 	mflo	a0
     a40:	00641821 	addu	v1,v1,a0
     a44:	ac430000 	sw	v1,0(v0)
     a48:	8fc20034 	lw	v0,52(s8)
     a4c:	00000000 	sll	zero,zero,0x0
     a50:	2442000c 	addiu	v0,v0,12
     a54:	8fc30034 	lw	v1,52(s8)
     a58:	00000000 	sll	zero,zero,0x0
     a5c:	2463000c 	addiu	v1,v1,12
     a60:	8c630000 	lw	v1,0(v1)
     a64:	87c50010 	lh	a1,16(s8)
     a68:	8fc40014 	lw	a0,20(s8)
     a6c:	00000000 	sll	zero,zero,0x0
     a70:	2484fffa 	addiu	a0,a0,-6
     a74:	84840000 	lh	a0,0(a0)
     a78:	00000000 	sll	zero,zero,0x0
     a7c:	00a40018 	mult	a1,a0
     a80:	00002012 	mflo	a0
     a84:	00641821 	addu	v1,v1,a0
     a88:	ac430000 	sw	v1,0(v0)
     a8c:	8fc20034 	lw	v0,52(s8)
     a90:	00000000 	sll	zero,zero,0x0
     a94:	24420010 	addiu	v0,v0,16
     a98:	8fc30034 	lw	v1,52(s8)
     a9c:	00000000 	sll	zero,zero,0x0
     aa0:	24630010 	addiu	v1,v1,16
     aa4:	8c630000 	lw	v1,0(v1)
     aa8:	87c50010 	lh	a1,16(s8)
     aac:	8fc40014 	lw	a0,20(s8)
     ab0:	00000000 	sll	zero,zero,0x0
     ab4:	2484fff8 	addiu	a0,a0,-8
     ab8:	84840000 	lh	a0,0(a0)
     abc:	00000000 	sll	zero,zero,0x0
     ac0:	00a40018 	mult	a1,a0
     ac4:	00002012 	mflo	a0
     ac8:	00641821 	addu	v1,v1,a0
     acc:	ac430000 	sw	v1,0(v0)
     ad0:	8fc20014 	lw	v0,20(s8)
     ad4:	00000000 	sll	zero,zero,0x0
     ad8:	24420002 	addiu	v0,v0,2
     adc:	afc20014 	sw	v0,20(s8)
     ae0:	8fc20014 	lw	v0,20(s8)
     ae4:	00000000 	sll	zero,zero,0x0
     ae8:	94420000 	lhu	v0,0(v0)
     aec:	00000000 	sll	zero,zero,0x0
     af0:	a7c20010 	sh	v0,16(s8)
     af4:	8fc20034 	lw	v0,52(s8)
     af8:	00000000 	sll	zero,zero,0x0
     afc:	8c420000 	lw	v0,0(v0)
     b00:	87c40010 	lh	a0,16(s8)
     b04:	8fc30014 	lw	v1,20(s8)
     b08:	00000000 	sll	zero,zero,0x0
     b0c:	84630000 	lh	v1,0(v1)
     b10:	00000000 	sll	zero,zero,0x0
     b14:	00830018 	mult	a0,v1
     b18:	00001812 	mflo	v1
     b1c:	00431821 	addu	v1,v0,v1
     b20:	8fc20034 	lw	v0,52(s8)
     b24:	00000000 	sll	zero,zero,0x0
     b28:	ac430000 	sw	v1,0(v0)
     b2c:	8fc20034 	lw	v0,52(s8)
     b30:	00000000 	sll	zero,zero,0x0
     b34:	24420004 	addiu	v0,v0,4
     b38:	8fc30034 	lw	v1,52(s8)
     b3c:	00000000 	sll	zero,zero,0x0
     b40:	24630004 	addiu	v1,v1,4
     b44:	8c630000 	lw	v1,0(v1)
     b48:	87c50010 	lh	a1,16(s8)
     b4c:	8fc40014 	lw	a0,20(s8)
     b50:	00000000 	sll	zero,zero,0x0
     b54:	2484fffe 	addiu	a0,a0,-2
     b58:	84840000 	lh	a0,0(a0)
     b5c:	00000000 	sll	zero,zero,0x0
     b60:	00a40018 	mult	a1,a0
     b64:	00002012 	mflo	a0
     b68:	00641821 	addu	v1,v1,a0
     b6c:	ac430000 	sw	v1,0(v0)
     b70:	8fc20034 	lw	v0,52(s8)
     b74:	00000000 	sll	zero,zero,0x0
     b78:	24420008 	addiu	v0,v0,8
     b7c:	8fc30034 	lw	v1,52(s8)
     b80:	00000000 	sll	zero,zero,0x0
     b84:	24630008 	addiu	v1,v1,8
     b88:	8c630000 	lw	v1,0(v1)
     b8c:	87c50010 	lh	a1,16(s8)
     b90:	8fc40014 	lw	a0,20(s8)
     b94:	00000000 	sll	zero,zero,0x0
     b98:	2484fffc 	addiu	a0,a0,-4
     b9c:	84840000 	lh	a0,0(a0)
     ba0:	00000000 	sll	zero,zero,0x0
     ba4:	00a40018 	mult	a1,a0
     ba8:	00002012 	mflo	a0
     bac:	00641821 	addu	v1,v1,a0
     bb0:	ac430000 	sw	v1,0(v0)
     bb4:	8fc20034 	lw	v0,52(s8)
     bb8:	00000000 	sll	zero,zero,0x0
     bbc:	2442000c 	addiu	v0,v0,12
     bc0:	8fc30034 	lw	v1,52(s8)
     bc4:	00000000 	sll	zero,zero,0x0
     bc8:	2463000c 	addiu	v1,v1,12
     bcc:	8c630000 	lw	v1,0(v1)
     bd0:	87c50010 	lh	a1,16(s8)
     bd4:	8fc40014 	lw	a0,20(s8)
     bd8:	00000000 	sll	zero,zero,0x0
     bdc:	2484fffa 	addiu	a0,a0,-6
     be0:	84840000 	lh	a0,0(a0)
     be4:	00000000 	sll	zero,zero,0x0
     be8:	00a40018 	mult	a1,a0
     bec:	00002012 	mflo	a0
     bf0:	00641821 	addu	v1,v1,a0
     bf4:	ac430000 	sw	v1,0(v0)
     bf8:	8fc20034 	lw	v0,52(s8)
     bfc:	00000000 	sll	zero,zero,0x0
     c00:	24420010 	addiu	v0,v0,16
     c04:	8fc30034 	lw	v1,52(s8)
     c08:	00000000 	sll	zero,zero,0x0
     c0c:	24630010 	addiu	v1,v1,16
     c10:	8c630000 	lw	v1,0(v1)
     c14:	87c50010 	lh	a1,16(s8)
     c18:	8fc40014 	lw	a0,20(s8)
     c1c:	00000000 	sll	zero,zero,0x0
     c20:	2484fff8 	addiu	a0,a0,-8
     c24:	84840000 	lh	a0,0(a0)
     c28:	00000000 	sll	zero,zero,0x0
     c2c:	00a40018 	mult	a1,a0
     c30:	00002012 	mflo	a0
     c34:	00641821 	addu	v1,v1,a0
     c38:	ac430000 	sw	v1,0(v0)
     c3c:	8fc20034 	lw	v0,52(s8)
     c40:	00000000 	sll	zero,zero,0x0
     c44:	24420014 	addiu	v0,v0,20
     c48:	8fc30034 	lw	v1,52(s8)
     c4c:	00000000 	sll	zero,zero,0x0
     c50:	24630014 	addiu	v1,v1,20
     c54:	8c630000 	lw	v1,0(v1)
     c58:	87c50010 	lh	a1,16(s8)
     c5c:	8fc40014 	lw	a0,20(s8)
     c60:	00000000 	sll	zero,zero,0x0
     c64:	2484fff6 	addiu	a0,a0,-10
     c68:	84840000 	lh	a0,0(a0)
     c6c:	00000000 	sll	zero,zero,0x0
     c70:	00a40018 	mult	a1,a0
     c74:	00002012 	mflo	a0
     c78:	00641821 	addu	v1,v1,a0
     c7c:	ac430000 	sw	v1,0(v0)
     c80:	8fc20014 	lw	v0,20(s8)
     c84:	00000000 	sll	zero,zero,0x0
     c88:	24420002 	addiu	v0,v0,2
     c8c:	afc20014 	sw	v0,20(s8)
     c90:	8fc20014 	lw	v0,20(s8)
     c94:	00000000 	sll	zero,zero,0x0
     c98:	94420000 	lhu	v0,0(v0)
     c9c:	00000000 	sll	zero,zero,0x0
     ca0:	a7c20010 	sh	v0,16(s8)
     ca4:	8fc20034 	lw	v0,52(s8)
     ca8:	00000000 	sll	zero,zero,0x0
     cac:	8c420000 	lw	v0,0(v0)
     cb0:	87c40010 	lh	a0,16(s8)
     cb4:	8fc30014 	lw	v1,20(s8)
     cb8:	00000000 	sll	zero,zero,0x0
     cbc:	84630000 	lh	v1,0(v1)
     cc0:	00000000 	sll	zero,zero,0x0
     cc4:	00830018 	mult	a0,v1
     cc8:	00001812 	mflo	v1
     ccc:	00431821 	addu	v1,v0,v1
     cd0:	8fc20034 	lw	v0,52(s8)
     cd4:	00000000 	sll	zero,zero,0x0
     cd8:	ac430000 	sw	v1,0(v0)
     cdc:	8fc20034 	lw	v0,52(s8)
     ce0:	00000000 	sll	zero,zero,0x0
     ce4:	24420004 	addiu	v0,v0,4
     ce8:	8fc30034 	lw	v1,52(s8)
     cec:	00000000 	sll	zero,zero,0x0
     cf0:	24630004 	addiu	v1,v1,4
     cf4:	8c630000 	lw	v1,0(v1)
     cf8:	87c50010 	lh	a1,16(s8)
     cfc:	8fc40014 	lw	a0,20(s8)
     d00:	00000000 	sll	zero,zero,0x0
     d04:	2484fffe 	addiu	a0,a0,-2
     d08:	84840000 	lh	a0,0(a0)
     d0c:	00000000 	sll	zero,zero,0x0
     d10:	00a40018 	mult	a1,a0
     d14:	00002012 	mflo	a0
     d18:	00641821 	addu	v1,v1,a0
     d1c:	ac430000 	sw	v1,0(v0)
     d20:	8fc20034 	lw	v0,52(s8)
     d24:	00000000 	sll	zero,zero,0x0
     d28:	24420008 	addiu	v0,v0,8
     d2c:	8fc30034 	lw	v1,52(s8)
     d30:	00000000 	sll	zero,zero,0x0
     d34:	24630008 	addiu	v1,v1,8
     d38:	8c630000 	lw	v1,0(v1)
     d3c:	87c50010 	lh	a1,16(s8)
     d40:	8fc40014 	lw	a0,20(s8)
     d44:	00000000 	sll	zero,zero,0x0
     d48:	2484fffc 	addiu	a0,a0,-4
     d4c:	84840000 	lh	a0,0(a0)
     d50:	00000000 	sll	zero,zero,0x0
     d54:	00a40018 	mult	a1,a0
     d58:	00002012 	mflo	a0
     d5c:	00641821 	addu	v1,v1,a0
     d60:	ac430000 	sw	v1,0(v0)
     d64:	8fc20034 	lw	v0,52(s8)
     d68:	00000000 	sll	zero,zero,0x0
     d6c:	2442000c 	addiu	v0,v0,12
     d70:	8fc30034 	lw	v1,52(s8)
     d74:	00000000 	sll	zero,zero,0x0
     d78:	2463000c 	addiu	v1,v1,12
     d7c:	8c630000 	lw	v1,0(v1)
     d80:	87c50010 	lh	a1,16(s8)
     d84:	8fc40014 	lw	a0,20(s8)
     d88:	00000000 	sll	zero,zero,0x0
     d8c:	2484fffa 	addiu	a0,a0,-6
     d90:	84840000 	lh	a0,0(a0)
     d94:	00000000 	sll	zero,zero,0x0
     d98:	00a40018 	mult	a1,a0
     d9c:	00002012 	mflo	a0
     da0:	00641821 	addu	v1,v1,a0
     da4:	ac430000 	sw	v1,0(v0)
     da8:	8fc20034 	lw	v0,52(s8)
     dac:	00000000 	sll	zero,zero,0x0
     db0:	24420010 	addiu	v0,v0,16
     db4:	8fc30034 	lw	v1,52(s8)
     db8:	00000000 	sll	zero,zero,0x0
     dbc:	24630010 	addiu	v1,v1,16
     dc0:	8c630000 	lw	v1,0(v1)
     dc4:	87c50010 	lh	a1,16(s8)
     dc8:	8fc40014 	lw	a0,20(s8)
     dcc:	00000000 	sll	zero,zero,0x0
     dd0:	2484fff8 	addiu	a0,a0,-8
     dd4:	84840000 	lh	a0,0(a0)
     dd8:	00000000 	sll	zero,zero,0x0
     ddc:	00a40018 	mult	a1,a0
     de0:	00002012 	mflo	a0
     de4:	00641821 	addu	v1,v1,a0
     de8:	ac430000 	sw	v1,0(v0)
     dec:	8fc20034 	lw	v0,52(s8)
     df0:	00000000 	sll	zero,zero,0x0
     df4:	24420014 	addiu	v0,v0,20
     df8:	8fc30034 	lw	v1,52(s8)
     dfc:	00000000 	sll	zero,zero,0x0
     e00:	24630014 	addiu	v1,v1,20
     e04:	8c630000 	lw	v1,0(v1)
     e08:	87c50010 	lh	a1,16(s8)
     e0c:	8fc40014 	lw	a0,20(s8)
     e10:	00000000 	sll	zero,zero,0x0
     e14:	2484fff6 	addiu	a0,a0,-10
     e18:	84840000 	lh	a0,0(a0)
     e1c:	00000000 	sll	zero,zero,0x0
     e20:	00a40018 	mult	a1,a0
     e24:	00002012 	mflo	a0
     e28:	00641821 	addu	v1,v1,a0
     e2c:	ac430000 	sw	v1,0(v0)
     e30:	8fc20034 	lw	v0,52(s8)
     e34:	00000000 	sll	zero,zero,0x0
     e38:	24420018 	addiu	v0,v0,24
     e3c:	8fc30034 	lw	v1,52(s8)
     e40:	00000000 	sll	zero,zero,0x0
     e44:	24630018 	addiu	v1,v1,24
     e48:	8c630000 	lw	v1,0(v1)
     e4c:	87c50010 	lh	a1,16(s8)
     e50:	8fc40014 	lw	a0,20(s8)
     e54:	00000000 	sll	zero,zero,0x0
     e58:	2484fff4 	addiu	a0,a0,-12
     e5c:	84840000 	lh	a0,0(a0)
     e60:	00000000 	sll	zero,zero,0x0
     e64:	00a40018 	mult	a1,a0
     e68:	00002012 	mflo	a0
     e6c:	00641821 	addu	v1,v1,a0
     e70:	ac430000 	sw	v1,0(v0)
     e74:	8fc20014 	lw	v0,20(s8)
     e78:	00000000 	sll	zero,zero,0x0
     e7c:	24420002 	addiu	v0,v0,2
     e80:	afc20014 	sw	v0,20(s8)
     e84:	8fc20014 	lw	v0,20(s8)
     e88:	00000000 	sll	zero,zero,0x0
     e8c:	94420000 	lhu	v0,0(v0)
     e90:	00000000 	sll	zero,zero,0x0
     e94:	a7c20010 	sh	v0,16(s8)
     e98:	8fc20034 	lw	v0,52(s8)
     e9c:	00000000 	sll	zero,zero,0x0
     ea0:	8c420000 	lw	v0,0(v0)
     ea4:	87c40010 	lh	a0,16(s8)
     ea8:	8fc30014 	lw	v1,20(s8)
     eac:	00000000 	sll	zero,zero,0x0
     eb0:	84630000 	lh	v1,0(v1)
     eb4:	00000000 	sll	zero,zero,0x0
     eb8:	00830018 	mult	a0,v1
     ebc:	00001812 	mflo	v1
     ec0:	00431821 	addu	v1,v0,v1
     ec4:	8fc20034 	lw	v0,52(s8)
     ec8:	00000000 	sll	zero,zero,0x0
     ecc:	ac430000 	sw	v1,0(v0)
     ed0:	8fc20034 	lw	v0,52(s8)
     ed4:	00000000 	sll	zero,zero,0x0
     ed8:	24420004 	addiu	v0,v0,4
     edc:	8fc30034 	lw	v1,52(s8)
     ee0:	00000000 	sll	zero,zero,0x0
     ee4:	24630004 	addiu	v1,v1,4
     ee8:	8c630000 	lw	v1,0(v1)
     eec:	87c50010 	lh	a1,16(s8)
     ef0:	8fc40014 	lw	a0,20(s8)
     ef4:	00000000 	sll	zero,zero,0x0
     ef8:	2484fffe 	addiu	a0,a0,-2
     efc:	84840000 	lh	a0,0(a0)
     f00:	00000000 	sll	zero,zero,0x0
     f04:	00a40018 	mult	a1,a0
     f08:	00002012 	mflo	a0
     f0c:	00641821 	addu	v1,v1,a0
     f10:	ac430000 	sw	v1,0(v0)
     f14:	8fc20034 	lw	v0,52(s8)
     f18:	00000000 	sll	zero,zero,0x0
     f1c:	24420008 	addiu	v0,v0,8
     f20:	8fc30034 	lw	v1,52(s8)
     f24:	00000000 	sll	zero,zero,0x0
     f28:	24630008 	addiu	v1,v1,8
     f2c:	8c630000 	lw	v1,0(v1)
     f30:	87c50010 	lh	a1,16(s8)
     f34:	8fc40014 	lw	a0,20(s8)
     f38:	00000000 	sll	zero,zero,0x0
     f3c:	2484fffc 	addiu	a0,a0,-4
     f40:	84840000 	lh	a0,0(a0)
     f44:	00000000 	sll	zero,zero,0x0
     f48:	00a40018 	mult	a1,a0
     f4c:	00002012 	mflo	a0
     f50:	00641821 	addu	v1,v1,a0
     f54:	ac430000 	sw	v1,0(v0)
     f58:	8fc20034 	lw	v0,52(s8)
     f5c:	00000000 	sll	zero,zero,0x0
     f60:	2442000c 	addiu	v0,v0,12
     f64:	8fc30034 	lw	v1,52(s8)
     f68:	00000000 	sll	zero,zero,0x0
     f6c:	2463000c 	addiu	v1,v1,12
     f70:	8c630000 	lw	v1,0(v1)
     f74:	87c50010 	lh	a1,16(s8)
     f78:	8fc40014 	lw	a0,20(s8)
     f7c:	00000000 	sll	zero,zero,0x0
     f80:	2484fffa 	addiu	a0,a0,-6
     f84:	84840000 	lh	a0,0(a0)
     f88:	00000000 	sll	zero,zero,0x0
     f8c:	00a40018 	mult	a1,a0
     f90:	00002012 	mflo	a0
     f94:	00641821 	addu	v1,v1,a0
     f98:	ac430000 	sw	v1,0(v0)
     f9c:	8fc20034 	lw	v0,52(s8)
     fa0:	00000000 	sll	zero,zero,0x0
     fa4:	24420010 	addiu	v0,v0,16
     fa8:	8fc30034 	lw	v1,52(s8)
     fac:	00000000 	sll	zero,zero,0x0
     fb0:	24630010 	addiu	v1,v1,16
     fb4:	8c630000 	lw	v1,0(v1)
     fb8:	87c50010 	lh	a1,16(s8)
     fbc:	8fc40014 	lw	a0,20(s8)
     fc0:	00000000 	sll	zero,zero,0x0
     fc4:	2484fff8 	addiu	a0,a0,-8
     fc8:	84840000 	lh	a0,0(a0)
     fcc:	00000000 	sll	zero,zero,0x0
     fd0:	00a40018 	mult	a1,a0
     fd4:	00002012 	mflo	a0
     fd8:	00641821 	addu	v1,v1,a0
     fdc:	ac430000 	sw	v1,0(v0)
     fe0:	8fc20034 	lw	v0,52(s8)
     fe4:	00000000 	sll	zero,zero,0x0
     fe8:	24420014 	addiu	v0,v0,20
     fec:	8fc30034 	lw	v1,52(s8)
     ff0:	00000000 	sll	zero,zero,0x0
     ff4:	24630014 	addiu	v1,v1,20
     ff8:	8c630000 	lw	v1,0(v1)
     ffc:	87c50010 	lh	a1,16(s8)
    1000:	8fc40014 	lw	a0,20(s8)
    1004:	00000000 	sll	zero,zero,0x0
    1008:	2484fff6 	addiu	a0,a0,-10
    100c:	84840000 	lh	a0,0(a0)
    1010:	00000000 	sll	zero,zero,0x0
    1014:	00a40018 	mult	a1,a0
    1018:	00002012 	mflo	a0
    101c:	00641821 	addu	v1,v1,a0
    1020:	ac430000 	sw	v1,0(v0)
    1024:	8fc20034 	lw	v0,52(s8)
    1028:	00000000 	sll	zero,zero,0x0
    102c:	24420018 	addiu	v0,v0,24
    1030:	8fc30034 	lw	v1,52(s8)
    1034:	00000000 	sll	zero,zero,0x0
    1038:	24630018 	addiu	v1,v1,24
    103c:	8c630000 	lw	v1,0(v1)
    1040:	87c50010 	lh	a1,16(s8)
    1044:	8fc40014 	lw	a0,20(s8)
    1048:	00000000 	sll	zero,zero,0x0
    104c:	2484fff4 	addiu	a0,a0,-12
    1050:	84840000 	lh	a0,0(a0)
    1054:	00000000 	sll	zero,zero,0x0
    1058:	00a40018 	mult	a1,a0
    105c:	00002012 	mflo	a0
    1060:	00641821 	addu	v1,v1,a0
    1064:	ac430000 	sw	v1,0(v0)
    1068:	8fc20034 	lw	v0,52(s8)
    106c:	00000000 	sll	zero,zero,0x0
    1070:	2442001c 	addiu	v0,v0,28
    1074:	8fc30034 	lw	v1,52(s8)
    1078:	00000000 	sll	zero,zero,0x0
    107c:	2463001c 	addiu	v1,v1,28
    1080:	8c630000 	lw	v1,0(v1)
    1084:	87c50010 	lh	a1,16(s8)
    1088:	8fc40014 	lw	a0,20(s8)
    108c:	00000000 	sll	zero,zero,0x0
    1090:	2484fff2 	addiu	a0,a0,-14
    1094:	84840000 	lh	a0,0(a0)
    1098:	00000000 	sll	zero,zero,0x0
    109c:	00a40018 	mult	a1,a0
    10a0:	00002012 	mflo	a0
    10a4:	00641821 	addu	v1,v1,a0
    10a8:	ac430000 	sw	v1,0(v0)
    10ac:	24100008 	addiu	s0,zero,8
    10b0:	080004ce 	j	0x1338
    10b4:	00000000 	sll	zero,zero,0x0
    10b8:	8fc20014 	lw	v0,20(s8)
    10bc:	00000000 	sll	zero,zero,0x0
    10c0:	24420002 	addiu	v0,v0,2
    10c4:	afc20014 	sw	v0,20(s8)
    10c8:	8fc20014 	lw	v0,20(s8)
    10cc:	00000000 	sll	zero,zero,0x0
    10d0:	94420000 	lhu	v0,0(v0)
    10d4:	00000000 	sll	zero,zero,0x0
    10d8:	a7c20010 	sh	v0,16(s8)
    10dc:	8fc20034 	lw	v0,52(s8)
    10e0:	00000000 	sll	zero,zero,0x0
    10e4:	8c420000 	lw	v0,0(v0)
    10e8:	87c40010 	lh	a0,16(s8)
    10ec:	8fc30014 	lw	v1,20(s8)
    10f0:	00000000 	sll	zero,zero,0x0
    10f4:	84630000 	lh	v1,0(v1)
    10f8:	00000000 	sll	zero,zero,0x0
    10fc:	00830018 	mult	a0,v1
    1100:	00001812 	mflo	v1
    1104:	00431821 	addu	v1,v0,v1
    1108:	8fc20034 	lw	v0,52(s8)
    110c:	00000000 	sll	zero,zero,0x0
    1110:	ac430000 	sw	v1,0(v0)
    1114:	8fc20034 	lw	v0,52(s8)
    1118:	00000000 	sll	zero,zero,0x0
    111c:	24420004 	addiu	v0,v0,4
    1120:	8fc30034 	lw	v1,52(s8)
    1124:	00000000 	sll	zero,zero,0x0
    1128:	24630004 	addiu	v1,v1,4
    112c:	8c630000 	lw	v1,0(v1)
    1130:	87c50010 	lh	a1,16(s8)
    1134:	8fc40014 	lw	a0,20(s8)
    1138:	00000000 	sll	zero,zero,0x0
    113c:	2484fffe 	addiu	a0,a0,-2
    1140:	84840000 	lh	a0,0(a0)
    1144:	00000000 	sll	zero,zero,0x0
    1148:	00a40018 	mult	a1,a0
    114c:	00002012 	mflo	a0
    1150:	00641821 	addu	v1,v1,a0
    1154:	ac430000 	sw	v1,0(v0)
    1158:	8fc20034 	lw	v0,52(s8)
    115c:	00000000 	sll	zero,zero,0x0
    1160:	24420008 	addiu	v0,v0,8
    1164:	8fc30034 	lw	v1,52(s8)
    1168:	00000000 	sll	zero,zero,0x0
    116c:	24630008 	addiu	v1,v1,8
    1170:	8c630000 	lw	v1,0(v1)
    1174:	87c50010 	lh	a1,16(s8)
    1178:	8fc40014 	lw	a0,20(s8)
    117c:	00000000 	sll	zero,zero,0x0
    1180:	2484fffc 	addiu	a0,a0,-4
    1184:	84840000 	lh	a0,0(a0)
    1188:	00000000 	sll	zero,zero,0x0
    118c:	00a40018 	mult	a1,a0
    1190:	00002012 	mflo	a0
    1194:	00641821 	addu	v1,v1,a0
    1198:	ac430000 	sw	v1,0(v0)
    119c:	8fc20034 	lw	v0,52(s8)
    11a0:	00000000 	sll	zero,zero,0x0
    11a4:	2442000c 	addiu	v0,v0,12
    11a8:	8fc30034 	lw	v1,52(s8)
    11ac:	00000000 	sll	zero,zero,0x0
    11b0:	2463000c 	addiu	v1,v1,12
    11b4:	8c630000 	lw	v1,0(v1)
    11b8:	87c50010 	lh	a1,16(s8)
    11bc:	8fc40014 	lw	a0,20(s8)
    11c0:	00000000 	sll	zero,zero,0x0
    11c4:	2484fffa 	addiu	a0,a0,-6
    11c8:	84840000 	lh	a0,0(a0)
    11cc:	00000000 	sll	zero,zero,0x0
    11d0:	00a40018 	mult	a1,a0
    11d4:	00002012 	mflo	a0
    11d8:	00641821 	addu	v1,v1,a0
    11dc:	ac430000 	sw	v1,0(v0)
    11e0:	8fc20034 	lw	v0,52(s8)
    11e4:	00000000 	sll	zero,zero,0x0
    11e8:	24420010 	addiu	v0,v0,16
    11ec:	8fc30034 	lw	v1,52(s8)
    11f0:	00000000 	sll	zero,zero,0x0
    11f4:	24630010 	addiu	v1,v1,16
    11f8:	8c630000 	lw	v1,0(v1)
    11fc:	87c50010 	lh	a1,16(s8)
    1200:	8fc40014 	lw	a0,20(s8)
    1204:	00000000 	sll	zero,zero,0x0
    1208:	2484fff8 	addiu	a0,a0,-8
    120c:	84840000 	lh	a0,0(a0)
    1210:	00000000 	sll	zero,zero,0x0
    1214:	00a40018 	mult	a1,a0
    1218:	00002012 	mflo	a0
    121c:	00641821 	addu	v1,v1,a0
    1220:	ac430000 	sw	v1,0(v0)
    1224:	8fc20034 	lw	v0,52(s8)
    1228:	00000000 	sll	zero,zero,0x0
    122c:	24420014 	addiu	v0,v0,20
    1230:	8fc30034 	lw	v1,52(s8)
    1234:	00000000 	sll	zero,zero,0x0
    1238:	24630014 	addiu	v1,v1,20
    123c:	8c630000 	lw	v1,0(v1)
    1240:	87c50010 	lh	a1,16(s8)
    1244:	8fc40014 	lw	a0,20(s8)
    1248:	00000000 	sll	zero,zero,0x0
    124c:	2484fff6 	addiu	a0,a0,-10
    1250:	84840000 	lh	a0,0(a0)
    1254:	00000000 	sll	zero,zero,0x0
    1258:	00a40018 	mult	a1,a0
    125c:	00002012 	mflo	a0
    1260:	00641821 	addu	v1,v1,a0
    1264:	ac430000 	sw	v1,0(v0)
    1268:	8fc20034 	lw	v0,52(s8)
    126c:	00000000 	sll	zero,zero,0x0
    1270:	24420018 	addiu	v0,v0,24
    1274:	8fc30034 	lw	v1,52(s8)
    1278:	00000000 	sll	zero,zero,0x0
    127c:	24630018 	addiu	v1,v1,24
    1280:	8c630000 	lw	v1,0(v1)
    1284:	87c50010 	lh	a1,16(s8)
    1288:	8fc40014 	lw	a0,20(s8)
    128c:	00000000 	sll	zero,zero,0x0
    1290:	2484fff4 	addiu	a0,a0,-12
    1294:	84840000 	lh	a0,0(a0)
    1298:	00000000 	sll	zero,zero,0x0
    129c:	00a40018 	mult	a1,a0
    12a0:	00002012 	mflo	a0
    12a4:	00641821 	addu	v1,v1,a0
    12a8:	ac430000 	sw	v1,0(v0)
    12ac:	8fc20034 	lw	v0,52(s8)
    12b0:	00000000 	sll	zero,zero,0x0
    12b4:	2442001c 	addiu	v0,v0,28
    12b8:	8fc30034 	lw	v1,52(s8)
    12bc:	00000000 	sll	zero,zero,0x0
    12c0:	2463001c 	addiu	v1,v1,28
    12c4:	8c630000 	lw	v1,0(v1)
    12c8:	87c50010 	lh	a1,16(s8)
    12cc:	8fc40014 	lw	a0,20(s8)
    12d0:	00000000 	sll	zero,zero,0x0
    12d4:	2484fff2 	addiu	a0,a0,-14
    12d8:	84840000 	lh	a0,0(a0)
    12dc:	00000000 	sll	zero,zero,0x0
    12e0:	00a40018 	mult	a1,a0
    12e4:	00002012 	mflo	a0
    12e8:	00641821 	addu	v1,v1,a0
    12ec:	ac430000 	sw	v1,0(v0)
    12f0:	8fc20034 	lw	v0,52(s8)
    12f4:	00000000 	sll	zero,zero,0x0
    12f8:	24420020 	addiu	v0,v0,32
    12fc:	8fc30034 	lw	v1,52(s8)
    1300:	00000000 	sll	zero,zero,0x0
    1304:	24630020 	addiu	v1,v1,32
    1308:	8c630000 	lw	v1,0(v1)
    130c:	87c50010 	lh	a1,16(s8)
    1310:	8fc40014 	lw	a0,20(s8)
    1314:	00000000 	sll	zero,zero,0x0
    1318:	2484fff0 	addiu	a0,a0,-16
    131c:	84840000 	lh	a0,0(a0)
    1320:	00000000 	sll	zero,zero,0x0
    1324:	00a40018 	mult	a1,a0
    1328:	00002012 	mflo	a0
    132c:	00641821 	addu	v1,v1,a0
    1330:	ac430000 	sw	v1,0(v0)
    1334:	26100001 	addiu	s0,s0,1
    1338:	2a0200a0 	slti	v0,s0,160
    133c:	1440ff5e 	bnez	v0,0x10b8
    1340:	00000000 	sll	zero,zero,0x0
    1344:	24100008 	addiu	s0,zero,8
    1348:	080004e3 	j	0x138c
    134c:	00000000 	sll	zero,zero,0x0
    1350:	02001021 	addu	v0,s0,zero
    1354:	00021080 	sll	v0,v0,0x2
    1358:	8fc30034 	lw	v1,52(s8)
    135c:	00000000 	sll	zero,zero,0x0
    1360:	00621021 	addu	v0,v1,v0
    1364:	02001821 	addu	v1,s0,zero
    1368:	00031880 	sll	v1,v1,0x2
    136c:	8fc40034 	lw	a0,52(s8)
    1370:	00000000 	sll	zero,zero,0x0
    1374:	00831821 	addu	v1,a0,v1
    1378:	8c630000 	lw	v1,0(v1)
    137c:	00000000 	sll	zero,zero,0x0
    1380:	00031840 	sll	v1,v1,0x1
    1384:	ac430000 	sw	v1,0(v0)
    1388:	2610ffff 	addiu	s0,s0,-1
    138c:	0601fff0 	bgez	s0,0x1350
    1390:	00000000 	sll	zero,zero,0x0
    1394:	87c2001a 	lh	v0,26(s8)
    1398:	00000000 	sll	zero,zero,0x0
    139c:	18400016 	blez	v0,0x13f8
    13a0:	00000000 	sll	zero,zero,0x0
    13a4:	2410009f 	addiu	s0,zero,159
    13a8:	080004fc 	j	0x13f0
    13ac:	00000000 	sll	zero,zero,0x0
    13b0:	8fc20030 	lw	v0,48(s8)
    13b4:	00000000 	sll	zero,zero,0x0
    13b8:	84430000 	lh	v1,0(v0)
    13bc:	00000000 	sll	zero,zero,0x0
    13c0:	00602021 	addu	a0,v1,zero
    13c4:	87c3001a 	lh	v1,26(s8)
    13c8:	00000000 	sll	zero,zero,0x0
    13cc:	00641804 	sllv	v1,a0,v1
    13d0:	00031c00 	sll	v1,v1,0x10
    13d4:	00031c03 	sra	v1,v1,0x10
    13d8:	a4430000 	sh	v1,0(v0)
    13dc:	8fc20030 	lw	v0,48(s8)
    13e0:	00000000 	sll	zero,zero,0x0
    13e4:	24420002 	addiu	v0,v0,2
    13e8:	afc20030 	sw	v0,48(s8)
    13ec:	2610ffff 	addiu	s0,s0,-1
    13f0:	0601ffef 	bgez	s0,0x13b0
    13f4:	00000000 	sll	zero,zero,0x0
    13f8:	03c0e821 	addu	sp,s8,zero
    13fc:	8fbf002c 	lw	ra,44(sp)
    1400:	8fbe0028 	lw	s8,40(sp)
    1404:	8fb10024 	lw	s1,36(sp)
    1408:	8fb00020 	lw	s0,32(sp)
    140c:	27bd0030 	addiu	sp,sp,48
    1410:	03e00008 	jr	ra
    1414:	00000000 	sll	zero,zero,0x0
    1418:	27bdff90 	addiu	sp,sp,-112
    141c:	afbf006c 	sw	ra,108(sp)
    1420:	afbe0068 	sw	s8,104(sp)
    1424:	afb40064 	sw	s4,100(sp)
    1428:	afb30060 	sw	s3,96(sp)
    142c:	afb2005c 	sw	s2,92(sp)
    1430:	afb10058 	sw	s1,88(sp)
    1434:	afb00054 	sw	s0,84(sp)
    1438:	03a0f021 	addu	s8,sp,zero
    143c:	afc40070 	sw	a0,112(s8)
    1440:	00a08821 	addu	s1,a1,zero
    1444:	8fc20070 	lw	v0,112(s8)
    1448:	00000000 	sll	zero,zero,0x0
    144c:	8c420000 	lw	v0,0(v0)
    1450:	00000000 	sll	zero,zero,0x0
    1454:	1440000b 	bnez	v0,0x1484
    1458:	00000000 	sll	zero,zero,0x0
    145c:	24100008 	addiu	s0,zero,8
    1460:	0800051d 	j	0x1474
    1464:	00000000 	sll	zero,zero,0x0
    1468:	a6200000 	sh	zero,0(s1)
    146c:	26310002 	addiu	s1,s1,2
    1470:	2610ffff 	addiu	s0,s0,-1
    1474:	1e00fffc 	bgtz	s0,0x1468
    1478:	00000000 	sll	zero,zero,0x0
    147c:	080005f1 	j	0x17c4
    1480:	00000000 	sll	zero,zero,0x0
    1484:	8fc20070 	lw	v0,112(s8)
    1488:	00000000 	sll	zero,zero,0x0
    148c:	8c420000 	lw	v0,0(v0)
    1490:	00000000 	sll	zero,zero,0x0
    1494:	00402021 	addu	a0,v0,zero
    1498:	0c000087 	jal	0x21c
    149c:	00000000 	sll	zero,zero,0x0
    14a0:	00409021 	addu	s2,v0,zero
    14a4:	00008021 	addu	s0,zero,zero
    14a8:	0800053d 	j	0x14f4
    14ac:	00000000 	sll	zero,zero,0x0
    14b0:	02001021 	addu	v0,s0,zero
    14b4:	02001821 	addu	v1,s0,zero
    14b8:	00031880 	sll	v1,v1,0x2
    14bc:	8fc40070 	lw	a0,112(s8)
    14c0:	00000000 	sll	zero,zero,0x0
    14c4:	00831821 	addu	v1,a0,v1
    14c8:	8c640000 	lw	a0,0(v1)
    14cc:	02401821 	addu	v1,s2,zero
    14d0:	00641804 	sllv	v1,a0,v1
    14d4:	00031c03 	sra	v1,v1,0x10
    14d8:	00031c00 	sll	v1,v1,0x10
    14dc:	00031c03 	sra	v1,v1,0x10
    14e0:	00021040 	sll	v0,v0,0x1
    14e4:	27c40010 	addiu	a0,s8,16
    14e8:	00821021 	addu	v0,a0,v0
    14ec:	a4430000 	sh	v1,0(v0)
    14f0:	26100001 	addiu	s0,s0,1
    14f4:	2a020009 	slti	v0,s0,9
    14f8:	1440ffed 	bnez	v0,0x14b0
    14fc:	00000000 	sll	zero,zero,0x0
    1500:	24100001 	addiu	s0,zero,1
    1504:	0800054e 	j	0x1538
    1508:	00000000 	sll	zero,zero,0x0
    150c:	02001021 	addu	v0,s0,zero
    1510:	02001821 	addu	v1,s0,zero
    1514:	00031840 	sll	v1,v1,0x1
    1518:	27c40010 	addiu	a0,s8,16
    151c:	00831821 	addu	v1,a0,v1
    1520:	84630000 	lh	v1,0(v1)
    1524:	00021040 	sll	v0,v0,0x1
    1528:	27c40010 	addiu	a0,s8,16
    152c:	00821021 	addu	v0,a0,v0
    1530:	a4430028 	sh	v1,40(v0)
    1534:	26100001 	addiu	s0,s0,1
    1538:	2a020008 	slti	v0,s0,8
    153c:	1440fff3 	bnez	v0,0x150c
    1540:	00000000 	sll	zero,zero,0x0
    1544:	00008021 	addu	s0,zero,zero
    1548:	0800055f 	j	0x157c
    154c:	00000000 	sll	zero,zero,0x0
    1550:	02001021 	addu	v0,s0,zero
    1554:	02001821 	addu	v1,s0,zero
    1558:	00031840 	sll	v1,v1,0x1
    155c:	27c40010 	addiu	a0,s8,16
    1560:	00831821 	addu	v1,a0,v1
    1564:	84630000 	lh	v1,0(v1)
    1568:	00021040 	sll	v0,v0,0x1
    156c:	27c40010 	addiu	a0,s8,16
    1570:	00821021 	addu	v0,a0,v0
    1574:	a4430014 	sh	v1,20(v0)
    1578:	26100001 	addiu	s0,s0,1
    157c:	2a020009 	slti	v0,s0,9
    1580:	1440fff3 	bnez	v0,0x1550
    1584:	00000000 	sll	zero,zero,0x0
    1588:	24130001 	addiu	s3,zero,1
    158c:	080005eb 	j	0x17ac
    1590:	00000000 	sll	zero,zero,0x0
    1594:	87d20026 	lh	s2,38(s8)
    1598:	00000000 	sll	zero,zero,0x0
    159c:	02401021 	addu	v0,s2,zero
    15a0:	00402021 	addu	a0,v0,zero
    15a4:	0c00006a 	jal	0x1a8
    15a8:	00000000 	sll	zero,zero,0x0
    15ac:	00409021 	addu	s2,v0,zero
    15b0:	87c20024 	lh	v0,36(s8)
    15b4:	00000000 	sll	zero,zero,0x0
    15b8:	0052102a 	slt	v0,v0,s2
    15bc:	1040000c 	beqz	v0,0x15f0
    15c0:	00000000 	sll	zero,zero,0x0
    15c4:	02608021 	addu	s0,s3,zero
    15c8:	08000577 	j	0x15dc
    15cc:	00000000 	sll	zero,zero,0x0
    15d0:	a6200000 	sh	zero,0(s1)
    15d4:	26310002 	addiu	s1,s1,2
    15d8:	26100001 	addiu	s0,s0,1
    15dc:	2a020009 	slti	v0,s0,9
    15e0:	1440fffb 	bnez	v0,0x15d0
    15e4:	00000000 	sll	zero,zero,0x0
    15e8:	080005f1 	j	0x17c4
    15ec:	00000000 	sll	zero,zero,0x0
    15f0:	02401821 	addu	v1,s2,zero
    15f4:	87c20024 	lh	v0,36(s8)
    15f8:	00602021 	addu	a0,v1,zero
    15fc:	00402821 	addu	a1,v0,zero
    1600:	0c0000e9 	jal	0x3a4
    1604:	00000000 	sll	zero,zero,0x0
    1608:	a6220000 	sh	v0,0(s1)
    160c:	87c20026 	lh	v0,38(s8)
    1610:	00000000 	sll	zero,zero,0x0
    1614:	18400007 	blez	v0,0x1634
    1618:	00000000 	sll	zero,zero,0x0
    161c:	86220000 	lh	v0,0(s1)
    1620:	00000000 	sll	zero,zero,0x0
    1624:	00021023 	negu	v0,v0
    1628:	00021400 	sll	v0,v0,0x10
    162c:	00021403 	sra	v0,v0,0x10
    1630:	a6220000 	sh	v0,0(s1)
    1634:	24020008 	addiu	v0,zero,8
    1638:	12620061 	beq	s3,v0,0x17c0
    163c:	00000000 	sll	zero,zero,0x0
    1640:	87c20026 	lh	v0,38(s8)
    1644:	00000000 	sll	zero,zero,0x0
    1648:	00401821 	addu	v1,v0,zero
    164c:	86220000 	lh	v0,0(s1)
    1650:	00602021 	addu	a0,v1,zero
    1654:	00402821 	addu	a1,v0,zero
    1658:	0c000044 	jal	0x110
    165c:	00000000 	sll	zero,zero,0x0
    1660:	00409021 	addu	s2,v0,zero
    1664:	87c20024 	lh	v0,36(s8)
    1668:	00000000 	sll	zero,zero,0x0
    166c:	00401821 	addu	v1,v0,zero
    1670:	02401021 	addu	v0,s2,zero
    1674:	00602021 	addu	a0,v1,zero
    1678:	00402821 	addu	a1,v0,zero
    167c:	0c000004 	jal	0x10
    1680:	00000000 	sll	zero,zero,0x0
    1684:	a7c20024 	sh	v0,36(s8)
    1688:	24100001 	addiu	s0,zero,1
    168c:	080005e4 	j	0x1790
    1690:	00000000 	sll	zero,zero,0x0
    1694:	02001021 	addu	v0,s0,zero
    1698:	00021040 	sll	v0,v0,0x1
    169c:	27c30010 	addiu	v1,s8,16
    16a0:	00621021 	addu	v0,v1,v0
    16a4:	84420028 	lh	v0,40(v0)
    16a8:	00000000 	sll	zero,zero,0x0
    16ac:	00401821 	addu	v1,v0,zero
    16b0:	86220000 	lh	v0,0(s1)
    16b4:	00602021 	addu	a0,v1,zero
    16b8:	00402821 	addu	a1,v0,zero
    16bc:	0c000044 	jal	0x110
    16c0:	00000000 	sll	zero,zero,0x0
    16c4:	00409021 	addu	s2,v0,zero
    16c8:	0200a021 	addu	s4,s0,zero
    16cc:	26020001 	addiu	v0,s0,1
    16d0:	00021040 	sll	v0,v0,0x1
    16d4:	27c30010 	addiu	v1,s8,16
    16d8:	00621021 	addu	v0,v1,v0
    16dc:	84420014 	lh	v0,20(v0)
    16e0:	00000000 	sll	zero,zero,0x0
    16e4:	00401821 	addu	v1,v0,zero
    16e8:	02401021 	addu	v0,s2,zero
    16ec:	00602021 	addu	a0,v1,zero
    16f0:	00402821 	addu	a1,v0,zero
    16f4:	0c000004 	jal	0x10
    16f8:	00000000 	sll	zero,zero,0x0
    16fc:	00401821 	addu	v1,v0,zero
    1700:	00141040 	sll	v0,s4,0x1
    1704:	27c40010 	addiu	a0,s8,16
    1708:	00821021 	addu	v0,a0,v0
    170c:	a4430014 	sh	v1,20(v0)
    1710:	26020001 	addiu	v0,s0,1
    1714:	00021040 	sll	v0,v0,0x1
    1718:	27c30010 	addiu	v1,s8,16
    171c:	00621021 	addu	v0,v1,v0
    1720:	84420014 	lh	v0,20(v0)
    1724:	00000000 	sll	zero,zero,0x0
    1728:	00401821 	addu	v1,v0,zero
    172c:	86220000 	lh	v0,0(s1)
    1730:	00602021 	addu	a0,v1,zero
    1734:	00402821 	addu	a1,v0,zero
    1738:	0c000044 	jal	0x110
    173c:	00000000 	sll	zero,zero,0x0
    1740:	00409021 	addu	s2,v0,zero
    1744:	0200a021 	addu	s4,s0,zero
    1748:	02001021 	addu	v0,s0,zero
    174c:	00021040 	sll	v0,v0,0x1
    1750:	27c30010 	addiu	v1,s8,16
    1754:	00621021 	addu	v0,v1,v0
    1758:	84420028 	lh	v0,40(v0)
    175c:	00000000 	sll	zero,zero,0x0
    1760:	00401821 	addu	v1,v0,zero
    1764:	02401021 	addu	v0,s2,zero
    1768:	00602021 	addu	a0,v1,zero
    176c:	00402821 	addu	a1,v0,zero
    1770:	0c000004 	jal	0x10
    1774:	00000000 	sll	zero,zero,0x0
    1778:	00401821 	addu	v1,v0,zero
    177c:	00141040 	sll	v0,s4,0x1
    1780:	27c40010 	addiu	a0,s8,16
    1784:	00821021 	addu	v0,a0,v0
    1788:	a4430028 	sh	v1,40(v0)
    178c:	26100001 	addiu	s0,s0,1
    1790:	24020008 	addiu	v0,zero,8
    1794:	00531023 	subu	v0,v0,s3
    1798:	0050102a 	slt	v0,v0,s0
    179c:	1040ffbd 	beqz	v0,0x1694
    17a0:	00000000 	sll	zero,zero,0x0
    17a4:	26730001 	addiu	s3,s3,1
    17a8:	26310002 	addiu	s1,s1,2
    17ac:	2a620009 	slti	v0,s3,9
    17b0:	1440ff78 	bnez	v0,0x1594
    17b4:	00000000 	sll	zero,zero,0x0
    17b8:	080005f1 	j	0x17c4
    17bc:	00000000 	sll	zero,zero,0x0
    17c0:	00000000 	sll	zero,zero,0x0
    17c4:	03c0e821 	addu	sp,s8,zero
    17c8:	8fbf006c 	lw	ra,108(sp)
    17cc:	8fbe0068 	lw	s8,104(sp)
    17d0:	8fb40064 	lw	s4,100(sp)
    17d4:	8fb30060 	lw	s3,96(sp)
    17d8:	8fb2005c 	lw	s2,92(sp)
    17dc:	8fb10058 	lw	s1,88(sp)
    17e0:	8fb00054 	lw	s0,84(sp)
    17e4:	27bd0070 	addiu	sp,sp,112
    17e8:	03e00008 	jr	ra
    17ec:	00000000 	sll	zero,zero,0x0
    17f0:	27bdffd8 	addiu	sp,sp,-40
    17f4:	afbf0024 	sw	ra,36(sp)
    17f8:	afbe0020 	sw	s8,32(sp)
    17fc:	afb2001c 	sw	s2,28(sp)
    1800:	afb10018 	sw	s1,24(sp)
    1804:	afb00014 	sw	s0,20(sp)
    1808:	03a0f021 	addu	s8,sp,zero
    180c:	00808821 	addu	s1,a0,zero
    1810:	24120001 	addiu	s2,zero,1
    1814:	08000636 	j	0x18d8
    1818:	00000000 	sll	zero,zero,0x0
    181c:	86300000 	lh	s0,0(s1)
    1820:	00000000 	sll	zero,zero,0x0
    1824:	02001021 	addu	v0,s0,zero
    1828:	00402021 	addu	a0,v0,zero
    182c:	0c00006a 	jal	0x1a8
    1830:	00000000 	sll	zero,zero,0x0
    1834:	00408021 	addu	s0,v0,zero
    1838:	2a025666 	slti	v0,s0,22118
    183c:	10400006 	beqz	v0,0x1858
    1840:	00000000 	sll	zero,zero,0x0
    1844:	00101043 	sra	v0,s0,0x1
    1848:	00028400 	sll	s0,v0,0x10
    184c:	00108403 	sra	s0,s0,0x10
    1850:	08000629 	j	0x18a4
    1854:	00000000 	sll	zero,zero,0x0
    1858:	2a02799a 	slti	v0,s0,31130
    185c:	10400008 	beqz	v0,0x1880
    1860:	00000000 	sll	zero,zero,0x0
    1864:	3202ffff 	andi	v0,s0,0xffff
    1868:	2442d4cd 	addiu	v0,v0,-11059
    186c:	3042ffff 	andi	v0,v0,0xffff
    1870:	00028400 	sll	s0,v0,0x10
    1874:	00108403 	sra	s0,s0,0x10
    1878:	08000629 	j	0x18a4
    187c:	00000000 	sll	zero,zero,0x0
    1880:	3202ffff 	andi	v0,s0,0xffff
    1884:	24429a00 	addiu	v0,v0,-26112
    1888:	3042ffff 	andi	v0,v0,0xffff
    188c:	00028400 	sll	s0,v0,0x10
    1890:	00108403 	sra	s0,s0,0x10
    1894:	02001021 	addu	v0,s0,zero
    1898:	00021080 	sll	v0,v0,0x2
    189c:	00028400 	sll	s0,v0,0x10
    18a0:	00108403 	sra	s0,s0,0x10
    18a4:	86220000 	lh	v0,0(s1)
    18a8:	00000000 	sll	zero,zero,0x0
    18ac:	04410006 	bgez	v0,0x18c8
    18b0:	00000000 	sll	zero,zero,0x0
    18b4:	00101023 	negu	v0,s0
    18b8:	00021400 	sll	v0,v0,0x10
    18bc:	00021403 	sra	v0,v0,0x10
    18c0:	08000633 	j	0x18cc
    18c4:	00000000 	sll	zero,zero,0x0
    18c8:	02001021 	addu	v0,s0,zero
    18cc:	a6220000 	sh	v0,0(s1)
    18d0:	26520001 	addiu	s2,s2,1
    18d4:	26310002 	addiu	s1,s1,2
    18d8:	2a420009 	slti	v0,s2,9
    18dc:	1440ffcf 	bnez	v0,0x181c
    18e0:	00000000 	sll	zero,zero,0x0
    18e4:	03c0e821 	addu	sp,s8,zero
    18e8:	8fbf0024 	lw	ra,36(sp)
    18ec:	8fbe0020 	lw	s8,32(sp)
    18f0:	8fb2001c 	lw	s2,28(sp)
    18f4:	8fb10018 	lw	s1,24(sp)
    18f8:	8fb00014 	lw	s0,20(sp)
    18fc:	27bd0028 	addiu	sp,sp,40
    1900:	03e00008 	jr	ra
    1904:	00000000 	sll	zero,zero,0x0
    1908:	27bdffe0 	addiu	sp,sp,-32
    190c:	afbf001c 	sw	ra,28(sp)
    1910:	afbe0018 	sw	s8,24(sp)
    1914:	afb10014 	sw	s1,20(sp)
    1918:	afb00010 	sw	s0,16(sp)
    191c:	03a0f021 	addu	s8,sp,zero
    1920:	00808821 	addu	s1,a0,zero
    1924:	86220000 	lh	v0,0(s1)
    1928:	24045000 	addiu	a0,zero,20480
    192c:	00402821 	addu	a1,v0,zero
    1930:	0c000025 	jal	0x94
    1934:	00000000 	sll	zero,zero,0x0
    1938:	00408021 	addu	s0,v0,zero
    193c:	02001021 	addu	v0,s0,zero
    1940:	00402021 	addu	a0,v0,zero
    1944:	00002821 	addu	a1,zero,zero
    1948:	0c000004 	jal	0x10
    194c:	00000000 	sll	zero,zero,0x0
    1950:	00408021 	addu	s0,v0,zero
    1954:	02001021 	addu	v0,s0,zero
    1958:	00402021 	addu	a0,v0,zero
    195c:	24050100 	addiu	a1,zero,256
    1960:	0c000004 	jal	0x10
    1964:	00000000 	sll	zero,zero,0x0
    1968:	00408021 	addu	s0,v0,zero
    196c:	00101243 	sra	v0,s0,0x9
    1970:	00028400 	sll	s0,v0,0x10
    1974:	00108403 	sra	s0,s0,0x10
    1978:	2a020020 	slti	v0,s0,32
    197c:	1040000e 	beqz	v0,0x19b8
    1980:	00000000 	sll	zero,zero,0x0
    1984:	2a02ffe0 	slti	v0,s0,-32
    1988:	14400008 	bnez	v0,0x19ac
    198c:	00000000 	sll	zero,zero,0x0
    1990:	3202ffff 	andi	v0,s0,0xffff
    1994:	24420020 	addiu	v0,v0,32
    1998:	3042ffff 	andi	v0,v0,0xffff
    199c:	00021400 	sll	v0,v0,0x10
    19a0:	00021403 	sra	v0,v0,0x10
    19a4:	0800066c 	j	0x19b0
    19a8:	00000000 	sll	zero,zero,0x0
    19ac:	00001021 	addu	v0,zero,zero
    19b0:	0800066f 	j	0x19bc
    19b4:	00000000 	sll	zero,zero,0x0
    19b8:	2402003f 	addiu	v0,zero,63
    19bc:	a6220000 	sh	v0,0(s1)
    19c0:	26310002 	addiu	s1,s1,2
    19c4:	86220000 	lh	v0,0(s1)
    19c8:	24045000 	addiu	a0,zero,20480
    19cc:	00402821 	addu	a1,v0,zero
    19d0:	0c000025 	jal	0x94
    19d4:	00000000 	sll	zero,zero,0x0
    19d8:	00408021 	addu	s0,v0,zero
    19dc:	02001021 	addu	v0,s0,zero
    19e0:	00402021 	addu	a0,v0,zero
    19e4:	00002821 	addu	a1,zero,zero
    19e8:	0c000004 	jal	0x10
    19ec:	00000000 	sll	zero,zero,0x0
    19f0:	00408021 	addu	s0,v0,zero
    19f4:	02001021 	addu	v0,s0,zero
    19f8:	00402021 	addu	a0,v0,zero
    19fc:	24050100 	addiu	a1,zero,256
    1a00:	0c000004 	jal	0x10
    1a04:	00000000 	sll	zero,zero,0x0
    1a08:	00408021 	addu	s0,v0,zero
    1a0c:	00101243 	sra	v0,s0,0x9
    1a10:	00028400 	sll	s0,v0,0x10
    1a14:	00108403 	sra	s0,s0,0x10
    1a18:	2a020020 	slti	v0,s0,32
    1a1c:	1040000e 	beqz	v0,0x1a58
    1a20:	00000000 	sll	zero,zero,0x0
    1a24:	2a02ffe0 	slti	v0,s0,-32
    1a28:	14400008 	bnez	v0,0x1a4c
    1a2c:	00000000 	sll	zero,zero,0x0
    1a30:	3202ffff 	andi	v0,s0,0xffff
    1a34:	24420020 	addiu	v0,v0,32
    1a38:	3042ffff 	andi	v0,v0,0xffff
    1a3c:	00021400 	sll	v0,v0,0x10
    1a40:	00021403 	sra	v0,v0,0x10
    1a44:	08000694 	j	0x1a50
    1a48:	00000000 	sll	zero,zero,0x0
    1a4c:	00001021 	addu	v0,zero,zero
    1a50:	08000697 	j	0x1a5c
    1a54:	00000000 	sll	zero,zero,0x0
    1a58:	2402003f 	addiu	v0,zero,63
    1a5c:	a6220000 	sh	v0,0(s1)
    1a60:	26310002 	addiu	s1,s1,2
    1a64:	86220000 	lh	v0,0(s1)
    1a68:	24045000 	addiu	a0,zero,20480
    1a6c:	00402821 	addu	a1,v0,zero
    1a70:	0c000025 	jal	0x94
    1a74:	00000000 	sll	zero,zero,0x0
    1a78:	00408021 	addu	s0,v0,zero
    1a7c:	02001021 	addu	v0,s0,zero
    1a80:	00402021 	addu	a0,v0,zero
    1a84:	24050800 	addiu	a1,zero,2048
    1a88:	0c000004 	jal	0x10
    1a8c:	00000000 	sll	zero,zero,0x0
    1a90:	00408021 	addu	s0,v0,zero
    1a94:	02001021 	addu	v0,s0,zero
    1a98:	00402021 	addu	a0,v0,zero
    1a9c:	24050100 	addiu	a1,zero,256
    1aa0:	0c000004 	jal	0x10
    1aa4:	00000000 	sll	zero,zero,0x0
    1aa8:	00408021 	addu	s0,v0,zero
    1aac:	00101243 	sra	v0,s0,0x9
    1ab0:	00028400 	sll	s0,v0,0x10
    1ab4:	00108403 	sra	s0,s0,0x10
    1ab8:	2a020010 	slti	v0,s0,16
    1abc:	1040000e 	beqz	v0,0x1af8
    1ac0:	00000000 	sll	zero,zero,0x0
    1ac4:	2a02fff0 	slti	v0,s0,-16
    1ac8:	14400008 	bnez	v0,0x1aec
    1acc:	00000000 	sll	zero,zero,0x0
    1ad0:	3202ffff 	andi	v0,s0,0xffff
    1ad4:	24420010 	addiu	v0,v0,16
    1ad8:	3042ffff 	andi	v0,v0,0xffff
    1adc:	00021400 	sll	v0,v0,0x10
    1ae0:	00021403 	sra	v0,v0,0x10
    1ae4:	080006bc 	j	0x1af0
    1ae8:	00000000 	sll	zero,zero,0x0
    1aec:	00001021 	addu	v0,zero,zero
    1af0:	080006bf 	j	0x1afc
    1af4:	00000000 	sll	zero,zero,0x0
    1af8:	2402001f 	addiu	v0,zero,31
    1afc:	a6220000 	sh	v0,0(s1)
    1b00:	26310002 	addiu	s1,s1,2
    1b04:	86220000 	lh	v0,0(s1)
    1b08:	24045000 	addiu	a0,zero,20480
    1b0c:	00402821 	addu	a1,v0,zero
    1b10:	0c000025 	jal	0x94
    1b14:	00000000 	sll	zero,zero,0x0
    1b18:	00408021 	addu	s0,v0,zero
    1b1c:	02001021 	addu	v0,s0,zero
    1b20:	00402021 	addu	a0,v0,zero
    1b24:	2405f600 	addiu	a1,zero,-2560
    1b28:	0c000004 	jal	0x10
    1b2c:	00000000 	sll	zero,zero,0x0
    1b30:	00408021 	addu	s0,v0,zero
    1b34:	02001021 	addu	v0,s0,zero
    1b38:	00402021 	addu	a0,v0,zero
    1b3c:	24050100 	addiu	a1,zero,256
    1b40:	0c000004 	jal	0x10
    1b44:	00000000 	sll	zero,zero,0x0
    1b48:	00408021 	addu	s0,v0,zero
    1b4c:	00101243 	sra	v0,s0,0x9
    1b50:	00028400 	sll	s0,v0,0x10
    1b54:	00108403 	sra	s0,s0,0x10
    1b58:	2a020010 	slti	v0,s0,16
    1b5c:	1040000e 	beqz	v0,0x1b98
    1b60:	00000000 	sll	zero,zero,0x0
    1b64:	2a02fff0 	slti	v0,s0,-16
    1b68:	14400008 	bnez	v0,0x1b8c
    1b6c:	00000000 	sll	zero,zero,0x0
    1b70:	3202ffff 	andi	v0,s0,0xffff
    1b74:	24420010 	addiu	v0,v0,16
    1b78:	3042ffff 	andi	v0,v0,0xffff
    1b7c:	00021400 	sll	v0,v0,0x10
    1b80:	00021403 	sra	v0,v0,0x10
    1b84:	080006e4 	j	0x1b90
    1b88:	00000000 	sll	zero,zero,0x0
    1b8c:	00001021 	addu	v0,zero,zero
    1b90:	080006e7 	j	0x1b9c
    1b94:	00000000 	sll	zero,zero,0x0
    1b98:	2402001f 	addiu	v0,zero,31
    1b9c:	a6220000 	sh	v0,0(s1)
    1ba0:	26310002 	addiu	s1,s1,2
    1ba4:	86220000 	lh	v0,0(s1)
    1ba8:	2404368c 	addiu	a0,zero,13964
    1bac:	00402821 	addu	a1,v0,zero
    1bb0:	0c000025 	jal	0x94
    1bb4:	00000000 	sll	zero,zero,0x0
    1bb8:	00408021 	addu	s0,v0,zero
    1bbc:	02001021 	addu	v0,s0,zero
    1bc0:	00402021 	addu	a0,v0,zero
    1bc4:	2405005e 	addiu	a1,zero,94
    1bc8:	0c000004 	jal	0x10
    1bcc:	00000000 	sll	zero,zero,0x0
    1bd0:	00408021 	addu	s0,v0,zero
    1bd4:	02001021 	addu	v0,s0,zero
    1bd8:	00402021 	addu	a0,v0,zero
    1bdc:	24050100 	addiu	a1,zero,256
    1be0:	0c000004 	jal	0x10
    1be4:	00000000 	sll	zero,zero,0x0
    1be8:	00408021 	addu	s0,v0,zero
    1bec:	00101243 	sra	v0,s0,0x9
    1bf0:	00028400 	sll	s0,v0,0x10
    1bf4:	00108403 	sra	s0,s0,0x10
    1bf8:	2a020008 	slti	v0,s0,8
    1bfc:	1040000e 	beqz	v0,0x1c38
    1c00:	00000000 	sll	zero,zero,0x0
    1c04:	2a02fff8 	slti	v0,s0,-8
    1c08:	14400008 	bnez	v0,0x1c2c
    1c0c:	00000000 	sll	zero,zero,0x0
    1c10:	3202ffff 	andi	v0,s0,0xffff
    1c14:	24420008 	addiu	v0,v0,8
    1c18:	3042ffff 	andi	v0,v0,0xffff
    1c1c:	00021400 	sll	v0,v0,0x10
    1c20:	00021403 	sra	v0,v0,0x10
    1c24:	0800070c 	j	0x1c30
    1c28:	00000000 	sll	zero,zero,0x0
    1c2c:	00001021 	addu	v0,zero,zero
    1c30:	0800070f 	j	0x1c3c
    1c34:	00000000 	sll	zero,zero,0x0
    1c38:	2402000f 	addiu	v0,zero,15
    1c3c:	a6220000 	sh	v0,0(s1)
    1c40:	26310002 	addiu	s1,s1,2
    1c44:	86220000 	lh	v0,0(s1)
    1c48:	24043c00 	addiu	a0,zero,15360
    1c4c:	00402821 	addu	a1,v0,zero
    1c50:	0c000025 	jal	0x94
    1c54:	00000000 	sll	zero,zero,0x0
    1c58:	00408021 	addu	s0,v0,zero
    1c5c:	02001021 	addu	v0,s0,zero
    1c60:	00402021 	addu	a0,v0,zero
    1c64:	2405f900 	addiu	a1,zero,-1792
    1c68:	0c000004 	jal	0x10
    1c6c:	00000000 	sll	zero,zero,0x0
    1c70:	00408021 	addu	s0,v0,zero
    1c74:	02001021 	addu	v0,s0,zero
    1c78:	00402021 	addu	a0,v0,zero
    1c7c:	24050100 	addiu	a1,zero,256
    1c80:	0c000004 	jal	0x10
    1c84:	00000000 	sll	zero,zero,0x0
    1c88:	00408021 	addu	s0,v0,zero
    1c8c:	00101243 	sra	v0,s0,0x9
    1c90:	00028400 	sll	s0,v0,0x10
    1c94:	00108403 	sra	s0,s0,0x10
    1c98:	2a020008 	slti	v0,s0,8
    1c9c:	1040000e 	beqz	v0,0x1cd8
    1ca0:	00000000 	sll	zero,zero,0x0
    1ca4:	2a02fff8 	slti	v0,s0,-8
    1ca8:	14400008 	bnez	v0,0x1ccc
    1cac:	00000000 	sll	zero,zero,0x0
    1cb0:	3202ffff 	andi	v0,s0,0xffff
    1cb4:	24420008 	addiu	v0,v0,8
    1cb8:	3042ffff 	andi	v0,v0,0xffff
    1cbc:	00021400 	sll	v0,v0,0x10
    1cc0:	00021403 	sra	v0,v0,0x10
    1cc4:	08000734 	j	0x1cd0
    1cc8:	00000000 	sll	zero,zero,0x0
    1ccc:	00001021 	addu	v0,zero,zero
    1cd0:	08000737 	j	0x1cdc
    1cd4:	00000000 	sll	zero,zero,0x0
    1cd8:	2402000f 	addiu	v0,zero,15
    1cdc:	a6220000 	sh	v0,0(s1)
    1ce0:	26310002 	addiu	s1,s1,2
    1ce4:	86220000 	lh	v0,0(s1)
    1ce8:	24042156 	addiu	a0,zero,8534
    1cec:	00402821 	addu	a1,v0,zero
    1cf0:	0c000025 	jal	0x94
    1cf4:	00000000 	sll	zero,zero,0x0
    1cf8:	00408021 	addu	s0,v0,zero
    1cfc:	02001021 	addu	v0,s0,zero
    1d00:	00402021 	addu	a0,v0,zero
    1d04:	2405feab 	addiu	a1,zero,-341
    1d08:	0c000004 	jal	0x10
    1d0c:	00000000 	sll	zero,zero,0x0
    1d10:	00408021 	addu	s0,v0,zero
    1d14:	02001021 	addu	v0,s0,zero
    1d18:	00402021 	addu	a0,v0,zero
    1d1c:	24050100 	addiu	a1,zero,256
    1d20:	0c000004 	jal	0x10
    1d24:	00000000 	sll	zero,zero,0x0
    1d28:	00408021 	addu	s0,v0,zero
    1d2c:	00101243 	sra	v0,s0,0x9
    1d30:	00028400 	sll	s0,v0,0x10
    1d34:	00108403 	sra	s0,s0,0x10
    1d38:	2a020004 	slti	v0,s0,4
    1d3c:	1040000e 	beqz	v0,0x1d78
    1d40:	00000000 	sll	zero,zero,0x0
    1d44:	2a02fffc 	slti	v0,s0,-4
    1d48:	14400008 	bnez	v0,0x1d6c
    1d4c:	00000000 	sll	zero,zero,0x0
    1d50:	3202ffff 	andi	v0,s0,0xffff
    1d54:	24420004 	addiu	v0,v0,4
    1d58:	3042ffff 	andi	v0,v0,0xffff
    1d5c:	00021400 	sll	v0,v0,0x10
    1d60:	00021403 	sra	v0,v0,0x10
    1d64:	0800075c 	j	0x1d70
    1d68:	00000000 	sll	zero,zero,0x0
    1d6c:	00001021 	addu	v0,zero,zero
    1d70:	0800075f 	j	0x1d7c
    1d74:	00000000 	sll	zero,zero,0x0
    1d78:	24020007 	addiu	v0,zero,7
    1d7c:	a6220000 	sh	v0,0(s1)
    1d80:	26310002 	addiu	s1,s1,2
    1d84:	86220000 	lh	v0,0(s1)
    1d88:	2404234c 	addiu	a0,zero,9036
    1d8c:	00402821 	addu	a1,v0,zero
    1d90:	0c000025 	jal	0x94
    1d94:	00000000 	sll	zero,zero,0x0
    1d98:	00408021 	addu	s0,v0,zero
    1d9c:	02001021 	addu	v0,s0,zero
    1da0:	00402021 	addu	a0,v0,zero
    1da4:	2405fb88 	addiu	a1,zero,-1144
    1da8:	0c000004 	jal	0x10
    1dac:	00000000 	sll	zero,zero,0x0
    1db0:	00408021 	addu	s0,v0,zero
    1db4:	02001021 	addu	v0,s0,zero
    1db8:	00402021 	addu	a0,v0,zero
    1dbc:	24050100 	addiu	a1,zero,256
    1dc0:	0c000004 	jal	0x10
    1dc4:	00000000 	sll	zero,zero,0x0
    1dc8:	00408021 	addu	s0,v0,zero
    1dcc:	00101243 	sra	v0,s0,0x9
    1dd0:	00028400 	sll	s0,v0,0x10
    1dd4:	00108403 	sra	s0,s0,0x10
    1dd8:	2a020004 	slti	v0,s0,4
    1ddc:	1040000e 	beqz	v0,0x1e18
    1de0:	00000000 	sll	zero,zero,0x0
    1de4:	2a02fffc 	slti	v0,s0,-4
    1de8:	14400008 	bnez	v0,0x1e0c
    1dec:	00000000 	sll	zero,zero,0x0
    1df0:	3202ffff 	andi	v0,s0,0xffff
    1df4:	24420004 	addiu	v0,v0,4
    1df8:	3042ffff 	andi	v0,v0,0xffff
    1dfc:	00021400 	sll	v0,v0,0x10
    1e00:	00021403 	sra	v0,v0,0x10
    1e04:	08000784 	j	0x1e10
    1e08:	00000000 	sll	zero,zero,0x0
    1e0c:	00001021 	addu	v0,zero,zero
    1e10:	08000787 	j	0x1e1c
    1e14:	00000000 	sll	zero,zero,0x0
    1e18:	24020007 	addiu	v0,zero,7
    1e1c:	a6220000 	sh	v0,0(s1)
    1e20:	26310002 	addiu	s1,s1,2
    1e24:	03c0e821 	addu	sp,s8,zero
    1e28:	8fbf001c 	lw	ra,28(sp)
    1e2c:	8fbe0018 	lw	s8,24(sp)
    1e30:	8fb10014 	lw	s1,20(sp)
    1e34:	8fb00010 	lw	s0,16(sp)
    1e38:	27bd0020 	addiu	sp,sp,32
    1e3c:	03e00008 	jr	ra
    1e40:	00000000 	sll	zero,zero,0x0
    1e44:	27bdffc0 	addiu	sp,sp,-64
    1e48:	afbf003c 	sw	ra,60(sp)
    1e4c:	afbe0038 	sw	s8,56(sp)
    1e50:	03a0f021 	addu	s8,sp,zero
    1e54:	afc40040 	sw	a0,64(s8)
    1e58:	afc50044 	sw	a1,68(s8)
    1e5c:	8fc40040 	lw	a0,64(s8)
    1e60:	27c20010 	addiu	v0,s8,16
    1e64:	00402821 	addu	a1,v0,zero
    1e68:	0c00012a 	jal	0x4a8
    1e6c:	00000000 	sll	zero,zero,0x0
    1e70:	27c20010 	addiu	v0,s8,16
    1e74:	00402021 	addu	a0,v0,zero
    1e78:	8fc50044 	lw	a1,68(s8)
    1e7c:	0c000506 	jal	0x1418
    1e80:	00000000 	sll	zero,zero,0x0
    1e84:	8fc40044 	lw	a0,68(s8)
    1e88:	0c0005fc 	jal	0x17f0
    1e8c:	00000000 	sll	zero,zero,0x0
    1e90:	8fc40044 	lw	a0,68(s8)
    1e94:	0c000642 	jal	0x1908
    1e98:	00000000 	sll	zero,zero,0x0
    1e9c:	03c0e821 	addu	sp,s8,zero
    1ea0:	8fbf003c 	lw	ra,60(sp)
    1ea4:	8fbe0038 	lw	s8,56(sp)
    1ea8:	27bd0040 	addiu	sp,sp,64
    1eac:	03e00008 	jr	ra
    1eb0:	00000000 	sll	zero,zero,0x0
    1eb4:	27bdfe90 	addiu	sp,sp,-368
    1eb8:	afbf016c 	sw	ra,364(sp)
    1ebc:	afbe0168 	sw	s8,360(sp)
    1ec0:	03a0f021 	addu	s8,sp,zero
    1ec4:	afc00010 	sw	zero,16(s8)
    1ec8:	afc00014 	sw	zero,20(s8)
    1ecc:	080007c4 	j	0x1f10
    1ed0:	00000000 	sll	zero,zero,0x0
    1ed4:	8fc20014 	lw	v0,20(s8)
    1ed8:	8fc40014 	lw	a0,20(s8)
    1edc:	3c030000 	lui	v1,0x0
    1ee0:	00042040 	sll	a0,a0,0x1
    1ee4:	24632150 	addiu	v1,v1,8528
    1ee8:	00831821 	addu	v1,a0,v1
    1eec:	84630000 	lh	v1,0(v1)
    1ef0:	00021040 	sll	v0,v0,0x1
    1ef4:	27c40010 	addiu	a0,s8,16
    1ef8:	00821021 	addu	v0,a0,v0
    1efc:	a4430008 	sh	v1,8(v0)
    1f00:	8fc20014 	lw	v0,20(s8)
    1f04:	00000000 	sll	zero,zero,0x0
    1f08:	24420001 	addiu	v0,v0,1
    1f0c:	afc20014 	sw	v0,20(s8)
    1f10:	8fc20014 	lw	v0,20(s8)
    1f14:	00000000 	sll	zero,zero,0x0
    1f18:	284200a0 	slti	v0,v0,160
    1f1c:	1440ffed 	bnez	v0,0x1ed4
    1f20:	00000000 	sll	zero,zero,0x0
    1f24:	27c30018 	addiu	v1,s8,24
    1f28:	27c20158 	addiu	v0,s8,344
    1f2c:	00602021 	addu	a0,v1,zero
    1f30:	00402821 	addu	a1,v0,zero
    1f34:	0c000791 	jal	0x1e44
    1f38:	00000000 	sll	zero,zero,0x0
    1f3c:	afc00014 	sw	zero,20(s8)
    1f40:	080007e9 	j	0x1fa4
    1f44:	00000000 	sll	zero,zero,0x0
    1f48:	8fc20014 	lw	v0,20(s8)
    1f4c:	00000000 	sll	zero,zero,0x0
    1f50:	00021040 	sll	v0,v0,0x1
    1f54:	27c30010 	addiu	v1,s8,16
    1f58:	00621021 	addu	v0,v1,v0
    1f5c:	84430008 	lh	v1,8(v0)
    1f60:	8fc40014 	lw	a0,20(s8)
    1f64:	3c020000 	lui	v0,0x0
    1f68:	00042040 	sll	a0,a0,0x1
    1f6c:	24422290 	addiu	v0,v0,8848
    1f70:	00821021 	addu	v0,a0,v0
    1f74:	84420000 	lh	v0,0(v0)
    1f78:	00000000 	sll	zero,zero,0x0
    1f7c:	00621026 	xor	v0,v1,v0
    1f80:	0002102b 	sltu	v0,zero,v0
    1f84:	8fc30010 	lw	v1,16(s8)
    1f88:	00000000 	sll	zero,zero,0x0
    1f8c:	00621021 	addu	v0,v1,v0
    1f90:	afc20010 	sw	v0,16(s8)
    1f94:	8fc20014 	lw	v0,20(s8)
    1f98:	00000000 	sll	zero,zero,0x0
    1f9c:	24420001 	addiu	v0,v0,1
    1fa0:	afc20014 	sw	v0,20(s8)
    1fa4:	8fc20014 	lw	v0,20(s8)
    1fa8:	00000000 	sll	zero,zero,0x0
    1fac:	284200a0 	slti	v0,v0,160
    1fb0:	1440ffe5 	bnez	v0,0x1f48
    1fb4:	00000000 	sll	zero,zero,0x0
    1fb8:	afc00014 	sw	zero,20(s8)
    1fbc:	08000808 	j	0x2020
    1fc0:	00000000 	sll	zero,zero,0x0
    1fc4:	8fc20014 	lw	v0,20(s8)
    1fc8:	00000000 	sll	zero,zero,0x0
    1fcc:	00021040 	sll	v0,v0,0x1
    1fd0:	27c30010 	addiu	v1,s8,16
    1fd4:	00621021 	addu	v0,v1,v0
    1fd8:	84430148 	lh	v1,328(v0)
    1fdc:	8fc40014 	lw	a0,20(s8)
    1fe0:	3c020000 	lui	v0,0x0
    1fe4:	00042040 	sll	a0,a0,0x1
    1fe8:	244223d0 	addiu	v0,v0,9168
    1fec:	00821021 	addu	v0,a0,v0
    1ff0:	84420000 	lh	v0,0(v0)
    1ff4:	00000000 	sll	zero,zero,0x0
    1ff8:	00621026 	xor	v0,v1,v0
    1ffc:	0002102b 	sltu	v0,zero,v0
    2000:	8fc30010 	lw	v1,16(s8)
    2004:	00000000 	sll	zero,zero,0x0
    2008:	00621021 	addu	v0,v1,v0
    200c:	afc20010 	sw	v0,16(s8)
    2010:	8fc20014 	lw	v0,20(s8)
    2014:	00000000 	sll	zero,zero,0x0
    2018:	24420001 	addiu	v0,v0,1
    201c:	afc20014 	sw	v0,20(s8)
    2020:	8fc20014 	lw	v0,20(s8)
    2024:	00000000 	sll	zero,zero,0x0
    2028:	28420008 	slti	v0,v0,8
    202c:	1440ffe5 	bnez	v0,0x1fc4
    2030:	00000000 	sll	zero,zero,0x0
    2034:	8fc20010 	lw	v0,16(s8)
    2038:	03c0e821 	addu	sp,s8,zero
    203c:	8fbf016c 	lw	ra,364(sp)
    2040:	8fbe0168 	lw	s8,360(sp)
    2044:	27bd0170 	addiu	sp,sp,368
    2048:	03e00008 	jr	ra
    204c:	00000000 	sll	zero,zero,0x0

Disassembly of section .rodata:

00002050 <.rodata>:
    2050:	08070606 	j	0x1c1818
    2054:	05050505 	0x5050505
    2058:	04040404 	0x4040404
    205c:	04040404 	0x4040404
    2060:	03030303 	0x3030303
    2064:	03030303 	0x3030303
    2068:	03030303 	0x3030303
    206c:	03030303 	0x3030303
    2070:	02020202 	0x2020202
    2074:	02020202 	0x2020202
    2078:	02020202 	0x2020202
    207c:	02020202 	0x2020202
    2080:	02020202 	0x2020202
    2084:	02020202 	0x2020202
    2088:	02020202 	0x2020202
    208c:	02020202 	0x2020202
    2090:	01010101 	0x1010101
    2094:	01010101 	0x1010101
    2098:	01010101 	0x1010101
    209c:	01010101 	0x1010101
    20a0:	01010101 	0x1010101
    20a4:	01010101 	0x1010101
    20a8:	01010101 	0x1010101
    20ac:	01010101 	0x1010101
    20b0:	01010101 	0x1010101
    20b4:	01010101 	0x1010101
    20b8:	01010101 	0x1010101
    20bc:	01010101 	0x1010101
    20c0:	01010101 	0x1010101
    20c4:	01010101 	0x1010101
    20c8:	01010101 	0x1010101
    20cc:	01010101 	0x1010101
	...
    2150:	00512a66 	0x512a66
    2154:	0765d7cd 	0x765d7cd
    2158:	1dbe7416 	0x1dbe7416
    215c:	4ffb8de1 	c3	0x1fb8de1
    2160:	b5fb8b92 	0xb5fb8b92
    2164:	82ef063c 	lb	t7,1596(s7)
    2168:	3d80f3f0 	0x3d80f3f0
    216c:	bbfba995 	swr	k1,-22123(ra)
    2170:	1a8ecc24 	0x1a8ecc24
    2174:	0eebc06f 	jal	0xbaf01bc
    2178:	f9dbcf15 	0xf9dbcf15
    217c:	9621ff3f 	lhu	at,-193(s1)
    2180:	9c0c125a 	0x9c0c125a
    2184:	891c3ba0 	lwl	gp,15264(t0)
    2188:	fa8f2c9a 	0xfa8f2c9a
    218c:	2c6a137a 	sltiu	t2,v1,4986
    2190:	1ebdf891 	0x1ebdf891
    2194:	23a38412 	addi	v1,sp,-31726
    2198:	9d6bc8b5 	0x9d6bc8b5
    219c:	463e7eab 	c1	0x3e7eab
    21a0:	cf69c1c5 	lwc3	$9,-15931(k1)
    21a4:	ab8a1ed8 	swl	t2,7896(gp)
    21a8:	06996dd1 	0x6996dd1
    21ac:	0e1f5673 	jal	0x87d59cc
    21b0:	ea3cb172 	swc2	$28,-20110(s1)
    21b4:	306323d9 	andi	v1,v1,0x23d9
    21b8:	a02030c0 	sb	zero,12480(at)
    21bc:	542aba4e 	0x542aba4e
    21c0:	cab34f35 	lwc2	$19,20277(s5)
    21c4:	270344f4 	addiu	v1,t8,17652
    21c8:	d338bc52 	0xd338bc52
    21cc:	d6c89624 	0xd6c89624
    21d0:	00cf6bdc 	0xcf6bdc
    21d4:	09d51bff 	j	0x7546ffc
    21d8:	8bdaa857 	lwl	k0,-22441(s8)
    21dc:	7557f6c0 	jalx	0x55fdb00
    21e0:	320d012c 	andi	t5,s0,0x12c
    21e4:	9c2d237f 	0x9c2d237f
    21e8:	715ee661 	0x715ee661
    21ec:	b0a9c7f5 	0xb0a9c7f5
    21f0:	e27dab33 	swc0	$29,-21709(s3)
    21f4:	f1a48a7e 	0xf1a48a7e
    21f8:	f38a86fd 	0xf38a86fd
    21fc:	218469f6 	addi	a0,t4,27126
    2200:	0d56ee05 	jal	0x55bb814
    2204:	a8e1bd09 	swl	at,-17143(a3)
    2208:	35dcfbb8 	ori	gp,t6,0xfbb8
    220c:	c6e75637 	lwc1	$f7,22071(s7)
    2210:	cb107f86 	lwc2	$16,32646(t8)
    2214:	4131dee7 	0x4131dee7
    2218:	ce432907 	lwc3	$3,10503(s2)
    221c:	51091a28 	0x51091a28
    2220:	972686d9 	lhu	a2,-31015(t9)
    2224:	0ed0b268 	jal	0xb42c9a0
    2228:	b031899d 	0xb031899d
    222c:	7ea5cc4b 	0x7ea5cc4b
    2230:	232e4749 	addi	t6,t9,18249
    2234:	0963e0c4 	j	0x58f8310
    2238:	c615e91c 	lwc1	$f21,-5860(s0)
    223c:	1bd27479 	0x1bd27479
    2240:	836a4623 	lb	t2,17955(k1)
    2244:	70a485bf 	0x70a485bf
    2248:	7c4d9492 	0x7c4d9492
    224c:	2ff4ea2d 	sltiu	s4,ra,-5587
    2250:	a9a723e8 	swl	a3,9192(t5)
    2254:	a7eb3d3b 	sh	t3,15675(ra)
    2258:	d0171c2c 	0xd0171c2c
    225c:	a33bcdc8 	sb	k1,-12856(t9)
    2260:	e91f1d61 	swc2	$31,7521(t0)
    2264:	43c535cd 	c0	0x1c535cd
    2268:	f3edba6c 	0xf3edba6c
    226c:	da49682b 	0xda49682b
    2270:	1ede09b7 	0x1ede09b7
    2274:	0c6972e4 	jal	0x1a5cb90
    2278:	b100f528 	0xb100f528
    227c:	5e14e0e5 	0x5e14e0e5
    2280:	d73ad15e 	0xd73ad15e
    2284:	c60fe5fe 	lwc1	$f15,-6658(s0)
    2288:	7d3a0fb4 	0x7d3a0fb4
    228c:	28dd3b37 	slti	sp,a2,15159
    2290:	00502a60 	0x502a60
    2294:	0760d7d0 	bltz	k1,0xffff81d8
    2298:	1dc07410 	bgtz	t6,0x1f2dc
    229c:	50008de0 	0x50008de0
    22a0:	b6008b90 	0xb6008b90
    22a4:	82f00640 	lb	s0,1600(s7)
    22a8:	3d80f3f0 	0x3d80f3f0
    22ac:	bc00a990 	0xbc00a990
    22b0:	1a90cc20 	0x1a90cc20
    22b4:	0ef0c070 	jal	0xbc301c0
    22b8:	f9e0cf10 	0xf9e0cf10
    22bc:	9620ff40 	lhu	zero,-192(s1)
    22c0:	9c101260 	0x9c101260
    22c4:	89203ba0 	lwl	zero,15264(t1)
    22c8:	fa902ca0 	0xfa902ca0
    22cc:	2c701380 	sltiu	s0,v1,4992
    22d0:	1ec0f890 	bgtz	s6,0x514
    22d4:	23a08410 	addi	zero,sp,-31728
    22d8:	9d70c8b0 	0x9d70c8b0
    22dc:	46407eb0 	c1	0x407eb0
    22e0:	cf70c1c0 	lwc3	$16,-15936(k1)
    22e4:	ab901ee0 	swl	s0,7904(gp)
    22e8:	06a06dd0 	bltz	s5,0x1da2c
    22ec:	0e205670 	jal	0x88159c0
    22f0:	ea40b170 	swc2	$0,-20112(s2)
    22f4:	306023e0 	andi	zero,v1,0x23e0
    22f8:	a02030c0 	sb	zero,12480(at)
    22fc:	5430ba50 	0x5430ba50
    2300:	cab04f30 	lwc2	$16,20272(s5)
    2304:	270044f0 	addiu	zero,t8,17648
    2308:	d340bc50 	0xd340bc50
    230c:	d6d09620 	0xd6d09620
    2310:	00d06be0 	0xd06be0
    2314:	09d01c00 	j	0x7407000
    2318:	8be0a850 	lwl	zero,-22448(ra)
    231c:	7550f6c0 	jalx	0x543db00
    2320:	32100130 	andi	s0,s0,0x130
    2324:	9c302380 	0x9c302380
    2328:	7160e660 	0x7160e660
    232c:	b0b0c7f0 	0xb0b0c7f0
    2330:	e280ab30 	swc0	$0,-21712(s4)
    2334:	f1a08a80 	0xf1a08a80
    2338:	f3908700 	0xf3908700
    233c:	218069f0 	addi	zero,t4,27120
    2340:	0d50ee00 	jal	0x543b800
    2344:	a8e0bd10 	swl	zero,-17136(a3)
    2348:	35e0fbc0 	ori	zero,t7,0xfbc0
    234c:	c6e05630 	lwc1	$f0,22064(s7)
    2350:	cb107f80 	lwc2	$16,32640(t8)
    2354:	4130dee0 	0x4130dee0
    2358:	ce402900 	lwc3	$0,10496(s2)
    235c:	51101a30 	0x51101a30
    2360:	972086e0 	lhu	zero,-31008(t9)
    2364:	0ed0b270 	jal	0xb42c9c0
    2368:	b03089a0 	0xb03089a0
    236c:	7ea0cc50 	0x7ea0cc50
    2370:	23304750 	addi	s0,t9,18256
    2374:	0960e0c0 	j	0x5838300
    2378:	c610e920 	lwc1	$f16,-5856(s0)
    237c:	1bd07480 	0x1bd07480
    2380:	83704620 	lb	s0,17952(k1)
    2384:	70a085c0 	0x70a085c0
    2388:	7c509490 	0x7c509490
    238c:	2ff0ea30 	sltiu	s0,ra,-5584
    2390:	a9a023f0 	swl	zero,9200(t5)
    2394:	a7f03d40 	sh	s0,15680(ra)
    2398:	d0101c30 	0xd0101c30
    239c:	a340cdd0 	sb	zero,-12848(k0)
    23a0:	e9201d60 	swc2	$0,7520(t1)
    23a4:	43c035d0 	c0	0x1c035d0
    23a8:	f3f0ba70 	0xf3f0ba70
    23ac:	da506830 	0xda506830
    23b0:	1ee009b0 	bgtz	s7,0x4a74
    23b4:	0c7072e0 	jal	0x1c1cb80
    23b8:	b100f530 	0xb100f530
    23bc:	5e10e0e0 	0x5e10e0e0
    23c0:	d740d160 	0xd740d160
    23c4:	c610e600 	lwc1	$f16,-6656(s0)
    23c8:	7d400fb0 	0x7d400fb0
    23cc:	28e03b30 	slti	zero,a3,15152
    23d0:	00200021 	addu	zero,at,zero
    23d4:	0016000d 	break	0x16
    23d8:	00070005 	0x70005
    23dc:	00030002 	srl	zero,v1,0x0

Disassembly of section .bss:

000023e0 <.bss>:
	...
