
adpcm.elf:     file format elf32-tradbigmips


Disassembly of section .text:

00000000 <.text>:
       0:	04800003 	bltz	a0,0x10
       4:	00801021 	addu	v0,a0,zero
       8:	03e00008 	jr	ra
       c:	00000000 	sll	zero,zero,0x0
      10:	03e00008 	jr	ra
      14:	00041023 	negu	v0,a0
      18:	27bdfff0 	addiu	sp,sp,-16
      1c:	afb2000c 	sw	s2,12(sp)
      20:	afb10008 	sw	s1,8(sp)
      24:	3c120000 	lui	s2,0x0
      28:	24110020 	addiu	s1,zero,32
      2c:	ae5133ec 	sw	s1,13292(s2)
      30:	afb00004 	sw	s0,4(sp)
      34:	3c120000 	lui	s2,0x0
      38:	24100008 	addiu	s0,zero,8
      3c:	ae503420 	sw	s0,13344(s2)
      40:	3c120000 	lui	s2,0x0
      44:	ae513488 	sw	s1,13448(s2)
      48:	3c110000 	lui	s1,0x0
      4c:	ae303438 	sw	s0,13368(s1)
      50:	3c100000 	lui	s0,0x0
      54:	ae00343c 	sw	zero,13372(s0)
      58:	3c100000 	lui	s0,0x0
      5c:	ae0034a8 	sw	zero,13480(s0)
      60:	3c100000 	lui	s0,0x0
      64:	ae003484 	sw	zero,13444(s0)
      68:	3c100000 	lui	s0,0x0
      6c:	ae003490 	sw	zero,13456(s0)
      70:	3c100000 	lui	s0,0x0
      74:	ae00349c 	sw	zero,13468(s0)
      78:	3c100000 	lui	s0,0x0
      7c:	ae0034c0 	sw	zero,13504(s0)
      80:	3c100000 	lui	s0,0x0
      84:	ae0033d0 	sw	zero,13264(s0)
      88:	3c100000 	lui	s0,0x0
      8c:	ae0033b8 	sw	zero,13240(s0)
      90:	3c100000 	lui	s0,0x0
      94:	ae003478 	sw	zero,13432(s0)
      98:	3c100000 	lui	s0,0x0
      9c:	ae003440 	sw	zero,13376(s0)
      a0:	3c100000 	lui	s0,0x0
      a4:	ae003474 	sw	zero,13428(s0)
      a8:	3c100000 	lui	s0,0x0
      ac:	ae003448 	sw	zero,13384(s0)
      b0:	3c100000 	lui	s0,0x0
      b4:	ae0033f8 	sw	zero,13304(s0)
      b8:	3c100000 	lui	s0,0x0
      bc:	ae0034a4 	sw	zero,13476(s0)
      c0:	3c100000 	lui	s0,0x0
      c4:	ae003424 	sw	zero,13348(s0)
      c8:	3c100000 	lui	s0,0x0
      cc:	ae003428 	sw	zero,13352(s0)
      d0:	3c100000 	lui	s0,0x0
      d4:	ae0033b4 	sw	zero,13236(s0)
      d8:	3c100000 	lui	s0,0x0
      dc:	ae0033cc 	sw	zero,13260(s0)
      e0:	3c100000 	lui	s0,0x0
      e4:	ae00348c 	sw	zero,13452(s0)
      e8:	3c100000 	lui	s0,0x0
      ec:	ae0034ac 	sw	zero,13484(s0)
      f0:	3c100000 	lui	s0,0x0
      f4:	ae003460 	sw	zero,13408(s0)
      f8:	3c100000 	lui	s0,0x0
      fc:	ae003498 	sw	zero,13464(s0)
     100:	3c100000 	lui	s0,0x0
     104:	ae0034a0 	sw	zero,13472(s0)
     108:	3c100000 	lui	s0,0x0
     10c:	ae00340c 	sw	zero,13324(s0)
     110:	3c100000 	lui	s0,0x0
     114:	3c0f0000 	lui	t7,0x0
     118:	ae0033d8 	sw	zero,13272(s0)
     11c:	3c100000 	lui	s0,0x0
     120:	25e3372c 	addiu	v1,t7,14124
     124:	3c020000 	lui	v0,0x0
     128:	3c190000 	lui	t9,0x0
     12c:	3c180000 	lui	t8,0x0
     130:	3c0e0000 	lui	t6,0x0
     134:	3c0d0000 	lui	t5,0x0
     138:	3c0c0000 	lui	t4,0x0
     13c:	3c0b0000 	lui	t3,0x0
     140:	ae0034b8 	sw	zero,13496(s0)
     144:	3c100000 	lui	s0,0x0
     148:	ae003410 	sw	zero,13328(s0)
     14c:	244a36d0 	addiu	t2,v0,14032
     150:	272938d4 	addiu	t1,t9,14548
     154:	270836e8 	addiu	t0,t8,14056
     158:	25c73b20 	addiu	a3,t6,15136
     15c:	25a63b50 	addiu	a2,t5,15184
     160:	25853b38 	addiu	a1,t4,15160
     164:	25643adc 	addiu	a0,t3,15068
     168:	ac4036d0 	sw	zero,14032(v0)
     16c:	ac600014 	sw	zero,20(v1)
     170:	ac600004 	sw	zero,4(v1)
     174:	ac600008 	sw	zero,8(v1)
     178:	ac60000c 	sw	zero,12(v1)
     17c:	ac600010 	sw	zero,16(v1)
     180:	3c100000 	lui	s0,0x0
     184:	3c020000 	lui	v0,0x0
     188:	3c030000 	lui	v1,0x0
     18c:	ae0033d4 	sw	zero,13268(s0)
     190:	af2038d4 	sw	zero,14548(t9)
     194:	ad400014 	sw	zero,20(t2)
     198:	ad200014 	sw	zero,20(t1)
     19c:	ad000014 	sw	zero,20(t0)
     1a0:	af0036e8 	sw	zero,14056(t8)
     1a4:	ade0372c 	sw	zero,14124(t7)
     1a8:	ad400004 	sw	zero,4(t2)
     1ac:	ad200004 	sw	zero,4(t1)
     1b0:	ad000004 	sw	zero,4(t0)
     1b4:	ad400008 	sw	zero,8(t2)
     1b8:	ad200008 	sw	zero,8(t1)
     1bc:	ad000008 	sw	zero,8(t0)
     1c0:	ad40000c 	sw	zero,12(t2)
     1c4:	ad20000c 	sw	zero,12(t1)
     1c8:	ad00000c 	sw	zero,12(t0)
     1cc:	ad400010 	sw	zero,16(t2)
     1d0:	ad200010 	sw	zero,16(t1)
     1d4:	ad000010 	sw	zero,16(t0)
     1d8:	adc03b20 	sw	zero,15136(t6)
     1dc:	ada03b50 	sw	zero,15184(t5)
     1e0:	ad803b38 	sw	zero,15160(t4)
     1e4:	ad603adc 	sw	zero,15068(t3)
     1e8:	ace00004 	sw	zero,4(a3)
     1ec:	acc00004 	sw	zero,4(a2)
     1f0:	aca00004 	sw	zero,4(a1)
     1f4:	ac800004 	sw	zero,4(a0)
     1f8:	244238ec 	addiu	v0,v0,14572
     1fc:	ace00008 	sw	zero,8(a3)
     200:	2463394c 	addiu	v1,v1,14668
     204:	acc00008 	sw	zero,8(a2)
     208:	aca00008 	sw	zero,8(a1)
     20c:	ac800008 	sw	zero,8(a0)
     210:	ace00014 	sw	zero,20(a3)
     214:	acc00014 	sw	zero,20(a2)
     218:	aca00014 	sw	zero,20(a1)
     21c:	ac800014 	sw	zero,20(a0)
     220:	ace0000c 	sw	zero,12(a3)
     224:	acc0000c 	sw	zero,12(a2)
     228:	aca0000c 	sw	zero,12(a1)
     22c:	ac80000c 	sw	zero,12(a0)
     230:	ace00010 	sw	zero,16(a3)
     234:	acc00010 	sw	zero,16(a2)
     238:	aca00010 	sw	zero,16(a1)
     23c:	ac800010 	sw	zero,16(a0)
     240:	ac400000 	sw	zero,0(v0)
     244:	24420004 	addiu	v0,v0,4
     248:	1443fffd 	bne	v0,v1,0x240
     24c:	3c050000 	lui	a1,0x0
     250:	3c040000 	lui	a0,0x0
     254:	24a33af4 	addiu	v1,a1,15092
     258:	24823700 	addiu	v0,a0,14080
     25c:	8fb2000c 	lw	s2,12(sp)
     260:	8fb10008 	lw	s1,8(sp)
     264:	8fb00004 	lw	s0,4(sp)
     268:	ac600028 	sw	zero,40(v1)
     26c:	ac400028 	sw	zero,40(v0)
     270:	aca03af4 	sw	zero,15092(a1)
     274:	ac803700 	sw	zero,14080(a0)
     278:	ac600004 	sw	zero,4(v1)
     27c:	ac400004 	sw	zero,4(v0)
     280:	ac600008 	sw	zero,8(v1)
     284:	ac400008 	sw	zero,8(v0)
     288:	ac60000c 	sw	zero,12(v1)
     28c:	ac40000c 	sw	zero,12(v0)
     290:	ac600010 	sw	zero,16(v1)
     294:	ac400010 	sw	zero,16(v0)
     298:	ac600014 	sw	zero,20(v1)
     29c:	ac400014 	sw	zero,20(v0)
     2a0:	ac600018 	sw	zero,24(v1)
     2a4:	ac400018 	sw	zero,24(v0)
     2a8:	ac60001c 	sw	zero,28(v1)
     2ac:	ac40001c 	sw	zero,28(v0)
     2b0:	ac600020 	sw	zero,32(v1)
     2b4:	ac400020 	sw	zero,32(v0)
     2b8:	ac600024 	sw	zero,36(v1)
     2bc:	ac400024 	sw	zero,36(v0)
     2c0:	03e00008 	jr	ra
     2c4:	27bd0010 	addiu	sp,sp,16
     2c8:	8caa0000 	lw	t2,0(a1)
     2cc:	8c820000 	lw	v0,0(a0)
     2d0:	8cad0004 	lw	t5,4(a1)
     2d4:	01420018 	mult	t2,v0
     2d8:	8c8c0004 	lw	t4,4(a0)
     2dc:	8c880008 	lw	t0,8(a0)
     2e0:	8cab0008 	lw	t3,8(a1)
     2e4:	8c86000c 	lw	a2,12(a0)
     2e8:	8c820014 	lw	v0,20(a0)
     2ec:	8c870010 	lw	a3,16(a0)
     2f0:	8ca9000c 	lw	t1,12(a1)
     2f4:	8ca30010 	lw	v1,16(a1)
     2f8:	8ca50014 	lw	a1,20(a1)
     2fc:	00005012 	mflo	t2
	...
     308:	01ac0018 	mult	t5,t4
     30c:	00002012 	mflo	a0
     310:	008a2021 	addu	a0,a0,t2
     314:	00000000 	sll	zero,zero,0x0
     318:	01680018 	mult	t3,t0
     31c:	00004012 	mflo	t0
     320:	00882021 	addu	a0,a0,t0
     324:	00000000 	sll	zero,zero,0x0
     328:	01260018 	mult	t1,a2
     32c:	00003012 	mflo	a2
     330:	00862021 	addu	a0,a0,a2
     334:	00000000 	sll	zero,zero,0x0
     338:	00670018 	mult	v1,a3
     33c:	00001812 	mflo	v1
     340:	00831821 	addu	v1,a0,v1
     344:	00000000 	sll	zero,zero,0x0
     348:	00a20018 	mult	a1,v0
     34c:	00001012 	mflo	v0
     350:	00431021 	addu	v0,v0,v1
     354:	03e00008 	jr	ra
     358:	00021383 	sra	v0,v0,0xe
     35c:	00e60018 	mult	a3,a2
     360:	00003012 	mflo	a2
	...
     36c:	00a40018 	mult	a1,a0
     370:	00002012 	mflo	a0
     374:	00c43021 	addu	a2,a2,a0
     378:	00061040 	sll	v0,a2,0x1
     37c:	03e00008 	jr	ra
     380:	000213c3 	sra	v0,v0,0xf
     384:	04800021 	bltz	a0,0x40c
     388:	00803021 	addu	a2,a0,zero
     38c:	3c020000 	lui	v0,0x0
     390:	24422d70 	addiu	v0,v0,11632
     394:	00001821 	addu	v1,zero,zero
     398:	080000eb 	j	0x3ac
     39c:	2407001e 	addiu	a3,zero,30
     3a0:	24630001 	addiu	v1,v1,1
     3a4:	10670009 	beq	v1,a3,0x3cc
     3a8:	00000000 	sll	zero,zero,0x0
     3ac:	8c480000 	lw	t0,0(v0)
     3b0:	00000000 	sll	zero,zero,0x0
     3b4:	00a80018 	mult	a1,t0
     3b8:	00004012 	mflo	t0
     3bc:	000843c3 	sra	t0,t0,0xf
     3c0:	0106402a 	slt	t0,t0,a2
     3c4:	1500fff6 	bnez	t0,0x3a0
     3c8:	24420004 	addiu	v0,v0,4
     3cc:	04800008 	bltz	a0,0x3f0
     3d0:	00000000 	sll	zero,zero,0x0
     3d4:	3c020000 	lui	v0,0x0
     3d8:	24422de8 	addiu	v0,v0,11752
     3dc:	00031880 	sll	v1,v1,0x2
     3e0:	00621821 	addu	v1,v1,v0
     3e4:	8c620000 	lw	v0,0(v1)
     3e8:	03e00008 	jr	ra
     3ec:	00000000 	sll	zero,zero,0x0
     3f0:	3c020000 	lui	v0,0x0
     3f4:	24422e64 	addiu	v0,v0,11876
     3f8:	00031880 	sll	v1,v1,0x2
     3fc:	00621821 	addu	v1,v1,v0
     400:	8c620000 	lw	v0,0(v1)
     404:	03e00008 	jr	ra
     408:	00000000 	sll	zero,zero,0x0
     40c:	080000e3 	j	0x38c
     410:	00043023 	negu	a2,a0
     414:	00042083 	sra	a0,a0,0x2
     418:	3c020000 	lui	v0,0x0
     41c:	24422cb0 	addiu	v0,v0,11440
     420:	00042080 	sll	a0,a0,0x2
     424:	00822021 	addu	a0,a0,v0
     428:	000511c0 	sll	v0,a1,0x7
     42c:	00451023 	subu	v0,v0,a1
     430:	8c830000 	lw	v1,0(a0)
     434:	000211c3 	sra	v0,v0,0x7
     438:	00431021 	addu	v0,v0,v1
     43c:	04400006 	bltz	v0,0x458
     440:	28434801 	slti	v1,v0,18433
     444:	14600002 	bnez	v1,0x450
     448:	00000000 	sll	zero,zero,0x0
     44c:	24024800 	addiu	v0,zero,18432
     450:	03e00008 	jr	ra
     454:	00000000 	sll	zero,zero,0x0
     458:	03e00008 	jr	ra
     45c:	00001021 	addu	v0,zero,zero
     460:	00041902 	srl	v1,a0,0x4
     464:	3c020000 	lui	v0,0x0
     468:	24422cf0 	addiu	v0,v0,11504
     46c:	3063007c 	andi	v1,v1,0x7c
     470:	00621821 	addu	v1,v1,v0
     474:	24a50001 	addiu	a1,a1,1
     478:	8c620000 	lw	v0,0(v1)
     47c:	000422c3 	sra	a0,a0,0xb
     480:	00a42023 	subu	a0,a1,a0
     484:	00821007 	srav	v0,v0,a0
     488:	03e00008 	jr	ra
     48c:	000210c0 	sll	v0,v0,0x3
     490:	14800029 	bnez	a0,0x538
     494:	00000000 	sll	zero,zero,0x0
     498:	8cca0000 	lw	t2,0(a2)
     49c:	8cc90004 	lw	t1,4(a2)
     4a0:	8cc80008 	lw	t0,8(a2)
     4a4:	8cc7000c 	lw	a3,12(a2)
     4a8:	8cc30010 	lw	v1,16(a2)
     4ac:	8cc20014 	lw	v0,20(a2)
     4b0:	000ac200 	sll	t8,t2,0x8
     4b4:	00097a00 	sll	t7,t1,0x8
     4b8:	00087200 	sll	t6,t0,0x8
     4bc:	00076a00 	sll	t5,a3,0x8
     4c0:	00036200 	sll	t4,v1,0x8
     4c4:	00025a00 	sll	t3,v0,0x8
     4c8:	030a5023 	subu	t2,t8,t2
     4cc:	01e94823 	subu	t1,t7,t1
     4d0:	01c84023 	subu	t0,t6,t0
     4d4:	01a73823 	subu	a3,t5,a3
     4d8:	01831823 	subu	v1,t4,v1
     4dc:	01621023 	subu	v0,t3,v0
     4e0:	00073a03 	sra	a3,a3,0x8
     4e4:	00031a03 	sra	v1,v1,0x8
     4e8:	00021203 	sra	v0,v0,0x8
     4ec:	000a5203 	sra	t2,t2,0x8
     4f0:	00094a03 	sra	t1,t1,0x8
     4f4:	00084203 	sra	t0,t0,0x8
     4f8:	acc20014 	sw	v0,20(a2)
     4fc:	acca0000 	sw	t2,0(a2)
     500:	acc90004 	sw	t1,4(a2)
     504:	acc80008 	sw	t0,8(a2)
     508:	acc7000c 	sw	a3,12(a2)
     50c:	acc30010 	sw	v1,16(a2)
     510:	8ca70010 	lw	a3,16(a1)
     514:	8ca6000c 	lw	a2,12(a1)
     518:	8ca20000 	lw	v0,0(a1)
     51c:	8ca30008 	lw	v1,8(a1)
     520:	aca40000 	sw	a0,0(a1)
     524:	aca70014 	sw	a3,20(a1)
     528:	aca60010 	sw	a2,16(a1)
     52c:	aca3000c 	sw	v1,12(a1)
     530:	03e00008 	jr	ra
     534:	aca20004 	sw	v0,4(a1)
     538:	8ca20000 	lw	v0,0(a1)
     53c:	00000000 	sll	zero,zero,0x0
     540:	00820018 	mult	a0,v0
     544:	00001012 	mflo	v0
     548:	04400054 	bltz	v0,0x69c
     54c:	24070080 	addiu	a3,zero,128
     550:	8cc20000 	lw	v0,0(a2)
     554:	00000000 	sll	zero,zero,0x0
     558:	00021a00 	sll	v1,v0,0x8
     55c:	00621023 	subu	v0,v1,v0
     560:	00021203 	sra	v0,v0,0x8
     564:	00e21021 	addu	v0,a3,v0
     568:	acc20000 	sw	v0,0(a2)
     56c:	8ca20004 	lw	v0,4(a1)
     570:	00000000 	sll	zero,zero,0x0
     574:	00820018 	mult	a0,v0
     578:	00001012 	mflo	v0
     57c:	04400054 	bltz	v0,0x6d0
     580:	00000000 	sll	zero,zero,0x0
     584:	8cc20004 	lw	v0,4(a2)
     588:	24070080 	addiu	a3,zero,128
     58c:	00021a00 	sll	v1,v0,0x8
     590:	00621023 	subu	v0,v1,v0
     594:	00021203 	sra	v0,v0,0x8
     598:	00e21021 	addu	v0,a3,v0
     59c:	acc20004 	sw	v0,4(a2)
     5a0:	8ca20008 	lw	v0,8(a1)
     5a4:	00000000 	sll	zero,zero,0x0
     5a8:	00820018 	mult	a0,v0
     5ac:	00001012 	mflo	v0
     5b0:	04400054 	bltz	v0,0x704
     5b4:	00000000 	sll	zero,zero,0x0
     5b8:	8cc20008 	lw	v0,8(a2)
     5bc:	24070080 	addiu	a3,zero,128
     5c0:	00021a00 	sll	v1,v0,0x8
     5c4:	00621023 	subu	v0,v1,v0
     5c8:	00021203 	sra	v0,v0,0x8
     5cc:	00e21021 	addu	v0,a3,v0
     5d0:	acc20008 	sw	v0,8(a2)
     5d4:	8ca2000c 	lw	v0,12(a1)
     5d8:	00000000 	sll	zero,zero,0x0
     5dc:	00820018 	mult	a0,v0
     5e0:	00001012 	mflo	v0
     5e4:	04400054 	bltz	v0,0x738
     5e8:	00000000 	sll	zero,zero,0x0
     5ec:	8cc2000c 	lw	v0,12(a2)
     5f0:	24070080 	addiu	a3,zero,128
     5f4:	00021a00 	sll	v1,v0,0x8
     5f8:	00621023 	subu	v0,v1,v0
     5fc:	00021203 	sra	v0,v0,0x8
     600:	00e21021 	addu	v0,a3,v0
     604:	acc2000c 	sw	v0,12(a2)
     608:	8ca20010 	lw	v0,16(a1)
     60c:	00000000 	sll	zero,zero,0x0
     610:	00820018 	mult	a0,v0
     614:	00001012 	mflo	v0
     618:	04400054 	bltz	v0,0x76c
     61c:	00000000 	sll	zero,zero,0x0
     620:	8cc20010 	lw	v0,16(a2)
     624:	24070080 	addiu	a3,zero,128
     628:	00021a00 	sll	v1,v0,0x8
     62c:	00621023 	subu	v0,v1,v0
     630:	00021203 	sra	v0,v0,0x8
     634:	00e21021 	addu	v0,a3,v0
     638:	acc20010 	sw	v0,16(a2)
     63c:	8ca20014 	lw	v0,20(a1)
     640:	00000000 	sll	zero,zero,0x0
     644:	00820018 	mult	a0,v0
     648:	00001012 	mflo	v0
     64c:	04400002 	bltz	v0,0x658
     650:	2407ff80 	addiu	a3,zero,-128
     654:	24070080 	addiu	a3,zero,128
     658:	8cc20014 	lw	v0,20(a2)
     65c:	00000000 	sll	zero,zero,0x0
     660:	00021a00 	sll	v1,v0,0x8
     664:	00621023 	subu	v0,v1,v0
     668:	00021203 	sra	v0,v0,0x8
     66c:	00e21021 	addu	v0,a3,v0
     670:	acc20014 	sw	v0,20(a2)
     674:	8ca70010 	lw	a3,16(a1)
     678:	8ca6000c 	lw	a2,12(a1)
     67c:	8ca20000 	lw	v0,0(a1)
     680:	8ca30008 	lw	v1,8(a1)
     684:	aca40000 	sw	a0,0(a1)
     688:	aca70014 	sw	a3,20(a1)
     68c:	aca60010 	sw	a2,16(a1)
     690:	aca3000c 	sw	v1,12(a1)
     694:	03e00008 	jr	ra
     698:	aca20004 	sw	v0,4(a1)
     69c:	8cc20000 	lw	v0,0(a2)
     6a0:	2407ff80 	addiu	a3,zero,-128
     6a4:	00021a00 	sll	v1,v0,0x8
     6a8:	00621023 	subu	v0,v1,v0
     6ac:	00021203 	sra	v0,v0,0x8
     6b0:	00e21021 	addu	v0,a3,v0
     6b4:	acc20000 	sw	v0,0(a2)
     6b8:	8ca20004 	lw	v0,4(a1)
     6bc:	00000000 	sll	zero,zero,0x0
     6c0:	00820018 	mult	a0,v0
     6c4:	00001012 	mflo	v0
     6c8:	0441ffae 	bgez	v0,0x584
     6cc:	00000000 	sll	zero,zero,0x0
     6d0:	8cc20004 	lw	v0,4(a2)
     6d4:	2407ff80 	addiu	a3,zero,-128
     6d8:	00021a00 	sll	v1,v0,0x8
     6dc:	00621023 	subu	v0,v1,v0
     6e0:	00021203 	sra	v0,v0,0x8
     6e4:	00e21021 	addu	v0,a3,v0
     6e8:	acc20004 	sw	v0,4(a2)
     6ec:	8ca20008 	lw	v0,8(a1)
     6f0:	00000000 	sll	zero,zero,0x0
     6f4:	00820018 	mult	a0,v0
     6f8:	00001012 	mflo	v0
     6fc:	0441ffae 	bgez	v0,0x5b8
     700:	00000000 	sll	zero,zero,0x0
     704:	8cc20008 	lw	v0,8(a2)
     708:	2407ff80 	addiu	a3,zero,-128
     70c:	00021a00 	sll	v1,v0,0x8
     710:	00621023 	subu	v0,v1,v0
     714:	00021203 	sra	v0,v0,0x8
     718:	00e21021 	addu	v0,a3,v0
     71c:	acc20008 	sw	v0,8(a2)
     720:	8ca2000c 	lw	v0,12(a1)
     724:	00000000 	sll	zero,zero,0x0
     728:	00820018 	mult	a0,v0
     72c:	00001012 	mflo	v0
     730:	0441ffae 	bgez	v0,0x5ec
     734:	00000000 	sll	zero,zero,0x0
     738:	8cc2000c 	lw	v0,12(a2)
     73c:	2407ff80 	addiu	a3,zero,-128
     740:	00021a00 	sll	v1,v0,0x8
     744:	00621023 	subu	v0,v1,v0
     748:	00021203 	sra	v0,v0,0x8
     74c:	00e21021 	addu	v0,a3,v0
     750:	acc2000c 	sw	v0,12(a2)
     754:	8ca20010 	lw	v0,16(a1)
     758:	00000000 	sll	zero,zero,0x0
     75c:	00820018 	mult	a0,v0
     760:	00001012 	mflo	v0
     764:	0441ffae 	bgez	v0,0x620
     768:	00000000 	sll	zero,zero,0x0
     76c:	8cc20010 	lw	v0,16(a2)
     770:	2407ff80 	addiu	a3,zero,-128
     774:	00021a00 	sll	v1,v0,0x8
     778:	00621023 	subu	v0,v1,v0
     77c:	00021203 	sra	v0,v0,0x8
     780:	00e21021 	addu	v0,a3,v0
     784:	acc20010 	sw	v0,16(a2)
     788:	8ca20014 	lw	v0,20(a1)
     78c:	00000000 	sll	zero,zero,0x0
     790:	00820018 	mult	a0,v0
     794:	00001012 	mflo	v0
     798:	0441ffae 	bgez	v0,0x654
     79c:	00000000 	sll	zero,zero,0x0
     7a0:	08000196 	j	0x658
     7a4:	00000000 	sll	zero,zero,0x0
     7a8:	00e60018 	mult	a3,a2
     7ac:	00003812 	mflo	a3
     7b0:	04e00002 	bltz	a3,0x7bc
     7b4:	00042080 	sll	a0,a0,0x2
     7b8:	00042023 	negu	a0,a0
     7bc:	8fa20010 	lw	v0,16(sp)
     7c0:	00000000 	sll	zero,zero,0x0
     7c4:	00460018 	mult	v0,a2
     7c8:	00003012 	mflo	a2
     7cc:	04c0000f 	bltz	a2,0x80c
     7d0:	000411c3 	sra	v0,a0,0x7
     7d4:	24420080 	addiu	v0,v0,128
     7d8:	000519c0 	sll	v1,a1,0x7
     7dc:	00652823 	subu	a1,v1,a1
     7e0:	000529c3 	sra	a1,a1,0x7
     7e4:	00451021 	addu	v0,v0,a1
     7e8:	28433001 	slti	v1,v0,12289
     7ec:	14600003 	bnez	v1,0x7fc
     7f0:	2843d000 	slti	v1,v0,-12288
     7f4:	03e00008 	jr	ra
     7f8:	24023000 	addiu	v0,zero,12288
     7fc:	14600005 	bnez	v1,0x814
     800:	00000000 	sll	zero,zero,0x0
     804:	03e00008 	jr	ra
     808:	00000000 	sll	zero,zero,0x0
     80c:	080001f6 	j	0x7d8
     810:	2442ff80 	addiu	v0,v0,-128
     814:	03e00008 	jr	ra
     818:	2402d000 	addiu	v0,zero,-12288
     81c:	00e60018 	mult	a3,a2
     820:	00041200 	sll	v0,a0,0x8
     824:	00441023 	subu	v0,v0,a0
     828:	00003012 	mflo	a2
     82c:	04c0000f 	bltz	a2,0x86c
     830:	00021203 	sra	v0,v0,0x8
     834:	244200c0 	addiu	v0,v0,192
     838:	24033c00 	addiu	v1,zero,15360
     83c:	00652823 	subu	a1,v1,a1
     840:	00a2182a 	slt	v1,a1,v0
     844:	10600002 	beqz	v1,0x850
     848:	00000000 	sll	zero,zero,0x0
     84c:	00a01021 	addu	v0,a1,zero
     850:	00052823 	negu	a1,a1
     854:	0045182a 	slt	v1,v0,a1
     858:	10600002 	beqz	v1,0x864
     85c:	00000000 	sll	zero,zero,0x0
     860:	00a01021 	addu	v0,a1,zero
     864:	03e00008 	jr	ra
     868:	00000000 	sll	zero,zero,0x0
     86c:	0800020e 	j	0x838
     870:	2442ff40 	addiu	v0,v0,-192
     874:	3c020000 	lui	v0,0x0
     878:	24422ef0 	addiu	v0,v0,12016
     87c:	00042080 	sll	a0,a0,0x2
     880:	00822021 	addu	a0,a0,v0
     884:	000511c0 	sll	v0,a1,0x7
     888:	00451023 	subu	v0,v0,a1
     88c:	8c830000 	lw	v1,0(a0)
     890:	000211c3 	sra	v0,v0,0x7
     894:	00431021 	addu	v0,v0,v1
     898:	04400006 	bltz	v0,0x8b4
     89c:	28435801 	slti	v1,v0,22529
     8a0:	14600002 	bnez	v1,0x8ac
     8a4:	00000000 	sll	zero,zero,0x0
     8a8:	24025800 	addiu	v0,zero,22528
     8ac:	03e00008 	jr	ra
     8b0:	00000000 	sll	zero,zero,0x0
     8b4:	03e00008 	jr	ra
     8b8:	00001021 	addu	v0,zero,zero
     8bc:	3c0b0000 	lui	t3,0x0
     8c0:	3c090000 	lui	t1,0x0
     8c4:	8d623b38 	lw	v0,15160(t3)
     8c8:	8d2e36e8 	lw	t6,14056(t1)
     8cc:	27bdff98 	addiu	sp,sp,-104
     8d0:	01c20018 	mult	t6,v0
     8d4:	25673b38 	addiu	a3,t3,15160
     8d8:	252836e8 	addiu	t0,t1,14056
     8dc:	8d190004 	lw	t9,4(t0)
     8e0:	afb10048 	sw	s1,72(sp)
     8e4:	8cf10004 	lw	s1,4(a3)
     8e8:	8d180008 	lw	t8,8(t0)
     8ec:	afb70060 	sw	s7,96(sp)
     8f0:	8cf70008 	lw	s7,8(a3)
     8f4:	8cea000c 	lw	t2,12(a3)
     8f8:	8d05000c 	lw	a1,12(t0)
     8fc:	afbe0064 	sw	s8,100(sp)
     900:	afb6005c 	sw	s6,92(sp)
     904:	00007812 	mflo	t7
     908:	8cf60010 	lw	s6,16(a3)
     90c:	8d1e0010 	lw	s8,16(t0)
     910:	3c0c0000 	lui	t4,0x0
     914:	02390018 	mult	s1,t9
     918:	3c060000 	lui	a2,0x0
     91c:	3091003f 	andi	s1,a0,0x3f
     920:	afb50058 	sw	s5,88(sp)
     924:	3235003c 	andi	s5,s1,0x3c
     928:	afb2004c 	sw	s2,76(sp)
     92c:	3c120000 	lui	s2,0x0
     930:	26522b70 	addiu	s2,s2,11120
     934:	02b29021 	addu	s2,s5,s2
     938:	afb30050 	sw	s3,80(sp)
     93c:	8e530000 	lw	s3,0(s2)
     940:	afa20004 	sw	v0,4(sp)
     944:	3c020000 	lui	v0,0x0
     948:	0000c812 	mflo	t9
     94c:	afb00044 	sw	s0,68(sp)
     950:	032f7821 	addu	t7,t9,t7
     954:	3c190000 	lui	t9,0x0
     958:	02f80018 	mult	s7,t8
     95c:	8f323460 	lw	s2,13408(t9)
     960:	8c50344c 	lw	s0,13388(v0)
     964:	3c030000 	lui	v1,0x0
     968:	3c020000 	lui	v0,0x0
     96c:	00042183 	sra	a0,a0,0x6
     970:	8ced0014 	lw	t5,20(a3)
     974:	3c180000 	lui	t8,0x0
     978:	27182bb0 	addiu	t8,t8,11184
     97c:	00108080 	sll	s0,s0,0x2
     980:	02188021 	addu	s0,s0,t8
     984:	3c180000 	lui	t8,0x0
     988:	afb40054 	sw	s4,84(sp)
     98c:	0000b812 	mflo	s7
     990:	8e140000 	lw	s4,0(s0)
     994:	01f77821 	addu	t7,t7,s7
     998:	3c170000 	lui	s7,0x0
     99c:	01450018 	mult	t2,a1
     9a0:	aef13450 	sw	s1,13392(s7)
     9a4:	8d91348c 	lw	s1,13452(t4)
     9a8:	8cd73424 	lw	s7,13348(a2)
     9ac:	3c0a0000 	lui	t2,0x0
     9b0:	254a2cb0 	addiu	t2,t2,11440
     9b4:	02aaa821 	addu	s5,s5,t2
     9b8:	001251c0 	sll	t2,s2,0x7
     9bc:	01525023 	subu	t2,t2,s2
     9c0:	000a91c3 	sra	s2,t2,0x7
     9c4:	3c0a0000 	lui	t2,0x0
     9c8:	ad4433c8 	sw	a0,13256(t2)
     9cc:	8f103488 	lw	s0,13448(t8)
     9d0:	00002812 	mflo	a1
     9d4:	8eb50000 	lw	s5,0(s5)
     9d8:	01e57821 	addu	t7,t7,a1
     9dc:	3c050000 	lui	a1,0x0
     9e0:	02de0018 	mult	s6,s8
     9e4:	02559021 	addu	s2,s2,s5
     9e8:	3c150000 	lui	s5,0x0
     9ec:	0000b012 	mflo	s6
     9f0:	01f67821 	addu	t7,t7,s6
     9f4:	8c7634ac 	lw	s6,13484(v1)
     9f8:	02370018 	mult	s1,s7
     9fc:	8c573428 	lw	s7,13352(v0)
     a00:	00002012 	mflo	a0
	...
     a0c:	02d70018 	mult	s6,s7
     a10:	8d170014 	lw	s7,20(t0)
     a14:	00008812 	mflo	s1
     a18:	00912021 	addu	a0,a0,s1
     a1c:	00042040 	sll	a0,a0,0x1
     a20:	02ed0018 	mult	s7,t5
     a24:	000423c3 	sra	a0,a0,0xf
     a28:	3c110000 	lui	s1,0x0
     a2c:	ae243458 	sw	a0,13400(s1)
     a30:	3c110000 	lui	s1,0x0
     a34:	3c0d0000 	lui	t5,0x0
     a38:	0000b012 	mflo	s6
     a3c:	02cf7821 	addu	t7,s6,t7
     a40:	000f7b83 	sra	t7,t7,0xe
     a44:	02140018 	mult	s0,s4
     a48:	01e42021 	addu	a0,t7,a0
     a4c:	ae2f3414 	sw	t7,13332(s1)
     a50:	aca43430 	sw	a0,13360(a1)
     a54:	3c110000 	lui	s1,0x0
     a58:	0000a012 	mflo	s4
     a5c:	0014a3c3 	sra	s4,s4,0xf
     a60:	00942021 	addu	a0,a0,s4
     a64:	02130018 	mult	s0,s3
     a68:	ae343470 	sw	s4,13424(s1)
     a6c:	ada433b0 	sw	a0,13232(t5)
     a70:	00008012 	mflo	s0
     a74:	001083c3 	sra	s0,s0,0xf
     a78:	064002b4 	bltz	s2,0x154c
     a7c:	aeb03444 	sw	s0,13380(s5)
     a80:	2a444801 	slti	a0,s2,18433
     a84:	148002b3 	bnez	a0,0x1554
     a88:	00122183 	sra	a0,s2,0x6
     a8c:	00009821 	addu	s3,zero,zero
     a90:	00002021 	addu	a0,zero,zero
     a94:	24124800 	addiu	s2,zero,18432
     a98:	3c110000 	lui	s1,0x0
     a9c:	00042080 	sll	a0,a0,0x2
     aa0:	26312cf0 	addiu	s1,s1,11504
     aa4:	02242021 	addu	a0,s1,a0
     aa8:	8c840000 	lw	a0,0(a0)
     aac:	01f07821 	addu	t7,t7,s0
     ab0:	02649807 	srav	s3,a0,s3
     ab4:	001398c0 	sll	s3,s3,0x3
     ab8:	3c040000 	lui	a0,0x0
     abc:	af323460 	sw	s2,13408(t9)
     ac0:	af133488 	sw	s3,13448(t8)
     ac4:	1600025d 	bnez	s0,0x143c
     ac8:	ac8f3494 	sw	t7,13460(a0)
     acc:	8ced0014 	lw	t5,20(a3)
     ad0:	8fae0004 	lw	t6,4(sp)
     ad4:	8cf8000c 	lw	t8,12(a3)
     ad8:	000d9a00 	sll	s3,t5,0x8
     adc:	8fad0004 	lw	t5,4(sp)
     ae0:	8cf90008 	lw	t9,8(a3)
     ae4:	000e7200 	sll	t6,t6,0x8
     ae8:	8cf20004 	lw	s2,4(a3)
     aec:	8cef0010 	lw	t7,16(a3)
     af0:	01cd7023 	subu	t6,t6,t5
     af4:	0018b200 	sll	s6,t8,0x8
     af8:	0019ba00 	sll	s7,t9,0x8
     afc:	afae0000 	sw	t6,0(sp)
     b00:	02d8c023 	subu	t8,s6,t8
     b04:	8cf60014 	lw	s6,20(a3)
     b08:	02f9c823 	subu	t9,s7,t9
     b0c:	0012f200 	sll	s8,s2,0x8
     b10:	000fa200 	sll	s4,t7,0x8
     b14:	8fb70000 	lw	s7,0(sp)
     b18:	03d29023 	subu	s2,s8,s2
     b1c:	028f7823 	subu	t7,s4,t7
     b20:	02767023 	subu	t6,s3,s6
     b24:	00176a03 	sra	t5,s7,0x8
     b28:	00129203 	sra	s2,s2,0x8
     b2c:	0019ca03 	sra	t9,t9,0x8
     b30:	0018c203 	sra	t8,t8,0x8
     b34:	000f7a03 	sra	t7,t7,0x8
     b38:	000e7203 	sra	t6,t6,0x8
     b3c:	ad6d3b38 	sw	t5,15160(t3)
     b40:	acee0014 	sw	t6,20(a3)
     b44:	acf20004 	sw	s2,4(a3)
     b48:	acf90008 	sw	t9,8(a3)
     b4c:	acf8000c 	sw	t8,12(a3)
     b50:	acef0010 	sw	t7,16(a3)
     b54:	3c120000 	lui	s2,0x0
     b58:	8c983494 	lw	t8,13460(a0)
     b5c:	8e5433cc 	lw	s4,13260(s2)
     b60:	8d070010 	lw	a3,16(t0)
     b64:	02980018 	mult	s4,t8
     b68:	8d0e000c 	lw	t6,12(t0)
     b6c:	8d2f36e8 	lw	t7,14056(t1)
     b70:	8d0b0008 	lw	t3,8(t0)
     b74:	8c6434ac 	lw	a0,13484(v1)
     b78:	3c130000 	lui	s3,0x0
     b7c:	ad070014 	sw	a3,20(t0)
     b80:	ad0f0004 	sw	t7,4(t0)
     b84:	ad3036e8 	sw	s0,14056(t1)
     b88:	ad0e0010 	sw	t6,16(t0)
     b8c:	ad0b000c 	sw	t3,12(t0)
     b90:	8e6933b4 	lw	t1,13236(s3)
     b94:	8d88348c 	lw	t0,13452(t4)
     b98:	00006812 	mflo	t5
     b9c:	05a00002 	bltz	t5,0xba8
     ba0:	00043880 	sll	a3,a0,0x2
     ba4:	00073823 	negu	a3,a3
     ba8:	01380018 	mult	t1,t8
     bac:	00004812 	mflo	t1
     bb0:	0520027f 	bltz	t1,0x15b0
     bb4:	000739c3 	sra	a3,a3,0x7
     bb8:	24e70080 	addiu	a3,a3,128
     bbc:	000849c0 	sll	t1,t0,0x7
     bc0:	01284023 	subu	t0,t1,t0
     bc4:	000841c3 	sra	t0,t0,0x7
     bc8:	00e83821 	addu	a3,a3,t0
     bcc:	28e83001 	slti	t0,a3,12289
     bd0:	15000269 	bnez	t0,0x1578
     bd4:	28e8d000 	slti	t0,a3,-12288
     bd8:	24073000 	addiu	a3,zero,12288
     bdc:	240b3c00 	addiu	t3,zero,15360
     be0:	01675823 	subu	t3,t3,a3
     be4:	00044200 	sll	t0,a0,0x8
     be8:	01042023 	subu	a0,t0,a0
     bec:	ad87348c 	sw	a3,13452(t4)
     bf0:	05a0026d 	bltz	t5,0x15a8
     bf4:	00042203 	sra	a0,a0,0x8
     bf8:	248400c0 	addiu	a0,a0,192
     bfc:	0164382a 	slt	a3,t3,a0
     c00:	14e00007 	bnez	a3,0xc20
     c04:	3c0e0000 	lui	t6,0x0
     c08:	000b3823 	negu	a3,t3
     c0c:	00805821 	addu	t3,a0,zero
     c10:	0087202a 	slt	a0,a0,a3
     c14:	1480025e 	bnez	a0,0x1590
     c18:	00000000 	sll	zero,zero,0x0
     c1c:	3c0e0000 	lui	t6,0x0
     c20:	3c090000 	lui	t1,0x0
     c24:	8dcf3adc 	lw	t7,15068(t6)
     c28:	8d36372c 	lw	s6,14124(t1)
     c2c:	2528372c 	addiu	t0,t1,14124
     c30:	02cf0018 	mult	s6,t7
     c34:	25c73adc 	addiu	a3,t6,15068
     c38:	8d170004 	lw	s7,4(t0)
     c3c:	8cf90004 	lw	t9,4(a3)
     c40:	8d5e33c8 	lw	s8,13256(t2)
     c44:	3c100000 	lui	s0,0x0
     c48:	001ef080 	sll	s8,s8,0x2
     c4c:	26102ee0 	addiu	s0,s0,12000
     c50:	03d08021 	addu	s0,s8,s0
     c54:	8e100000 	lw	s0,0(s0)
     c58:	8eb53444 	lw	s5,13380(s5)
     c5c:	afb00020 	sw	s0,32(sp)
     c60:	8cf00008 	lw	s0,8(a3)
     c64:	00002012 	mflo	a0
     c68:	ac6b34ac 	sw	t3,13484(v1)
     c6c:	afa40000 	sw	a0,0(sp)
     c70:	3c040000 	lui	a0,0x0
     c74:	02f90018 	mult	s7,t9
     c78:	8c843498 	lw	a0,13464(a0)
     c7c:	8c433428 	lw	v1,13352(v0)
     c80:	afa40038 	sw	a0,56(sp)
     c84:	8d040008 	lw	a0,8(t0)
     c88:	acc33424 	sw	v1,13348(a2)
     c8c:	8ceb0010 	lw	t3,16(a3)
     c90:	8d060010 	lw	a2,16(t0)
     c94:	3c0d0000 	lui	t5,0x0
     c98:	3c0c0000 	lui	t4,0x0
     c9c:	3c0a0000 	lui	t2,0x0
     ca0:	3c190000 	lui	t9,0x0
     ca4:	0000b812 	mflo	s7
	...
     cb0:	00900018 	mult	a0,s0
     cb4:	3c100000 	lui	s0,0x0
     cb8:	00002012 	mflo	a0
     cbc:	afa40004 	sw	a0,4(sp)
     cc0:	8fa40000 	lw	a0,0(sp)
     cc4:	afb50000 	sw	s5,0(sp)
     cc8:	02e4b821 	addu	s7,s7,a0
     ccc:	afb70008 	sw	s7,8(sp)
     cd0:	8e0433d4 	lw	a0,13268(s0)
     cd4:	3c170000 	lui	s7,0x0
     cd8:	26f72ef0 	addiu	s7,s7,12016
     cdc:	03d7f021 	addu	s8,s8,s7
     ce0:	0004b9c0 	sll	s7,a0,0x7
     ce4:	8cb53430 	lw	s5,13360(a1)
     ce8:	02e42023 	subu	a0,s7,a0
     cec:	8fc50000 	lw	a1,0(s8)
     cf0:	8d17000c 	lw	s7,12(t0)
     cf4:	8cfe000c 	lw	s8,12(a3)
     cf8:	000421c3 	sra	a0,a0,0x7
     cfc:	02fe0018 	mult	s7,s8
     d00:	8fbe0004 	lw	s8,4(sp)
     d04:	0000b812 	mflo	s7
     d08:	afb70010 	sw	s7,16(sp)
     d0c:	8fb70008 	lw	s7,8(sp)
     d10:	00cb0018 	mult	a2,t3
     d14:	8fab0010 	lw	t3,16(sp)
     d18:	02feb821 	addu	s7,s7,s8
     d1c:	afb70004 	sw	s7,4(sp)
     d20:	8fb70000 	lw	s7,0(sp)
     d24:	8fa60004 	lw	a2,4(sp)
     d28:	02f5a821 	addu	s5,s7,s5
     d2c:	ac553428 	sw	s5,13352(v0)
     d30:	00cbb821 	addu	s7,a2,t3
     d34:	8da634b8 	lw	a2,13496(t5)
     d38:	8fab0038 	lw	t3,56(sp)
     d3c:	3c020000 	lui	v0,0x0
     d40:	ac5533c4 	sw	s5,13252(v0)
     d44:	00001812 	mflo	v1
     d48:	ae5833cc 	sw	t8,13260(s2)
     d4c:	02e3b821 	addu	s7,s7,v1
     d50:	8d833410 	lw	v1,13328(t4)
     d54:	00cb0018 	mult	a2,t3
     d58:	8d4b34a0 	lw	t3,13472(t2)
     d5c:	8cf20014 	lw	s2,20(a3)
     d60:	0085f021 	addu	s8,a0,a1
     d64:	3c040000 	lui	a0,0x0
     d68:	3c050000 	lui	a1,0x0
     d6c:	ae7433b4 	sw	s4,13236(s3)
     d70:	00001012 	mflo	v0
	...
     d7c:	006b0018 	mult	v1,t3
     d80:	8d0b0014 	lw	t3,20(t0)
     d84:	00003012 	mflo	a2
     d88:	00463021 	addu	a2,v0,a2
     d8c:	00063040 	sll	a2,a2,0x1
     d90:	01720018 	mult	t3,s2
     d94:	8fab0020 	lw	t3,32(sp)
     d98:	8f323438 	lw	s2,13368(t9)
     d9c:	000633c3 	sra	a2,a2,0xf
     da0:	3c020000 	lui	v0,0x0
     da4:	ac4633e4 	sw	a2,13284(v0)
     da8:	00001812 	mflo	v1
     dac:	0077b821 	addu	s7,v1,s7
     db0:	0017bb83 	sra	s7,s7,0xe
     db4:	01720018 	mult	t3,s2
     db8:	02e63021 	addu	a2,s7,a2
     dbc:	3c030000 	lui	v1,0x0
     dc0:	ac77345c 	sw	s7,13404(v1)
     dc4:	ac86347c 	sw	a2,13436(a0)
     dc8:	00001012 	mflo	v0
     dcc:	000213c3 	sra	v0,v0,0xf
     dd0:	07c00193 	bltz	s8,0x1420
     dd4:	aca23418 	sw	v0,13336(a1)
     dd8:	2bc35801 	slti	v1,s8,22529
     ddc:	14600192 	bnez	v1,0x1428
     de0:	001e3183 	sra	a2,s8,0x6
     de4:	00001821 	addu	v1,zero,zero
     de8:	00003021 	addu	a2,zero,zero
     dec:	241e5800 	addiu	s8,zero,22528
     df0:	00063080 	sll	a2,a2,0x2
     df4:	02268821 	addu	s1,s1,a2
     df8:	8e260000 	lw	a2,0(s1)
     dfc:	02e2b821 	addu	s7,s7,v0
     e00:	00661807 	srav	v1,a2,v1
     e04:	000318c0 	sll	v1,v1,0x3
     e08:	3c060000 	lui	a2,0x0
     e0c:	ae1e33d4 	sw	s8,13268(s0)
     e10:	af233438 	sw	v1,13368(t9)
     e14:	1440013d 	bnez	v0,0x130c
     e18:	acd73464 	sw	s7,13412(a2)
     e1c:	8cf00004 	lw	s0,4(a3)
     e20:	8cf90008 	lw	t9,8(a3)
     e24:	8cf8000c 	lw	t8,12(a3)
     e28:	8ceb0010 	lw	t3,16(a3)
     e2c:	8ce30014 	lw	v1,20(a3)
     e30:	000fb200 	sll	s6,t7,0x8
     e34:	0010aa00 	sll	s5,s0,0x8
     e38:	0019a200 	sll	s4,t9,0x8
     e3c:	00189a00 	sll	s3,t8,0x8
     e40:	000b9200 	sll	s2,t3,0x8
     e44:	00038a00 	sll	s1,v1,0x8
     e48:	02cf7823 	subu	t7,s6,t7
     e4c:	02b08023 	subu	s0,s5,s0
     e50:	0299c823 	subu	t9,s4,t9
     e54:	0278c023 	subu	t8,s3,t8
     e58:	024b5823 	subu	t3,s2,t3
     e5c:	02231823 	subu	v1,s1,v1
     e60:	000f7a03 	sra	t7,t7,0x8
     e64:	00108203 	sra	s0,s0,0x8
     e68:	0019ca03 	sra	t9,t9,0x8
     e6c:	0018c203 	sra	t8,t8,0x8
     e70:	000b5a03 	sra	t3,t3,0x8
     e74:	00031a03 	sra	v1,v1,0x8
     e78:	adcf3adc 	sw	t7,15068(t6)
     e7c:	ace30014 	sw	v1,20(a3)
     e80:	acf00004 	sw	s0,4(a3)
     e84:	acf90008 	sw	t9,8(a3)
     e88:	acf8000c 	sw	t8,12(a3)
     e8c:	aceb0010 	sw	t3,16(a3)
     e90:	3c120000 	lui	s2,0x0
     e94:	8ccb3464 	lw	t3,13412(a2)
     e98:	8e5733d8 	lw	s7,13272(s2)
     e9c:	8d070010 	lw	a3,16(t0)
     ea0:	02eb0018 	mult	s7,t3
     ea4:	8d0f000c 	lw	t7,12(t0)
     ea8:	8d38372c 	lw	t8,14124(t1)
     eac:	8d0e0008 	lw	t6,8(t0)
     eb0:	8d833410 	lw	v1,13328(t4)
     eb4:	3c160000 	lui	s6,0x0
     eb8:	ad070014 	sw	a3,20(t0)
     ebc:	ad180004 	sw	t8,4(t0)
     ec0:	ad22372c 	sw	v0,14124(t1)
     ec4:	ad0f0010 	sw	t7,16(t0)
     ec8:	ad0e000c 	sw	t6,12(t0)
     ecc:	8da734b8 	lw	a3,13496(t5)
     ed0:	8ec8340c 	lw	t0,13324(s6)
     ed4:	00003012 	mflo	a2
     ed8:	04c00002 	bltz	a2,0xee4
     edc:	00031080 	sll	v0,v1,0x2
     ee0:	00021023 	negu	v0,v0
     ee4:	010b0018 	mult	t0,t3
     ee8:	00004012 	mflo	t0
     eec:	050001ac 	bltz	t0,0x15a0
     ef0:	000211c3 	sra	v0,v0,0x7
     ef4:	24420080 	addiu	v0,v0,128
     ef8:	000741c0 	sll	t0,a3,0x7
     efc:	01073823 	subu	a3,t0,a3
     f00:	000739c3 	sra	a3,a3,0x7
     f04:	00471021 	addu	v0,v0,a3
     f08:	28473001 	slti	a3,v0,12289
     f0c:	14e00196 	bnez	a3,0x1568
     f10:	2847d000 	slti	a3,v0,-12288
     f14:	24023000 	addiu	v0,zero,12288
     f18:	24073c00 	addiu	a3,zero,15360
     f1c:	00e23823 	subu	a3,a3,v0
     f20:	00034200 	sll	t0,v1,0x8
     f24:	01031823 	subu	v1,t0,v1
     f28:	ada234b8 	sw	v0,13496(t5)
     f2c:	04c0019a 	bltz	a2,0x1598
     f30:	00031a03 	sra	v1,v1,0x8
     f34:	246300c0 	addiu	v1,v1,192
     f38:	00e3102a 	slt	v0,a3,v1
     f3c:	14400007 	bnez	v0,0xf5c
     f40:	3c080000 	lui	t0,0x0
     f44:	00071023 	negu	v0,a3
     f48:	00603821 	addu	a3,v1,zero
     f4c:	0062182a 	slt	v1,v1,v0
     f50:	1460018d 	bnez	v1,0x1588
     f54:	00000000 	sll	zero,zero,0x0
     f58:	3c080000 	lui	t0,0x0
     f5c:	8d063700 	lw	a2,14080(t0)
     f60:	241800d4 	addiu	t8,zero,212
     f64:	00d80018 	mult	a2,t8
     f68:	3c090000 	lui	t1,0x0
     f6c:	25233af4 	addiu	v1,t1,15092
     f70:	8c6d0004 	lw	t5,4(v1)
     f74:	24190030 	addiu	t9,zero,48
     f78:	8c84347c 	lw	a0,13436(a0)
     f7c:	240fffd4 	addiu	t7,zero,-44
     f80:	afad0000 	sw	t5,0(sp)
     f84:	25023700 	addiu	v0,t0,14080
     f88:	8c4e0004 	lw	t6,4(v0)
     f8c:	2410fd90 	addiu	s0,zero,-624
     f90:	afae0004 	sw	t6,4(sp)
     f94:	241105a8 	addiu	s1,zero,1448
     f98:	00003012 	mflo	a2
     f9c:	2412fcb8 	addiu	s2,zero,-840
     fa0:	afa60024 	sw	a2,36(sp)
     fa4:	2413f36c 	addiu	s3,zero,-3220
     fa8:	01b90018 	mult	t5,t9
     fac:	3c0d0000 	lui	t5,0x0
     fb0:	24140edc 	addiu	s4,zero,3804
     fb4:	24153c90 	addiu	s5,zero,15504
     fb8:	00003012 	mflo	a2
     fbc:	afa6000c 	sw	a2,12(sp)
     fc0:	8ca63418 	lw	a2,13336(a1)
     fc4:	8da533b0 	lw	a1,13232(t5)
     fc8:	00c43021 	addu	a2,a2,a0
     fcc:	8d243af4 	lw	a0,15092(t1)
     fd0:	00000000 	sll	zero,zero,0x0
     fd4:	008f0018 	mult	a0,t7
     fd8:	00002012 	mflo	a0
     fdc:	afa4002c 	sw	a0,44(sp)
     fe0:	00c52021 	addu	a0,a2,a1
     fe4:	0004f100 	sll	s8,a0,0x4
     fe8:	00047080 	sll	t6,a0,0x2
     fec:	03ce7023 	subu	t6,s8,t6
     ff0:	008e7023 	subu	t6,a0,t6
     ff4:	afae0018 	sw	t6,24(sp)
     ff8:	00a62823 	subu	a1,a1,a2
     ffc:	8fad0018 	lw	t5,24(sp)
    1000:	00057080 	sll	t6,a1,0x2
    1004:	0005f100 	sll	s8,a1,0x4
    1008:	03cef023 	subu	s8,s8,t6
    100c:	000d7080 	sll	t6,t5,0x2
    1010:	8fad0004 	lw	t5,4(sp)
    1014:	00000000 	sll	zero,zero,0x0
    1018:	01b00018 	mult	t5,s0
    101c:	00006812 	mflo	t5
    1020:	afad0030 	sw	t5,48(sp)
    1024:	8fad0024 	lw	t5,36(sp)
    1028:	00000000 	sll	zero,zero,0x0
    102c:	01cd7021 	addu	t6,t6,t5
    1030:	afae0028 	sw	t6,40(sp)
    1034:	8fae000c 	lw	t6,12(sp)
    1038:	8fad002c 	lw	t5,44(sp)
    103c:	03cef021 	addu	s8,s8,t6
    1040:	8c6e0008 	lw	t6,8(v1)
    1044:	03cdf021 	addu	s8,s8,t5
    1048:	000e69c0 	sll	t5,t6,0x7
    104c:	03cd6821 	addu	t5,s8,t5
    1050:	afad0024 	sw	t5,36(sp)
    1054:	8c6d0028 	lw	t5,40(v1)
    1058:	8c5e001c 	lw	s8,28(v0)
    105c:	000d7080 	sll	t6,t5,0x2
    1060:	afae000c 	sw	t6,12(sp)
    1064:	8c4e0008 	lw	t6,8(v0)
    1068:	001ef1c0 	sll	s8,s8,0x7
    106c:	01d10018 	mult	t6,s1
    1070:	afbe0034 	sw	s8,52(sp)
    1074:	000df100 	sll	s8,t5,0x4
    1078:	afbe001c 	sw	s8,28(sp)
    107c:	8fbe0028 	lw	s8,40(sp)
    1080:	00007012 	mflo	t6
    1084:	afae002c 	sw	t6,44(sp)
    1088:	8fae0030 	lw	t6,48(sp)
    108c:	00000000 	sll	zero,zero,0x0
    1090:	03cef021 	addu	s8,s8,t6
    1094:	afbe0028 	sw	s8,40(sp)
    1098:	8fae000c 	lw	t6,12(sp)
    109c:	8fbe001c 	lw	s8,28(sp)
    10a0:	00000000 	sll	zero,zero,0x0
    10a4:	03cef023 	subu	s8,s8,t6
    10a8:	01be6823 	subu	t5,t5,s8
    10ac:	afbe000c 	sw	s8,12(sp)
    10b0:	afad001c 	sw	t5,28(sp)
    10b4:	8fae001c 	lw	t6,28(sp)
    10b8:	8c4d0028 	lw	t5,40(v0)
    10bc:	000e7080 	sll	t6,t6,0x2
    10c0:	afae001c 	sw	t6,28(sp)
    10c4:	8c6e000c 	lw	t6,12(v1)
    10c8:	000df100 	sll	s8,t5,0x4
    10cc:	01d20018 	mult	t6,s2
    10d0:	000d6880 	sll	t5,t5,0x2
    10d4:	03cdf023 	subu	s8,s8,t5
    10d8:	8fae002c 	lw	t6,44(sp)
    10dc:	afbe0030 	sw	s8,48(sp)
    10e0:	8fbe0028 	lw	s8,40(sp)
    10e4:	ad873410 	sw	a3,13328(t4)
    10e8:	03cef021 	addu	s8,s8,t6
    10ec:	8d4734a0 	lw	a3,13472(t2)
    10f0:	afbe0018 	sw	s8,24(sp)
    10f4:	3c1e0000 	lui	s8,0x0
    10f8:	afc73498 	sw	a3,13464(s8)
    10fc:	3c070000 	lui	a3,0x0
    1100:	ace6341c 	sw	a2,13340(a3)
    1104:	00006812 	mflo	t5
    1108:	8c47000c 	lw	a3,12(v0)
    110c:	ad4634a0 	sw	a2,13472(t2)
    1110:	00f30018 	mult	a3,s3
    1114:	8faa0024 	lw	t2,36(sp)
    1118:	3c060000 	lui	a2,0x0
    111c:	014d6821 	addu	t5,t2,t5
    1120:	8c6a0010 	lw	t2,16(v1)
    1124:	acc53480 	sw	a1,13440(a2)
    1128:	3c060000 	lui	a2,0x0
    112c:	acc434bc 	sw	a0,13500(a2)
    1130:	3c0c0000 	lui	t4,0x0
    1134:	ad8b33d8 	sw	t3,13272(t4)
    1138:	8fab0018 	lw	t3,24(sp)
    113c:	aed7340c 	sw	s7,13324(s6)
    1140:	00003012 	mflo	a2
    1144:	01663021 	addu	a2,t3,a2
    1148:	8c4b0010 	lw	t3,16(v0)
    114c:	01540018 	mult	t2,s4
    1150:	00003812 	mflo	a3
    1154:	01a76821 	addu	t5,t5,a3
    1158:	8c670014 	lw	a3,20(v1)
    115c:	01750018 	mult	t3,s5
    1160:	00005012 	mflo	t2
    1164:	00ca3021 	addu	a2,a2,t2
    1168:	8faa0034 	lw	t2,52(sp)
    116c:	00f50018 	mult	a3,s5
    1170:	8c470014 	lw	a3,20(v0)
    1174:	0000a812 	mflo	s5
    1178:	01b56821 	addu	t5,t5,s5
    117c:	00000000 	sll	zero,zero,0x0
    1180:	00f40018 	mult	a3,s4
    1184:	8c670018 	lw	a3,24(v1)
    1188:	0000a012 	mflo	s4
    118c:	00d43021 	addu	a2,a2,s4
    1190:	00000000 	sll	zero,zero,0x0
    1194:	00f30018 	mult	a3,s3
    1198:	8c470018 	lw	a3,24(v0)
    119c:	00009812 	mflo	s3
    11a0:	01b36821 	addu	t5,t5,s3
    11a4:	00000000 	sll	zero,zero,0x0
    11a8:	00f20018 	mult	a3,s2
    11ac:	8c67001c 	lw	a3,28(v1)
    11b0:	00009012 	mflo	s2
    11b4:	00d23021 	addu	a2,a2,s2
    11b8:	00ca3021 	addu	a2,a2,t2
    11bc:	00f10018 	mult	a3,s1
    11c0:	8c670020 	lw	a3,32(v1)
    11c4:	00008812 	mflo	s1
    11c8:	01b16821 	addu	t5,t5,s1
    11cc:	00000000 	sll	zero,zero,0x0
    11d0:	00f00018 	mult	a3,s0
    11d4:	8c470020 	lw	a3,32(v0)
    11d8:	00008012 	mflo	s0
    11dc:	01b08021 	addu	s0,t5,s0
    11e0:	00000000 	sll	zero,zero,0x0
    11e4:	00f90018 	mult	a3,t9
    11e8:	8c670024 	lw	a3,36(v1)
    11ec:	0000c812 	mflo	t9
    11f0:	00d9c821 	addu	t9,a2,t9
    11f4:	8c460024 	lw	a2,36(v0)
    11f8:	00f80018 	mult	a3,t8
    11fc:	8fa7001c 	lw	a3,28(sp)
    1200:	0000c012 	mflo	t8
    1204:	0310c021 	addu	t8,t8,s0
    1208:	0307c021 	addu	t8,t8,a3
    120c:	00cf0018 	mult	a2,t7
    1210:	0018c383 	sra	t8,t8,0xe
    1214:	3c060000 	lui	a2,0x0
    1218:	acd83404 	sw	t8,13316(a2)
    121c:	8fb10030 	lw	s1,48(sp)
    1220:	8d0b3700 	lw	t3,14080(t0)
    1224:	ad043700 	sw	a0,14080(t0)
    1228:	3c040000 	lui	a0,0x0
    122c:	8d2a3af4 	lw	t2,15092(t1)
    1230:	8c500020 	lw	s0,32(v0)
    1234:	8c72001c 	lw	s2,28(v1)
    1238:	8c53001c 	lw	s3,28(v0)
    123c:	8c760018 	lw	s6,24(v1)
    1240:	00007812 	mflo	t7
    1244:	8c570018 	lw	s7,24(v0)
    1248:	01f97821 	addu	t7,t7,t9
    124c:	01f17821 	addu	t7,t7,s1
    1250:	000f7b83 	sra	t7,t7,0xe
    1254:	ad253af4 	sw	a1,15092(t1)
    1258:	8c6c0024 	lw	t4,36(v1)
    125c:	8c4d0024 	lw	t5,36(v0)
    1260:	8c6e0020 	lw	t6,32(v1)
    1264:	8c780014 	lw	t8,20(v1)
    1268:	8c590014 	lw	t9,20(v0)
    126c:	8c7e0010 	lw	s8,16(v1)
    1270:	ac8f3434 	sw	t7,13364(a0)
    1274:	8c65000c 	lw	a1,12(v1)
    1278:	8c440010 	lw	a0,16(v0)
    127c:	ac6a0004 	sw	t2,4(v1)
    1280:	ac500024 	sw	s0,36(v0)
    1284:	ac720020 	sw	s2,32(v1)
    1288:	ac530020 	sw	s3,32(v0)
    128c:	ac76001c 	sw	s6,28(v1)
    1290:	ac57001c 	sw	s7,28(v0)
    1294:	ac7e0014 	sw	s8,20(v1)
    1298:	ac4b0004 	sw	t3,4(v0)
    129c:	ac6c0028 	sw	t4,40(v1)
    12a0:	ac4d0028 	sw	t5,40(v0)
    12a4:	ac6e0024 	sw	t6,36(v1)
    12a8:	ac780018 	sw	t8,24(v1)
    12ac:	ac590018 	sw	t9,24(v0)
    12b0:	ac440014 	sw	a0,20(v0)
    12b4:	ac650010 	sw	a1,16(v1)
    12b8:	8c46000c 	lw	a2,12(v0)
    12bc:	8c670008 	lw	a3,8(v1)
    12c0:	8c480008 	lw	t0,8(v0)
    12c4:	8fa90000 	lw	t1,0(sp)
    12c8:	8faa0004 	lw	t2,4(sp)
    12cc:	8fbe0064 	lw	s8,100(sp)
    12d0:	8fb70060 	lw	s7,96(sp)
    12d4:	8fb6005c 	lw	s6,92(sp)
    12d8:	8fb50058 	lw	s5,88(sp)
    12dc:	8fb40054 	lw	s4,84(sp)
    12e0:	8fb30050 	lw	s3,80(sp)
    12e4:	8fb2004c 	lw	s2,76(sp)
    12e8:	8fb10048 	lw	s1,72(sp)
    12ec:	8fb00044 	lw	s0,68(sp)
    12f0:	ac460010 	sw	a2,16(v0)
    12f4:	ac67000c 	sw	a3,12(v1)
    12f8:	ac48000c 	sw	t0,12(v0)
    12fc:	ac690008 	sw	t1,8(v1)
    1300:	ac4a0008 	sw	t2,8(v0)
    1304:	03e00008 	jr	ra
    1308:	27bd0068 	addiu	sp,sp,104
    130c:	00560018 	mult	v0,s6
    1310:	0000b012 	mflo	s6
    1314:	06c000a8 	bltz	s6,0x15b8
    1318:	000f5a00 	sll	t3,t7,0x8
    131c:	8d180004 	lw	t8,4(t0)
    1320:	00000000 	sll	zero,zero,0x0
    1324:	00580018 	mult	v0,t8
    1328:	016f5823 	subu	t3,t3,t7
    132c:	24030080 	addiu	v1,zero,128
    1330:	000b5a03 	sra	t3,t3,0x8
    1334:	006b1821 	addu	v1,v1,t3
    1338:	adc33adc 	sw	v1,15068(t6)
    133c:	00001812 	mflo	v1
    1340:	046000a8 	bltz	v1,0x15e4
    1344:	00000000 	sll	zero,zero,0x0
    1348:	8d0e0008 	lw	t6,8(t0)
    134c:	8ce30004 	lw	v1,4(a3)
    1350:	004e0018 	mult	v0,t6
    1354:	240b0080 	addiu	t3,zero,128
    1358:	00037200 	sll	t6,v1,0x8
    135c:	01c31823 	subu	v1,t6,v1
    1360:	00031a03 	sra	v1,v1,0x8
    1364:	01635821 	addu	t3,t3,v1
    1368:	aceb0004 	sw	t3,4(a3)
    136c:	00005812 	mflo	t3
    1370:	056000a8 	bltz	t3,0x1614
    1374:	00000000 	sll	zero,zero,0x0
    1378:	8d0e000c 	lw	t6,12(t0)
    137c:	8ce30008 	lw	v1,8(a3)
    1380:	004e0018 	mult	v0,t6
    1384:	240b0080 	addiu	t3,zero,128
    1388:	00037200 	sll	t6,v1,0x8
    138c:	01c31823 	subu	v1,t6,v1
    1390:	00031a03 	sra	v1,v1,0x8
    1394:	01635821 	addu	t3,t3,v1
    1398:	00007012 	mflo	t6
    139c:	05c000a8 	bltz	t6,0x1640
    13a0:	aceb0008 	sw	t3,8(a3)
    13a4:	8d0e0010 	lw	t6,16(t0)
    13a8:	8ce3000c 	lw	v1,12(a3)
    13ac:	004e0018 	mult	v0,t6
    13b0:	240b0080 	addiu	t3,zero,128
    13b4:	00037200 	sll	t6,v1,0x8
    13b8:	01c31823 	subu	v1,t6,v1
    13bc:	00031a03 	sra	v1,v1,0x8
    13c0:	01635821 	addu	t3,t3,v1
    13c4:	00008012 	mflo	s0
    13c8:	060000a8 	bltz	s0,0x166c
    13cc:	aceb000c 	sw	t3,12(a3)
    13d0:	8d0e0014 	lw	t6,20(t0)
    13d4:	8ce30010 	lw	v1,16(a3)
    13d8:	004e0018 	mult	v0,t6
    13dc:	240b0080 	addiu	t3,zero,128
    13e0:	00037200 	sll	t6,v1,0x8
    13e4:	01c31823 	subu	v1,t6,v1
    13e8:	00031a03 	sra	v1,v1,0x8
    13ec:	01635821 	addu	t3,t3,v1
    13f0:	00008812 	mflo	s1
    13f4:	062000a8 	bltz	s1,0x1698
    13f8:	aceb0010 	sw	t3,16(a3)
    13fc:	240b0080 	addiu	t3,zero,128
    1400:	8ce30014 	lw	v1,20(a3)
    1404:	00000000 	sll	zero,zero,0x0
    1408:	00037200 	sll	t6,v1,0x8
    140c:	01c31823 	subu	v1,t6,v1
    1410:	00031a03 	sra	v1,v1,0x8
    1414:	01631821 	addu	v1,t3,v1
    1418:	080003a4 	j	0xe90
    141c:	ace30014 	sw	v1,20(a3)
    1420:	0000f021 	addu	s8,zero,zero
    1424:	001e3183 	sra	a2,s8,0x6
    1428:	001e1ac3 	sra	v1,s8,0xb
    142c:	240b000b 	addiu	t3,zero,11
    1430:	01631823 	subu	v1,t3,v1
    1434:	0800037c 	j	0xdf0
    1438:	30c6001f 	andi	a2,a2,0x1f
    143c:	020e0018 	mult	s0,t6
    1440:	00007012 	mflo	t6
    1444:	05c00096 	bltz	t6,0x16a0
    1448:	240e0080 	addiu	t6,zero,128
    144c:	8d180004 	lw	t8,4(t0)
    1450:	8fad0004 	lw	t5,4(sp)
    1454:	02180018 	mult	s0,t8
    1458:	000d7a00 	sll	t7,t5,0x8
    145c:	01ed6823 	subu	t5,t7,t5
    1460:	000d6a03 	sra	t5,t5,0x8
    1464:	01cd7021 	addu	t6,t6,t5
    1468:	ad6e3b38 	sw	t6,15160(t3)
    146c:	00007012 	mflo	t6
    1470:	05c00097 	bltz	t6,0x16d0
    1474:	00000000 	sll	zero,zero,0x0
    1478:	8d0e0008 	lw	t6,8(t0)
    147c:	8ceb0004 	lw	t3,4(a3)
    1480:	020e0018 	mult	s0,t6
    1484:	240d0080 	addiu	t5,zero,128
    1488:	000b7200 	sll	t6,t3,0x8
    148c:	01cb5823 	subu	t3,t6,t3
    1490:	000b5a03 	sra	t3,t3,0x8
    1494:	01ab6821 	addu	t5,t5,t3
    1498:	00009012 	mflo	s2
    149c:	06400097 	bltz	s2,0x16fc
    14a0:	aced0004 	sw	t5,4(a3)
    14a4:	8d0e000c 	lw	t6,12(t0)
    14a8:	8ceb0008 	lw	t3,8(a3)
    14ac:	020e0018 	mult	s0,t6
    14b0:	240d0080 	addiu	t5,zero,128
    14b4:	000b7200 	sll	t6,t3,0x8
    14b8:	01cb5823 	subu	t3,t6,t3
    14bc:	000b5a03 	sra	t3,t3,0x8
    14c0:	01ab6821 	addu	t5,t5,t3
    14c4:	00009812 	mflo	s3
    14c8:	06600097 	bltz	s3,0x1728
    14cc:	aced0008 	sw	t5,8(a3)
    14d0:	8d0e0010 	lw	t6,16(t0)
    14d4:	8ceb000c 	lw	t3,12(a3)
    14d8:	020e0018 	mult	s0,t6
    14dc:	240d0080 	addiu	t5,zero,128
    14e0:	000b7200 	sll	t6,t3,0x8
    14e4:	01cb5823 	subu	t3,t6,t3
    14e8:	000b5a03 	sra	t3,t3,0x8
    14ec:	01ab6821 	addu	t5,t5,t3
    14f0:	0000b012 	mflo	s6
    14f4:	06c00097 	bltz	s6,0x1754
    14f8:	aced000c 	sw	t5,12(a3)
    14fc:	8d0e0014 	lw	t6,20(t0)
    1500:	8ceb0010 	lw	t3,16(a3)
    1504:	020e0018 	mult	s0,t6
    1508:	240d0080 	addiu	t5,zero,128
    150c:	000b7200 	sll	t6,t3,0x8
    1510:	01cb5823 	subu	t3,t6,t3
    1514:	000b5a03 	sra	t3,t3,0x8
    1518:	01ab6821 	addu	t5,t5,t3
    151c:	0000b812 	mflo	s7
    1520:	06e00097 	bltz	s7,0x1780
    1524:	aced0010 	sw	t5,16(a3)
    1528:	240d0080 	addiu	t5,zero,128
    152c:	8ceb0014 	lw	t3,20(a3)
    1530:	00000000 	sll	zero,zero,0x0
    1534:	000b7200 	sll	t6,t3,0x8
    1538:	01cb5823 	subu	t3,t6,t3
    153c:	000b5a03 	sra	t3,t3,0x8
    1540:	01ab5821 	addu	t3,t5,t3
    1544:	080002d5 	j	0xb54
    1548:	aceb0014 	sw	t3,20(a3)
    154c:	00009021 	addu	s2,zero,zero
    1550:	00122183 	sra	a0,s2,0x6
    1554:	00128ac3 	sra	s1,s2,0xb
    1558:	24130009 	addiu	s3,zero,9
    155c:	02719823 	subu	s3,s3,s1
    1560:	080002a6 	j	0xa98
    1564:	3084001f 	andi	a0,a0,0x1f
    1568:	10e0fe6b 	beqz	a3,0xf18
    156c:	24076c00 	addiu	a3,zero,27648
    1570:	080003c8 	j	0xf20
    1574:	2402d000 	addiu	v0,zero,-12288
    1578:	1100fd98 	beqz	t0,0xbdc
    157c:	240b6c00 	addiu	t3,zero,27648
    1580:	080002f9 	j	0xbe4
    1584:	2407d000 	addiu	a3,zero,-12288
    1588:	080003d6 	j	0xf58
    158c:	00403821 	addu	a3,v0,zero
    1590:	08000307 	j	0xc1c
    1594:	00e05821 	addu	t3,a3,zero
    1598:	080003ce 	j	0xf38
    159c:	2463ff40 	addiu	v1,v1,-192
    15a0:	080003be 	j	0xef8
    15a4:	2442ff80 	addiu	v0,v0,-128
    15a8:	080002ff 	j	0xbfc
    15ac:	2484ff40 	addiu	a0,a0,-192
    15b0:	080002ef 	j	0xbbc
    15b4:	24e7ff80 	addiu	a3,a3,-128
    15b8:	8d180004 	lw	t8,4(t0)
    15bc:	00000000 	sll	zero,zero,0x0
    15c0:	00580018 	mult	v0,t8
    15c4:	016f5823 	subu	t3,t3,t7
    15c8:	2403ff80 	addiu	v1,zero,-128
    15cc:	000b5a03 	sra	t3,t3,0x8
    15d0:	006b1821 	addu	v1,v1,t3
    15d4:	adc33adc 	sw	v1,15068(t6)
    15d8:	00001812 	mflo	v1
    15dc:	0461ff5a 	bgez	v1,0x1348
    15e0:	00000000 	sll	zero,zero,0x0
    15e4:	8d0e0008 	lw	t6,8(t0)
    15e8:	8ce30004 	lw	v1,4(a3)
    15ec:	004e0018 	mult	v0,t6
    15f0:	240bff80 	addiu	t3,zero,-128
    15f4:	00037200 	sll	t6,v1,0x8
    15f8:	01c31823 	subu	v1,t6,v1
    15fc:	00031a03 	sra	v1,v1,0x8
    1600:	01635821 	addu	t3,t3,v1
    1604:	aceb0004 	sw	t3,4(a3)
    1608:	00005812 	mflo	t3
    160c:	0561ff5a 	bgez	t3,0x1378
    1610:	00000000 	sll	zero,zero,0x0
    1614:	8d0e000c 	lw	t6,12(t0)
    1618:	8ce30008 	lw	v1,8(a3)
    161c:	004e0018 	mult	v0,t6
    1620:	240bff80 	addiu	t3,zero,-128
    1624:	00037200 	sll	t6,v1,0x8
    1628:	01c31823 	subu	v1,t6,v1
    162c:	00031a03 	sra	v1,v1,0x8
    1630:	01635821 	addu	t3,t3,v1
    1634:	00007012 	mflo	t6
    1638:	05c1ff5a 	bgez	t6,0x13a4
    163c:	aceb0008 	sw	t3,8(a3)
    1640:	8d0e0010 	lw	t6,16(t0)
    1644:	8ce3000c 	lw	v1,12(a3)
    1648:	004e0018 	mult	v0,t6
    164c:	240bff80 	addiu	t3,zero,-128
    1650:	00037200 	sll	t6,v1,0x8
    1654:	01c31823 	subu	v1,t6,v1
    1658:	00031a03 	sra	v1,v1,0x8
    165c:	01635821 	addu	t3,t3,v1
    1660:	00008012 	mflo	s0
    1664:	0601ff5a 	bgez	s0,0x13d0
    1668:	aceb000c 	sw	t3,12(a3)
    166c:	8d0e0014 	lw	t6,20(t0)
    1670:	8ce30010 	lw	v1,16(a3)
    1674:	004e0018 	mult	v0,t6
    1678:	240bff80 	addiu	t3,zero,-128
    167c:	00037200 	sll	t6,v1,0x8
    1680:	01c31823 	subu	v1,t6,v1
    1684:	00031a03 	sra	v1,v1,0x8
    1688:	01635821 	addu	t3,t3,v1
    168c:	00008812 	mflo	s1
    1690:	0621ff5a 	bgez	s1,0x13fc
    1694:	aceb0010 	sw	t3,16(a3)
    1698:	08000500 	j	0x1400
    169c:	240bff80 	addiu	t3,zero,-128
    16a0:	8d180004 	lw	t8,4(t0)
    16a4:	8fad0004 	lw	t5,4(sp)
    16a8:	02180018 	mult	s0,t8
    16ac:	240eff80 	addiu	t6,zero,-128
    16b0:	000d7a00 	sll	t7,t5,0x8
    16b4:	01ed6823 	subu	t5,t7,t5
    16b8:	000d6a03 	sra	t5,t5,0x8
    16bc:	01cd7021 	addu	t6,t6,t5
    16c0:	ad6e3b38 	sw	t6,15160(t3)
    16c4:	00007012 	mflo	t6
    16c8:	05c1ff6b 	bgez	t6,0x1478
    16cc:	00000000 	sll	zero,zero,0x0
    16d0:	8d0e0008 	lw	t6,8(t0)
    16d4:	8ceb0004 	lw	t3,4(a3)
    16d8:	020e0018 	mult	s0,t6
    16dc:	240dff80 	addiu	t5,zero,-128
    16e0:	000b7200 	sll	t6,t3,0x8
    16e4:	01cb5823 	subu	t3,t6,t3
    16e8:	000b5a03 	sra	t3,t3,0x8
    16ec:	01ab6821 	addu	t5,t5,t3
    16f0:	00009012 	mflo	s2
    16f4:	0641ff6b 	bgez	s2,0x14a4
    16f8:	aced0004 	sw	t5,4(a3)
    16fc:	8d0e000c 	lw	t6,12(t0)
    1700:	8ceb0008 	lw	t3,8(a3)
    1704:	020e0018 	mult	s0,t6
    1708:	240dff80 	addiu	t5,zero,-128
    170c:	000b7200 	sll	t6,t3,0x8
    1710:	01cb5823 	subu	t3,t6,t3
    1714:	000b5a03 	sra	t3,t3,0x8
    1718:	01ab6821 	addu	t5,t5,t3
    171c:	00009812 	mflo	s3
    1720:	0661ff6b 	bgez	s3,0x14d0
    1724:	aced0008 	sw	t5,8(a3)
    1728:	8d0e0010 	lw	t6,16(t0)
    172c:	8ceb000c 	lw	t3,12(a3)
    1730:	020e0018 	mult	s0,t6
    1734:	240dff80 	addiu	t5,zero,-128
    1738:	000b7200 	sll	t6,t3,0x8
    173c:	01cb5823 	subu	t3,t6,t3
    1740:	000b5a03 	sra	t3,t3,0x8
    1744:	01ab6821 	addu	t5,t5,t3
    1748:	0000b012 	mflo	s6
    174c:	06c1ff6b 	bgez	s6,0x14fc
    1750:	aced000c 	sw	t5,12(a3)
    1754:	8d0e0014 	lw	t6,20(t0)
    1758:	8ceb0010 	lw	t3,16(a3)
    175c:	020e0018 	mult	s0,t6
    1760:	240dff80 	addiu	t5,zero,-128
    1764:	000b7200 	sll	t6,t3,0x8
    1768:	01cb5823 	subu	t3,t6,t3
    176c:	000b5a03 	sra	t3,t3,0x8
    1770:	01ab6821 	addu	t5,t5,t3
    1774:	0000b812 	mflo	s7
    1778:	06e1ff6b 	bgez	s7,0x1528
    177c:	aced0010 	sw	t5,16(a3)
    1780:	0800054b 	j	0x152c
    1784:	240dff80 	addiu	t5,zero,-128
    1788:	3c030000 	lui	v1,0x0
    178c:	246238ec 	addiu	v0,v1,14572
    1790:	8c48003c 	lw	t0,60(v0)
    1794:	2407fcb8 	addiu	a3,zero,-840
    1798:	01070018 	mult	t0,a3
    179c:	27bdffb0 	addiu	sp,sp,-80
    17a0:	8c4d0054 	lw	t5,84(v0)
    17a4:	afb20034 	sw	s2,52(sp)
    17a8:	2412ffd4 	addiu	s2,zero,-44
    17ac:	8c59000c 	lw	t9,12(v0)
    17b0:	8c460024 	lw	a2,36(v0)
    17b4:	00193880 	sll	a3,t9,0x2
    17b8:	00197900 	sll	t7,t9,0x4
    17bc:	01e77823 	subu	t7,t7,a3
    17c0:	00067140 	sll	t6,a2,0x5
    17c4:	000638c0 	sll	a3,a2,0x3
    17c8:	8c480050 	lw	t0,80(v0)
    17cc:	00004812 	mflo	t1
    17d0:	01c77023 	subu	t6,t6,a3
    17d4:	01c67023 	subu	t6,t6,a2
    17d8:	240600d4 	addiu	a2,zero,212
    17dc:	01b20018 	mult	t5,s2
    17e0:	afb50040 	sw	s5,64(sp)
    17e4:	afb10030 	sw	s1,48(sp)
    17e8:	8c510004 	lw	s1,4(v0)
    17ec:	afb0002c 	sw	s0,44(sp)
    17f0:	8c500008 	lw	s0,8(v0)
    17f4:	8c4c0014 	lw	t4,20(v0)
    17f8:	afbe004c 	sw	s8,76(sp)
    17fc:	afb30038 	sw	s3,56(sp)
    1800:	0011f100 	sll	s8,s1,0x4
    1804:	00119880 	sll	s3,s1,0x2
    1808:	0010c080 	sll	t8,s0,0x2
    180c:	03d3f023 	subu	s8,s8,s3
    1810:	0000a812 	mflo	s5
    1814:	afb4003c 	sw	s4,60(sp)
    1818:	afb50020 	sw	s5,32(sp)
    181c:	0010a900 	sll	s5,s0,0x4
    1820:	01060018 	mult	t0,a2
    1824:	8c7438ec 	lw	s4,14572(v1)
    1828:	02b8c023 	subu	t8,s5,t8
    182c:	000ca8c0 	sll	s5,t4,0x3
    1830:	0218c023 	subu	t8,s0,t8
    1834:	afa90018 	sw	t1,24(sp)
    1838:	01f97821 	addu	t7,t7,t9
    183c:	8c49001c 	lw	t1,28(v0)
    1840:	afb8000c 	sw	t8,12(sp)
    1844:	0014c100 	sll	t8,s4,0x4
    1848:	0014a080 	sll	s4,s4,0x2
    184c:	8c470028 	lw	a3,40(v0)
    1850:	8c4a0038 	lw	t2,56(v0)
    1854:	00009812 	mflo	s3
    1858:	0314c023 	subu	t8,t8,s4
    185c:	afb3001c 	sw	s3,28(sp)
    1860:	000c9940 	sll	s3,t4,0x5
    1864:	02b39821 	addu	s3,s5,s3
    1868:	afb30014 	sw	s3,20(sp)
    186c:	8fb40014 	lw	s4,20(sp)
    1870:	afb70048 	sw	s7,72(sp)
    1874:	000f7880 	sll	t7,t7,0x2
    1878:	8c570058 	lw	s7,88(v0)
    187c:	023ef023 	subu	s8,s1,s8
    1880:	afb60044 	sw	s6,68(sp)
    1884:	02f20018 	mult	s7,s2
    1888:	0009b100 	sll	s6,t1,0x4
    188c:	00096880 	sll	t5,t1,0x2
    1890:	01f97821 	addu	t7,t7,t9
    1894:	8c4b002c 	lw	t3,44(v0)
    1898:	02cd6823 	subu	t5,s6,t5
    189c:	000a8140 	sll	s0,t2,0x5
    18a0:	0007b180 	sll	s6,a3,0x6
    18a4:	01fe7821 	addu	t7,t7,s8
    18a8:	01946023 	subu	t4,t4,s4
    18ac:	000eb880 	sll	s7,t6,0x2
    18b0:	0007a8c0 	sll	s5,a3,0x3
    18b4:	000ac8c0 	sll	t9,t2,0x3
    18b8:	8c480030 	lw	t0,48(v0)
    18bc:	8c460034 	lw	a2,52(v0)
    18c0:	01d77021 	addu	t6,t6,s7
    18c4:	02d5a823 	subu	s5,s6,s5
    18c8:	afb80008 	sw	t8,8(sp)
    18cc:	afaf0010 	sw	t7,16(sp)
    18d0:	0219c823 	subu	t9,s0,t9
    18d4:	afac0014 	sw	t4,20(sp)
    18d8:	8fb6000c 	lw	s6,12(sp)
    18dc:	8c570010 	lw	s7,16(v0)
    18e0:	8c4c0020 	lw	t4,32(v0)
    18e4:	8c4f0010 	lw	t7,16(v0)
    18e8:	8c500020 	lw	s0,32(v0)
    18ec:	000d9900 	sll	s3,t5,0x4
    18f0:	000b9180 	sll	s2,t3,0x6
    18f4:	000b88c0 	sll	s1,t3,0x3
    18f8:	026df023 	subu	s8,s3,t5
    18fc:	02518823 	subu	s1,s2,s1
    1900:	00179980 	sll	s3,s7,0x6
    1904:	0016c080 	sll	t8,s6,0x2
    1908:	000cb980 	sll	s7,t4,0x6
    190c:	0008b180 	sll	s6,t0,0x6
    1910:	000f6900 	sll	t5,t7,0x4
    1914:	001090c0 	sll	s2,s0,0x3
    1918:	000878c0 	sll	t7,t0,0x3
    191c:	02f29023 	subu	s2,s7,s2
    1920:	02cf7823 	subu	t7,s6,t7
    1924:	8fb70014 	lw	s7,20(sp)
    1928:	8fb60010 	lw	s6,16(sp)
    192c:	0006a180 	sll	s4,a2,0x6
    1930:	000680c0 	sll	s0,a2,0x3
    1934:	022b8821 	addu	s1,s1,t3
    1938:	02908023 	subu	s0,s4,s0
    193c:	00175900 	sll	t3,s7,0x4
    1940:	8fb40008 	lw	s4,8(sp)
    1944:	03c94821 	addu	t1,s8,t1
    1948:	0016f080 	sll	s8,s6,0x2
    194c:	01e84021 	addu	t0,t7,t0
    1950:	03cb7821 	addu	t7,s8,t3
    1954:	8c5e0018 	lw	s8,24(v0)
    1958:	032ac823 	subu	t9,t9,t2
    195c:	026d6823 	subu	t5,s3,t5
    1960:	0314c021 	addu	t8,t8,s4
    1964:	000eb8c0 	sll	s7,t6,0x3
    1968:	00155100 	sll	t2,s5,0x4
    196c:	8c4c0040 	lw	t4,64(v0)
    1970:	030dc021 	addu	t8,t8,t5
    1974:	01d77023 	subu	t6,t6,s7
    1978:	02aaa821 	addu	s5,s5,t2
    197c:	001eb1c0 	sll	s6,s8,0x7
    1980:	000948c0 	sll	t1,t1,0x3
    1984:	0012b900 	sll	s7,s2,0x4
    1988:	00115900 	sll	t3,s1,0x4
    198c:	02a7a823 	subu	s5,s5,a3
    1990:	000e7080 	sll	t6,t6,0x2
    1994:	00083900 	sll	a3,t0,0x4
    1998:	0010a100 	sll	s4,s0,0x4
    199c:	0316c021 	addu	t8,t8,s6
    19a0:	01e94821 	addu	t1,t7,t1
    19a4:	02579023 	subu	s2,s2,s7
    19a8:	000c9900 	sll	s3,t4,0x4
    19ac:	012e4821 	addu	t1,t1,t6
    19b0:	00195080 	sll	t2,t9,0x2
    19b4:	000c6880 	sll	t5,t4,0x2
    19b8:	022b5821 	addu	t3,s1,t3
    19bc:	01074021 	addu	t0,t0,a3
    19c0:	02148021 	addu	s0,s0,s4
    19c4:	0312c021 	addu	t8,t8,s2
    19c8:	00157080 	sll	t6,s5,0x2
    19cc:	8c5e0048 	lw	s8,72(v0)
    19d0:	032ac821 	addu	t9,t9,t2
    19d4:	026d6823 	subu	t5,s3,t5
    19d8:	000b5900 	sll	t3,t3,0x4
    19dc:	00084100 	sll	t0,t0,0x4
    19e0:	02063023 	subu	a2,s0,a2
    19e4:	030e7021 	addu	t6,t8,t6
    19e8:	012b8821 	addu	s1,t1,t3
    19ec:	001950c0 	sll	t2,t9,0x3
    19f0:	8c47004c 	lw	a3,76(v0)
    19f4:	01c87021 	addu	t6,t6,t0
    19f8:	000d9900 	sll	s3,t5,0x4
    19fc:	8fa80018 	lw	t0,24(sp)
    1a00:	00063080 	sll	a2,a2,0x2
    1a04:	8c490044 	lw	t1,68(v0)
    1a08:	032ac823 	subu	t9,t9,t2
    1a0c:	026d6823 	subu	t5,s3,t5
    1a10:	001e5140 	sll	t2,s8,0x5
    1a14:	001e58c0 	sll	t3,s8,0x3
    1a18:	02263021 	addu	a2,s1,a2
    1a1c:	016a5821 	addu	t3,t3,t2
    1a20:	01ac6021 	addu	t4,t5,t4
    1a24:	000949c0 	sll	t1,t1,0x7
    1a28:	00c86821 	addu	t5,a2,t0
    1a2c:	0019c880 	sll	t9,t9,0x2
    1a30:	00074180 	sll	t0,a3,0x6
    1a34:	8c46005c 	lw	a2,92(v0)
    1a38:	00073900 	sll	a3,a3,0x4
    1a3c:	03cbf023 	subu	s8,s8,t3
    1a40:	000c60c0 	sll	t4,t4,0x3
    1a44:	01a96821 	addu	t5,t5,t1
    1a48:	01073823 	subu	a3,t0,a3
    1a4c:	01d97021 	addu	t6,t6,t9
    1a50:	8fab0020 	lw	t3,32(sp)
    1a54:	01cc7021 	addu	t6,t6,t4
    1a58:	00006012 	mflo	t4
    1a5c:	00064900 	sll	t1,a2,0x4
    1a60:	001ef100 	sll	s8,s8,0x4
    1a64:	01a76821 	addu	t5,t5,a3
    1a68:	00063080 	sll	a2,a2,0x2
    1a6c:	8faa001c 	lw	t2,28(sp)
    1a70:	01263023 	subu	a2,t1,a2
    1a74:	01de7021 	addu	t6,t6,s8
    1a78:	016d6821 	addu	t5,t3,t5
    1a7c:	014e7021 	addu	t6,t2,t6
    1a80:	01a66821 	addu	t5,t5,a2
    1a84:	3c080000 	lui	t0,0x0
    1a88:	3c060000 	lui	a2,0x0
    1a8c:	01cc7021 	addu	t6,t6,t4
    1a90:	250838f0 	addiu	t0,t0,14576
    1a94:	24c63948 	addiu	a2,a2,14664
    1a98:	8cc7fff8 	lw	a3,-8(a2)
    1a9c:	00000000 	sll	zero,zero,0x0
    1aa0:	acc70000 	sw	a3,0(a2)
    1aa4:	24c6fffc 	addiu	a2,a2,-4
    1aa8:	14c8fffb 	bne	a2,t0,0x1a98
    1aac:	3c090000 	lui	t1,0x0
    1ab0:	3c080000 	lui	t0,0x0
    1ab4:	8d1936d0 	lw	t9,14032(t0)
    1ab8:	8d2a3b20 	lw	t2,15136(t1)
    1abc:	25263b20 	addiu	a2,t1,15136
    1ac0:	032a0018 	mult	t9,t2
    1ac4:	250736d0 	addiu	a3,t0,14032
    1ac8:	8cd40004 	lw	s4,4(a2)
    1acc:	8cef0004 	lw	t7,4(a3)
    1ad0:	8cd60008 	lw	s6,8(a2)
    1ad4:	8cf50008 	lw	s5,8(a3)
    1ad8:	8cf0000c 	lw	s0,12(a3)
    1adc:	8cd1000c 	lw	s1,12(a2)
    1ae0:	8cd80010 	lw	t8,16(a2)
    1ae4:	8cf70010 	lw	s7,16(a3)
    1ae8:	3c0c0000 	lui	t4,0x0
    1aec:	3c120000 	lui	s2,0x0
    1af0:	8d9e349c 	lw	s8,13468(t4)
    1af4:	0000c812 	mflo	t9
    1af8:	ac6538ec 	sw	a1,14572(v1)
    1afc:	8e43343c 	lw	v1,13372(s2)
    1b00:	3c0b0000 	lui	t3,0x0
    1b04:	028f0018 	mult	s4,t7
    1b08:	3c0a0000 	lui	t2,0x0
    1b0c:	ac440004 	sw	a0,4(v0)
    1b10:	8d4534a8 	lw	a1,13480(t2)
    1b14:	8d6434c0 	lw	a0,13504(t3)
    1b18:	01ae7821 	addu	t7,t5,t6
    1b1c:	01cd6823 	subu	t5,t6,t5
    1b20:	000f7bc3 	sra	t7,t7,0xf
    1b24:	3c020000 	lui	v0,0x0
    1b28:	ac4f34b0 	sw	t7,13488(v0)
    1b2c:	000d6bc3 	sra	t5,t5,0xf
    1b30:	3c130000 	lui	s3,0x0
    1b34:	ae6d342c 	sw	t5,13356(s3)
    1b38:	0000a012 	mflo	s4
	...
    1b44:	02d50018 	mult	s6,s5
    1b48:	0299b021 	addu	s6,s4,t9
    1b4c:	3c140000 	lui	s4,0x0
    1b50:	3c190000 	lui	t9,0x0
    1b54:	8f2233ec 	lw	v0,13292(t9)
    1b58:	0000a812 	mflo	s5
    1b5c:	02d5a821 	addu	s5,s6,s5
    1b60:	00000000 	sll	zero,zero,0x0
    1b64:	02300018 	mult	s1,s0
    1b68:	00008012 	mflo	s0
    1b6c:	02b08021 	addu	s0,s5,s0
    1b70:	00000000 	sll	zero,zero,0x0
    1b74:	03170018 	mult	t8,s7
    1b78:	0000b812 	mflo	s7
    1b7c:	0217c021 	addu	t8,s0,s7
    1b80:	00000000 	sll	zero,zero,0x0
    1b84:	03c30018 	mult	s8,v1
    1b88:	0000f012 	mflo	s8
	...
    1b94:	00850018 	mult	a0,a1
    1b98:	8ce40014 	lw	a0,20(a3)
    1b9c:	8cc50014 	lw	a1,20(a2)
    1ba0:	00001812 	mflo	v1
    1ba4:	03c31821 	addu	v1,s8,v1
    1ba8:	00031840 	sll	v1,v1,0x1
    1bac:	00850018 	mult	a0,a1
    1bb0:	00031bc3 	sra	v1,v1,0xf
    1bb4:	3c040000 	lui	a0,0x0
    1bb8:	ac8333bc 	sw	v1,13244(a0)
    1bbc:	3c040000 	lui	a0,0x0
    1bc0:	00007012 	mflo	t6
    1bc4:	01d87021 	addu	t6,t6,t8
    1bc8:	000e7383 	sra	t6,t6,0xe
    1bcc:	01c31821 	addu	v1,t6,v1
    1bd0:	01e37823 	subu	t7,t7,v1
    1bd4:	ac8e3408 	sw	t6,13320(a0)
    1bd8:	3c040000 	lui	a0,0x0
    1bdc:	ac8f3454 	sw	t7,13396(a0)
    1be0:	ae833400 	sw	v1,13312(s4)
    1be4:	05e00254 	bltz	t7,0x2538
    1be8:	01e02821 	addu	a1,t7,zero
    1bec:	3c030000 	lui	v1,0x0
    1bf0:	24632d70 	addiu	v1,v1,11632
    1bf4:	00002021 	addu	a0,zero,zero
    1bf8:	08000703 	j	0x1c0c
    1bfc:	240d001e 	addiu	t5,zero,30
    1c00:	24840001 	addiu	a0,a0,1
    1c04:	108d0009 	beq	a0,t5,0x1c2c
    1c08:	00000000 	sll	zero,zero,0x0
    1c0c:	8c780000 	lw	t8,0(v1)
    1c10:	00000000 	sll	zero,zero,0x0
    1c14:	00580018 	mult	v0,t8
    1c18:	0000c012 	mflo	t8
    1c1c:	0018c3c3 	sra	t8,t8,0xf
    1c20:	0305c02a 	slt	t8,t8,a1
    1c24:	1700fff6 	bnez	t8,0x1c00
    1c28:	24630004 	addiu	v1,v1,4
    1c2c:	05e00223 	bltz	t7,0x24bc
    1c30:	3c030000 	lui	v1,0x0
    1c34:	3c030000 	lui	v1,0x0
    1c38:	00042080 	sll	a0,a0,0x2
    1c3c:	24632de8 	addiu	v1,v1,11752
    1c40:	00832021 	addu	a0,a0,v1
    1c44:	8c850000 	lw	a1,0(a0)
    1c48:	00000000 	sll	zero,zero,0x0
    1c4c:	00051883 	sra	v1,a1,0x2
    1c50:	3c040000 	lui	a0,0x0
    1c54:	00031880 	sll	v1,v1,0x2
    1c58:	24842b70 	addiu	a0,a0,11120
    1c5c:	00642021 	addu	a0,v1,a0
    1c60:	8c8d0000 	lw	t5,0(a0)
    1c64:	3c040000 	lui	a0,0x0
    1c68:	004d0018 	mult	v0,t5
    1c6c:	3c0f0000 	lui	t7,0x0
    1c70:	8c8d33d0 	lw	t5,13264(a0)
    1c74:	25ef2cb0 	addiu	t7,t7,11440
    1c78:	006f1821 	addu	v1,v1,t7
    1c7c:	000d79c0 	sll	t7,t5,0x7
    1c80:	01ed6823 	subu	t5,t7,t5
    1c84:	8c630000 	lw	v1,0(v1)
    1c88:	000d69c3 	sra	t5,t5,0x7
    1c8c:	3c0f0000 	lui	t7,0x0
    1c90:	3c150000 	lui	s5,0x0
    1c94:	01a36821 	addu	t5,t5,v1
    1c98:	ade5344c 	sw	a1,13388(t7)
    1c9c:	00001012 	mflo	v0
    1ca0:	000213c3 	sra	v0,v0,0xf
    1ca4:	05a001f8 	bltz	t5,0x2488
    1ca8:	aea2346c 	sw	v0,13420(s5)
    1cac:	29a34801 	slti	v1,t5,18433
    1cb0:	146001f7 	bnez	v1,0x2490
    1cb4:	000d1983 	sra	v1,t5,0x6
    1cb8:	00002821 	addu	a1,zero,zero
    1cbc:	00001821 	addu	v1,zero,zero
    1cc0:	240d4800 	addiu	t5,zero,18432
    1cc4:	3c180000 	lui	t8,0x0
    1cc8:	00031880 	sll	v1,v1,0x2
    1ccc:	27182cf0 	addiu	t8,t8,11504
    1cd0:	03031821 	addu	v1,t8,v1
    1cd4:	8c630000 	lw	v1,0(v1)
    1cd8:	004e7021 	addu	t6,v0,t6
    1cdc:	00a32807 	srav	a1,v1,a1
    1ce0:	000528c0 	sll	a1,a1,0x3
    1ce4:	3c030000 	lui	v1,0x0
    1ce8:	ac8d33d0 	sw	t5,13264(a0)
    1cec:	af2533ec 	sw	a1,13292(t9)
    1cf0:	1440019f 	bnez	v0,0x2370
    1cf4:	ac6e34b4 	sw	t6,13492(v1)
    1cf8:	8d393b20 	lw	t9,15136(t1)
    1cfc:	8ccd0008 	lw	t5,8(a2)
    1d00:	8cc5000c 	lw	a1,12(a2)
    1d04:	00192200 	sll	a0,t9,0x8
    1d08:	8cd00010 	lw	s0,16(a2)
    1d0c:	afa40004 	sw	a0,4(sp)
    1d10:	8cc40014 	lw	a0,20(a2)
    1d14:	8cce0004 	lw	t6,4(a2)
    1d18:	000dba00 	sll	s7,t5,0x8
    1d1c:	0005b200 	sll	s6,a1,0x8
    1d20:	00108a00 	sll	s1,s0,0x8
    1d24:	02ed6823 	subu	t5,s7,t5
    1d28:	00048200 	sll	s0,a0,0x8
    1d2c:	02c52823 	subu	a1,s6,a1
    1d30:	8fa40004 	lw	a0,4(sp)
    1d34:	8cd60010 	lw	s6,16(a2)
    1d38:	8cd70014 	lw	s7,20(a2)
    1d3c:	000ef200 	sll	s8,t6,0x8
    1d40:	0099c823 	subu	t9,a0,t9
    1d44:	03ce7023 	subu	t6,s8,t6
    1d48:	02362023 	subu	a0,s1,s6
    1d4c:	02178023 	subu	s0,s0,s7
    1d50:	0019ca03 	sra	t9,t9,0x8
    1d54:	000e7203 	sra	t6,t6,0x8
    1d58:	000d6a03 	sra	t5,t5,0x8
    1d5c:	00052a03 	sra	a1,a1,0x8
    1d60:	00042203 	sra	a0,a0,0x8
    1d64:	00108203 	sra	s0,s0,0x8
    1d68:	ad393b20 	sw	t9,15136(t1)
    1d6c:	acd00014 	sw	s0,20(a2)
    1d70:	acce0004 	sw	t6,4(a2)
    1d74:	accd0008 	sw	t5,8(a2)
    1d78:	acc5000c 	sw	a1,12(a2)
    1d7c:	acc40010 	sw	a0,16(a2)
    1d80:	3c190000 	lui	t9,0x0
    1d84:	8c6934b4 	lw	t1,13492(v1)
    1d88:	8f313490 	lw	s1,13456(t9)
    1d8c:	8ce50010 	lw	a1,16(a3)
    1d90:	02290018 	mult	s1,t1
    1d94:	8ced000c 	lw	t5,12(a3)
    1d98:	8d0e36d0 	lw	t6,14032(t0)
    1d9c:	8ce60008 	lw	a2,8(a3)
    1da0:	8d6334c0 	lw	v1,13504(t3)
    1da4:	3c100000 	lui	s0,0x0
    1da8:	ad0236d0 	sw	v0,14032(t0)
    1dac:	ace50014 	sw	a1,20(a3)
    1db0:	ace6000c 	sw	a2,12(a3)
    1db4:	acee0004 	sw	t6,4(a3)
    1db8:	aced0010 	sw	t5,16(a3)
    1dbc:	8d85349c 	lw	a1,13468(t4)
    1dc0:	8e063484 	lw	a2,13444(s0)
    1dc4:	00002012 	mflo	a0
    1dc8:	04800002 	bltz	a0,0x1dd4
    1dcc:	00031080 	sll	v0,v1,0x2
    1dd0:	00021023 	negu	v0,v0
    1dd4:	00c90018 	mult	a2,t1
    1dd8:	00003012 	mflo	a2
    1ddc:	04c001d0 	bltz	a2,0x2520
    1de0:	000211c3 	sra	v0,v0,0x7
    1de4:	24420080 	addiu	v0,v0,128
    1de8:	000531c0 	sll	a2,a1,0x7
    1dec:	00c52823 	subu	a1,a2,a1
    1df0:	000529c3 	sra	a1,a1,0x7
    1df4:	00451021 	addu	v0,v0,a1
    1df8:	28453001 	slti	a1,v0,12289
    1dfc:	14a00158 	bnez	a1,0x2360
    1e00:	2845d000 	slti	a1,v0,-12288
    1e04:	24023000 	addiu	v0,zero,12288
    1e08:	24053c00 	addiu	a1,zero,15360
    1e0c:	00a22823 	subu	a1,a1,v0
    1e10:	00033200 	sll	a2,v1,0x8
    1e14:	00c31823 	subu	v1,a2,v1
    1e18:	ad82349c 	sw	v0,13468(t4)
    1e1c:	048001be 	bltz	a0,0x2518
    1e20:	00031a03 	sra	v1,v1,0x8
    1e24:	246300c0 	addiu	v1,v1,192
    1e28:	00a3102a 	slt	v0,a1,v1
    1e2c:	14400007 	bnez	v0,0x1e4c
    1e30:	3c0c0000 	lui	t4,0x0
    1e34:	00051023 	negu	v0,a1
    1e38:	00602821 	addu	a1,v1,zero
    1e3c:	0062182a 	slt	v1,v1,v0
    1e40:	1460019c 	bnez	v1,0x24b4
    1e44:	00000000 	sll	zero,zero,0x0
    1e48:	3c0c0000 	lui	t4,0x0
    1e4c:	3c040000 	lui	a0,0x0
    1e50:	8d8d3b50 	lw	t5,15184(t4)
    1e54:	8c9638d4 	lw	s6,14548(a0)
    1e58:	248338d4 	addiu	v1,a0,14548
    1e5c:	02cd0018 	mult	s6,t5
    1e60:	25823b50 	addiu	v0,t4,15184
    1e64:	8c770004 	lw	s7,4(v1)
    1e68:	8c5e0004 	lw	s8,4(v0)
    1e6c:	8eb5346c 	lw	s5,13420(s5)
    1e70:	8e943400 	lw	s4,13312(s4)
    1e74:	8e73342c 	lw	s3,13356(s3)
    1e78:	af293490 	sw	t1,13456(t9)
    1e7c:	afb30024 	sw	s3,36(sp)
    1e80:	02b49821 	addu	s3,s5,s4
    1e84:	8c750008 	lw	s5,8(v1)
    1e88:	8c69000c 	lw	t1,12(v1)
    1e8c:	ad6534c0 	sw	a1,13504(t3)
    1e90:	00003012 	mflo	a2
    1e94:	8c4b0010 	lw	t3,16(v0)
    1e98:	afa60000 	sw	a2,0(sp)
    1e9c:	3c050000 	lui	a1,0x0
    1ea0:	02fe0018 	mult	s7,s8
    1ea4:	acb333fc 	sw	s3,13308(a1)
    1ea8:	3c080000 	lui	t0,0x0
    1eac:	3c0e0000 	lui	t6,0x0
    1eb0:	ae113484 	sw	s1,13444(s0)
    1eb4:	8dd033b8 	lw	s0,13240(t6)
    1eb8:	3c070000 	lui	a3,0x0
    1ebc:	3c060000 	lui	a2,0x0
    1ec0:	8c510014 	lw	s1,20(v0)
    1ec4:	0000b812 	mflo	s7
    1ec8:	afb70004 	sw	s7,4(sp)
    1ecc:	8c570008 	lw	s7,8(v0)
    1ed0:	8fbe0004 	lw	s8,4(sp)
    1ed4:	02b70018 	mult	s5,s7
    1ed8:	8fb50000 	lw	s5,0(sp)
    1edc:	00000000 	sll	zero,zero,0x0
    1ee0:	03d5b821 	addu	s7,s8,s5
    1ee4:	8d5e34a8 	lw	s8,13480(t2)
    1ee8:	ad5334a8 	sw	s3,13480(t2)
    1eec:	8c4a000c 	lw	t2,12(v0)
    1ef0:	8fb30024 	lw	s3,36(sp)
    1ef4:	3c150000 	lui	s5,0x0
    1ef8:	ae5e343c 	sw	s8,13372(s2)
    1efc:	0000a012 	mflo	s4
    1f00:	02f4b821 	addu	s7,s7,s4
    1f04:	00000000 	sll	zero,zero,0x0
    1f08:	012a0018 	mult	t1,t2
    1f0c:	8c6a0010 	lw	t2,16(v1)
    1f10:	00002812 	mflo	a1
    1f14:	02e52821 	addu	a1,s7,a1
    1f18:	00000000 	sll	zero,zero,0x0
    1f1c:	014b0018 	mult	t2,t3
    1f20:	8d0a3448 	lw	t2,13384(t0)
    1f24:	00004812 	mflo	t1
    1f28:	00a92821 	addu	a1,a1,t1
    1f2c:	8ce933f8 	lw	t1,13304(a3)
    1f30:	01500018 	mult	t2,s0
    1f34:	8cd03478 	lw	s0,13432(a2)
    1f38:	00005812 	mflo	t3
	...
    1f44:	01300018 	mult	t1,s0
    1f48:	8c700014 	lw	s0,20(v1)
    1f4c:	00005012 	mflo	t2
    1f50:	016a5021 	addu	t2,t3,t2
    1f54:	000a5040 	sll	t2,t2,0x1
    1f58:	02110018 	mult	s0,s1
    1f5c:	000a53c3 	sra	t2,t2,0xf
    1f60:	3c0b0000 	lui	t3,0x0
    1f64:	ad6a3468 	sw	t2,13416(t3)
    1f68:	00004812 	mflo	t1
    1f6c:	01252821 	addu	a1,t1,a1
    1f70:	00054b83 	sra	t1,a1,0xe
    1f74:	012a2821 	addu	a1,t1,t2
    1f78:	3c0a0000 	lui	t2,0x0
    1f7c:	ad4933c0 	sw	t1,13248(t2)
    1f80:	02658023 	subu	s0,s3,a1
    1f84:	3c0a0000 	lui	t2,0x0
    1f88:	ad5033f0 	sw	s0,13296(t2)
    1f8c:	06000151 	bltz	s0,0x24d4
    1f90:	aea533e8 	sw	a1,13288(s5)
    1f94:	24050003 	addiu	a1,zero,3
    1f98:	3c0a0000 	lui	t2,0x0
    1f9c:	3c0b0000 	lui	t3,0x0
    1fa0:	ad4533c8 	sw	a1,13256(t2)
    1fa4:	8d653420 	lw	a1,13344(t3)
    1fa8:	24190002 	addiu	t9,zero,2
    1fac:	00059080 	sll	s2,a1,0x2
    1fb0:	00058900 	sll	s1,a1,0x4
    1fb4:	02518821 	addu	s1,s2,s1
    1fb8:	001190c0 	sll	s2,s1,0x3
    1fbc:	02518823 	subu	s1,s2,s1
    1fc0:	02258821 	addu	s1,s1,a1
    1fc4:	00118880 	sll	s1,s1,0x2
    1fc8:	06000151 	bltz	s0,0x2510
    1fcc:	00118b03 	sra	s1,s1,0xc
    1fd0:	0230802a 	slt	s0,s1,s0
    1fd4:	16000133 	bnez	s0,0x24a4
    1fd8:	00000000 	sll	zero,zero,0x0
    1fdc:	8d5933c8 	lw	t9,13256(t2)
    1fe0:	3c100000 	lui	s0,0x0
    1fe4:	0019c880 	sll	t9,t9,0x2
    1fe8:	26102ee0 	addiu	s0,s0,12000
    1fec:	03308021 	addu	s0,t9,s0
    1ff0:	8e110000 	lw	s1,0(s0)
    1ff4:	3c100000 	lui	s0,0x0
    1ff8:	00b10018 	mult	a1,s1
    1ffc:	3c120000 	lui	s2,0x0
    2000:	8e1134a4 	lw	s1,13476(s0)
    2004:	26522ef0 	addiu	s2,s2,12016
    2008:	0332c821 	addu	t9,t9,s2
    200c:	001191c0 	sll	s2,s1,0x7
    2010:	8f390000 	lw	t9,0(t9)
    2014:	02518823 	subu	s1,s2,s1
    2018:	001189c3 	sra	s1,s1,0x7
    201c:	02398821 	addu	s1,s1,t9
    2020:	3c190000 	lui	t9,0x0
    2024:	00002812 	mflo	a1
    2028:	00052bc3 	sra	a1,a1,0xf
    202c:	062000c5 	bltz	s1,0x2344
    2030:	af2533e0 	sw	a1,13280(t9)
    2034:	2a325801 	slti	s2,s1,22529
    2038:	164000c4 	bnez	s2,0x234c
    203c:	00119983 	sra	s3,s1,0x6
    2040:	00009021 	addu	s2,zero,zero
    2044:	00009821 	addu	s3,zero,zero
    2048:	24115800 	addiu	s1,zero,22528
    204c:	00139880 	sll	s3,s3,0x2
    2050:	0313c021 	addu	t8,t8,s3
    2054:	8f180000 	lw	t8,0(t8)
    2058:	00a94821 	addu	t1,a1,t1
    205c:	02589007 	srav	s2,t8,s2
    2060:	001290c0 	sll	s2,s2,0x3
    2064:	3c180000 	lui	t8,0x0
    2068:	ae1134a4 	sw	s1,13476(s0)
    206c:	ad723420 	sw	s2,13344(t3)
    2070:	14a00070 	bnez	a1,0x2234
    2074:	af0933dc 	sw	t1,13276(t8)
    2078:	8c4b0010 	lw	t3,16(v0)
    207c:	000d4a00 	sll	t1,t5,0x8
    2080:	afa90000 	sw	t1,0(sp)
    2084:	8c490014 	lw	t1,20(v0)
    2088:	8c520004 	lw	s2,4(v0)
    208c:	8c510008 	lw	s1,8(v0)
    2090:	8c50000c 	lw	s0,12(v0)
    2094:	000ba200 	sll	s4,t3,0x8
    2098:	00099a00 	sll	s3,t1,0x8
    209c:	028b5823 	subu	t3,s4,t3
    20a0:	8fa90000 	lw	t1,0(sp)
    20a4:	8c540014 	lw	s4,20(v0)
    20a8:	0012f200 	sll	s8,s2,0x8
    20ac:	0011ba00 	sll	s7,s1,0x8
    20b0:	0010b200 	sll	s6,s0,0x8
    20b4:	012d6823 	subu	t5,t1,t5
    20b8:	03d29023 	subu	s2,s8,s2
    20bc:	02f18823 	subu	s1,s7,s1
    20c0:	02d08023 	subu	s0,s6,s0
    20c4:	02744823 	subu	t1,s3,s4
    20c8:	000d6a03 	sra	t5,t5,0x8
    20cc:	00129203 	sra	s2,s2,0x8
    20d0:	00118a03 	sra	s1,s1,0x8
    20d4:	00108203 	sra	s0,s0,0x8
    20d8:	000b5a03 	sra	t3,t3,0x8
    20dc:	00094a03 	sra	t1,t1,0x8
    20e0:	ad8d3b50 	sw	t5,15184(t4)
    20e4:	ac490014 	sw	t1,20(v0)
    20e8:	ac520004 	sw	s2,4(v0)
    20ec:	ac510008 	sw	s1,8(v0)
    20f0:	ac50000c 	sw	s0,12(v0)
    20f4:	ac4b0010 	sw	t3,16(v0)
    20f8:	3c0b0000 	lui	t3,0x0
    20fc:	8f0933dc 	lw	t1,13276(t8)
    2100:	8d6d3474 	lw	t5,13428(t3)
    2104:	8c700010 	lw	s0,16(v1)
    2108:	01a90018 	mult	t5,t1
    210c:	8c72000c 	lw	s2,12(v1)
    2110:	8c9338d4 	lw	s3,14548(a0)
    2114:	8c710008 	lw	s1,8(v1)
    2118:	8ce233f8 	lw	v0,13304(a3)
    211c:	3c0c0000 	lui	t4,0x0
    2120:	ac8538d4 	sw	a1,14548(a0)
    2124:	ac730004 	sw	s3,4(v1)
    2128:	ac700014 	sw	s0,20(v1)
    212c:	ac720010 	sw	s2,16(v1)
    2130:	ac71000c 	sw	s1,12(v1)
    2134:	8d043448 	lw	a0,13384(t0)
    2138:	8d853440 	lw	a1,13376(t4)
    213c:	0000c012 	mflo	t8
    2140:	07000002 	bltz	t8,0x214c
    2144:	00021880 	sll	v1,v0,0x2
    2148:	00031823 	negu	v1,v1
    214c:	00a90018 	mult	a1,t1
    2150:	00002812 	mflo	a1
    2154:	04a000f6 	bltz	a1,0x2530
    2158:	000319c3 	sra	v1,v1,0x7
    215c:	24630080 	addiu	v1,v1,128
    2160:	000429c0 	sll	a1,a0,0x7
    2164:	00a42023 	subu	a0,a1,a0
    2168:	000421c3 	sra	a0,a0,0x7
    216c:	00641821 	addu	v1,v1,a0
    2170:	28643001 	slti	a0,v1,12289
    2174:	1480002b 	bnez	a0,0x2224
    2178:	2864d000 	slti	a0,v1,-12288
    217c:	24033000 	addiu	v1,zero,12288
    2180:	24043c00 	addiu	a0,zero,15360
    2184:	00832023 	subu	a0,a0,v1
    2188:	00022a00 	sll	a1,v0,0x8
    218c:	00a21023 	subu	v0,a1,v0
    2190:	ad033448 	sw	v1,13384(t0)
    2194:	070000e4 	bltz	t8,0x2528
    2198:	00021203 	sra	v0,v0,0x8
    219c:	244200c0 	addiu	v0,v0,192
    21a0:	0082182a 	slt	v1,a0,v0
    21a4:	14600005 	bnez	v1,0x21bc
    21a8:	00041823 	negu	v1,a0
    21ac:	00402021 	addu	a0,v0,zero
    21b0:	0043102a 	slt	v0,v0,v1
    21b4:	144000bd 	bnez	v0,0x24ac
    21b8:	00000000 	sll	zero,zero,0x0
    21bc:	8ea333e8 	lw	v1,13288(s5)
    21c0:	8f3833e0 	lw	t8,13280(t9)
    21c4:	8d4533c8 	lw	a1,13256(t2)
    21c8:	8cc83478 	lw	t0,13432(a2)
    21cc:	8de2344c 	lw	v0,13388(t7)
    21d0:	03031821 	addu	v1,t8,v1
    21d4:	00052980 	sll	a1,a1,0x6
    21d8:	ace433f8 	sw	a0,13304(a3)
    21dc:	3c040000 	lui	a0,0x0
    21e0:	00a21025 	or	v0,a1,v0
    21e4:	8fbe004c 	lw	s8,76(sp)
    21e8:	8fb70048 	lw	s7,72(sp)
    21ec:	8fb60044 	lw	s6,68(sp)
    21f0:	8fb50040 	lw	s5,64(sp)
    21f4:	8fb4003c 	lw	s4,60(sp)
    21f8:	8fb30038 	lw	s3,56(sp)
    21fc:	8fb20034 	lw	s2,52(sp)
    2200:	8fb10030 	lw	s1,48(sp)
    2204:	8fb0002c 	lw	s0,44(sp)
    2208:	adc833b8 	sw	t0,13240(t6)
    220c:	acc33478 	sw	v1,13432(a2)
    2210:	ad8d3440 	sw	t5,13376(t4)
    2214:	ad693474 	sw	t1,13428(t3)
    2218:	ac8333f4 	sw	v1,13300(a0)
    221c:	03e00008 	jr	ra
    2220:	27bd0050 	addiu	sp,sp,80
    2224:	1080ffd6 	beqz	a0,0x2180
    2228:	24046c00 	addiu	a0,zero,27648
    222c:	08000862 	j	0x2188
    2230:	2403d000 	addiu	v1,zero,-12288
    2234:	00b60018 	mult	a1,s6
    2238:	0000b012 	mflo	s6
    223c:	06c000c0 	bltz	s6,0x2540
    2240:	000d4a00 	sll	t1,t5,0x8
    2244:	8c700004 	lw	s0,4(v1)
    2248:	00000000 	sll	zero,zero,0x0
    224c:	00b00018 	mult	a1,s0
    2250:	012d4823 	subu	t1,t1,t5
    2254:	00094a03 	sra	t1,t1,0x8
    2258:	240b0080 	addiu	t3,zero,128
    225c:	01695821 	addu	t3,t3,t1
    2260:	00004812 	mflo	t1
    2264:	052000c0 	bltz	t1,0x2568
    2268:	ad8b3b50 	sw	t3,15184(t4)
    226c:	8c6c0008 	lw	t4,8(v1)
    2270:	8c490004 	lw	t1,4(v0)
    2274:	00ac0018 	mult	a1,t4
    2278:	240b0080 	addiu	t3,zero,128
    227c:	00096200 	sll	t4,t1,0x8
    2280:	01894823 	subu	t1,t4,t1
    2284:	00094a03 	sra	t1,t1,0x8
    2288:	01695821 	addu	t3,t3,t1
    228c:	ac4b0004 	sw	t3,4(v0)
    2290:	00005812 	mflo	t3
    2294:	056000c0 	bltz	t3,0x2598
    2298:	00000000 	sll	zero,zero,0x0
    229c:	8c6c000c 	lw	t4,12(v1)
    22a0:	8c490008 	lw	t1,8(v0)
    22a4:	00ac0018 	mult	a1,t4
    22a8:	240b0080 	addiu	t3,zero,128
    22ac:	00096200 	sll	t4,t1,0x8
    22b0:	01894823 	subu	t1,t4,t1
    22b4:	00094a03 	sra	t1,t1,0x8
    22b8:	01695821 	addu	t3,t3,t1
    22bc:	00006012 	mflo	t4
    22c0:	058000c0 	bltz	t4,0x25c4
    22c4:	ac4b0008 	sw	t3,8(v0)
    22c8:	8c6c0010 	lw	t4,16(v1)
    22cc:	8c49000c 	lw	t1,12(v0)
    22d0:	00ac0018 	mult	a1,t4
    22d4:	240b0080 	addiu	t3,zero,128
    22d8:	00096200 	sll	t4,t1,0x8
    22dc:	01894823 	subu	t1,t4,t1
    22e0:	00094a03 	sra	t1,t1,0x8
    22e4:	01695821 	addu	t3,t3,t1
    22e8:	00008012 	mflo	s0
    22ec:	060000c0 	bltz	s0,0x25f0
    22f0:	ac4b000c 	sw	t3,12(v0)
    22f4:	8c6c0014 	lw	t4,20(v1)
    22f8:	8c490010 	lw	t1,16(v0)
    22fc:	00ac0018 	mult	a1,t4
    2300:	240b0080 	addiu	t3,zero,128
    2304:	00096200 	sll	t4,t1,0x8
    2308:	01894823 	subu	t1,t4,t1
    230c:	00094a03 	sra	t1,t1,0x8
    2310:	01695821 	addu	t3,t3,t1
    2314:	00008812 	mflo	s1
    2318:	062000c0 	bltz	s1,0x261c
    231c:	ac4b0010 	sw	t3,16(v0)
    2320:	240c0080 	addiu	t4,zero,128
    2324:	8c490014 	lw	t1,20(v0)
    2328:	00000000 	sll	zero,zero,0x0
    232c:	00095a00 	sll	t3,t1,0x8
    2330:	01694823 	subu	t1,t3,t1
    2334:	00094a03 	sra	t1,t1,0x8
    2338:	01894821 	addu	t1,t4,t1
    233c:	0800083e 	j	0x20f8
    2340:	ac490014 	sw	t1,20(v0)
    2344:	00008821 	addu	s1,zero,zero
    2348:	00119983 	sra	s3,s1,0x6
    234c:	001192c3 	sra	s2,s1,0xb
    2350:	2414000b 	addiu	s4,zero,11
    2354:	02929023 	subu	s2,s4,s2
    2358:	08000813 	j	0x204c
    235c:	3273001f 	andi	s3,s3,0x1f
    2360:	10a0fea9 	beqz	a1,0x1e08
    2364:	24056c00 	addiu	a1,zero,27648
    2368:	08000784 	j	0x1e10
    236c:	2402d000 	addiu	v0,zero,-12288
    2370:	8d0436d0 	lw	a0,14032(t0)
    2374:	00000000 	sll	zero,zero,0x0
    2378:	00440018 	mult	v0,a0
    237c:	0000c812 	mflo	t9
    2380:	072000a8 	bltz	t9,0x2624
    2384:	24050080 	addiu	a1,zero,128
    2388:	8ced0004 	lw	t5,4(a3)
    238c:	8d243b20 	lw	a0,15136(t1)
    2390:	004d0018 	mult	v0,t5
    2394:	00046a00 	sll	t5,a0,0x8
    2398:	01a42023 	subu	a0,t5,a0
    239c:	00042203 	sra	a0,a0,0x8
    23a0:	00a42821 	addu	a1,a1,a0
    23a4:	0000f012 	mflo	s8
    23a8:	07c000a9 	bltz	s8,0x2650
    23ac:	ad253b20 	sw	a1,15136(t1)
    23b0:	8ce90008 	lw	t1,8(a3)
    23b4:	8cc40004 	lw	a0,4(a2)
    23b8:	00490018 	mult	v0,t1
    23bc:	24050080 	addiu	a1,zero,128
    23c0:	00044a00 	sll	t1,a0,0x8
    23c4:	01242023 	subu	a0,t1,a0
    23c8:	00042203 	sra	a0,a0,0x8
    23cc:	00a42821 	addu	a1,a1,a0
    23d0:	00002012 	mflo	a0
    23d4:	048000a9 	bltz	a0,0x267c
    23d8:	acc50004 	sw	a1,4(a2)
    23dc:	8ce9000c 	lw	t1,12(a3)
    23e0:	8cc40008 	lw	a0,8(a2)
    23e4:	00490018 	mult	v0,t1
    23e8:	24050080 	addiu	a1,zero,128
    23ec:	00044a00 	sll	t1,a0,0x8
    23f0:	01242023 	subu	a0,t1,a0
    23f4:	00042203 	sra	a0,a0,0x8
    23f8:	00a42821 	addu	a1,a1,a0
    23fc:	acc50008 	sw	a1,8(a2)
    2400:	00002812 	mflo	a1
    2404:	04a000a9 	bltz	a1,0x26ac
    2408:	00000000 	sll	zero,zero,0x0
    240c:	8ce90010 	lw	t1,16(a3)
    2410:	8cc4000c 	lw	a0,12(a2)
    2414:	00490018 	mult	v0,t1
    2418:	24050080 	addiu	a1,zero,128
    241c:	00044a00 	sll	t1,a0,0x8
    2420:	01242023 	subu	a0,t1,a0
    2424:	00042203 	sra	a0,a0,0x8
    2428:	00a42821 	addu	a1,a1,a0
    242c:	00004812 	mflo	t1
    2430:	052000a9 	bltz	t1,0x26d8
    2434:	acc5000c 	sw	a1,12(a2)
    2438:	8ce90014 	lw	t1,20(a3)
    243c:	8cc40010 	lw	a0,16(a2)
    2440:	00490018 	mult	v0,t1
    2444:	24050080 	addiu	a1,zero,128
    2448:	00044a00 	sll	t1,a0,0x8
    244c:	01242023 	subu	a0,t1,a0
    2450:	00042203 	sra	a0,a0,0x8
    2454:	00a42821 	addu	a1,a1,a0
    2458:	00008012 	mflo	s0
    245c:	060000a9 	bltz	s0,0x2704
    2460:	acc50010 	sw	a1,16(a2)
    2464:	24090080 	addiu	t1,zero,128
    2468:	8cc40014 	lw	a0,20(a2)
    246c:	00000000 	sll	zero,zero,0x0
    2470:	00042a00 	sll	a1,a0,0x8
    2474:	00a42023 	subu	a0,a1,a0
    2478:	00042203 	sra	a0,a0,0x8
    247c:	01242021 	addu	a0,t1,a0
    2480:	08000760 	j	0x1d80
    2484:	acc40014 	sw	a0,20(a2)
    2488:	00006821 	addu	t5,zero,zero
    248c:	000d1983 	sra	v1,t5,0x6
    2490:	000d2ac3 	sra	a1,t5,0xb
    2494:	24180009 	addiu	t8,zero,9
    2498:	03052823 	subu	a1,t8,a1
    249c:	08000731 	j	0x1cc4
    24a0:	3063001f 	andi	v1,v1,0x1f
    24a4:	080007f8 	j	0x1fe0
    24a8:	ad5933c8 	sw	t9,13256(t2)
    24ac:	0800086f 	j	0x21bc
    24b0:	00602021 	addu	a0,v1,zero
    24b4:	08000792 	j	0x1e48
    24b8:	00402821 	addu	a1,v0,zero
    24bc:	00042080 	sll	a0,a0,0x2
    24c0:	24632e64 	addiu	v1,v1,11876
    24c4:	00832021 	addu	a0,a0,v1
    24c8:	8c850000 	lw	a1,0(a0)
    24cc:	08000714 	j	0x1c50
    24d0:	00051883 	sra	v1,a1,0x2
    24d4:	24050001 	addiu	a1,zero,1
    24d8:	3c0a0000 	lui	t2,0x0
    24dc:	3c0b0000 	lui	t3,0x0
    24e0:	ad4533c8 	sw	a1,13256(t2)
    24e4:	8d653420 	lw	a1,13344(t3)
    24e8:	0000c821 	addu	t9,zero,zero
    24ec:	00059080 	sll	s2,a1,0x2
    24f0:	00058900 	sll	s1,a1,0x4
    24f4:	02518821 	addu	s1,s2,s1
    24f8:	001190c0 	sll	s2,s1,0x3
    24fc:	02518823 	subu	s1,s2,s1
    2500:	02258821 	addu	s1,s1,a1
    2504:	00118880 	sll	s1,s1,0x2
    2508:	0601feb1 	bgez	s0,0x1fd0
    250c:	00118b03 	sra	s1,s1,0xc
    2510:	080007f4 	j	0x1fd0
    2514:	00108023 	negu	s0,s0
    2518:	0800078a 	j	0x1e28
    251c:	2463ff40 	addiu	v1,v1,-192
    2520:	0800077a 	j	0x1de8
    2524:	2442ff80 	addiu	v0,v0,-128
    2528:	08000868 	j	0x21a0
    252c:	2442ff40 	addiu	v0,v0,-192
    2530:	08000858 	j	0x2160
    2534:	2463ff80 	addiu	v1,v1,-128
    2538:	080006fb 	j	0x1bec
    253c:	000f2823 	negu	a1,t7
    2540:	8c700004 	lw	s0,4(v1)
    2544:	00000000 	sll	zero,zero,0x0
    2548:	00b00018 	mult	a1,s0
    254c:	012d4823 	subu	t1,t1,t5
    2550:	00094a03 	sra	t1,t1,0x8
    2554:	240bff80 	addiu	t3,zero,-128
    2558:	01695821 	addu	t3,t3,t1
    255c:	00004812 	mflo	t1
    2560:	0521ff42 	bgez	t1,0x226c
    2564:	ad8b3b50 	sw	t3,15184(t4)
    2568:	8c6c0008 	lw	t4,8(v1)
    256c:	8c490004 	lw	t1,4(v0)
    2570:	00ac0018 	mult	a1,t4
    2574:	240bff80 	addiu	t3,zero,-128
    2578:	00096200 	sll	t4,t1,0x8
    257c:	01894823 	subu	t1,t4,t1
    2580:	00094a03 	sra	t1,t1,0x8
    2584:	01695821 	addu	t3,t3,t1
    2588:	ac4b0004 	sw	t3,4(v0)
    258c:	00005812 	mflo	t3
    2590:	0561ff42 	bgez	t3,0x229c
    2594:	00000000 	sll	zero,zero,0x0
    2598:	8c6c000c 	lw	t4,12(v1)
    259c:	8c490008 	lw	t1,8(v0)
    25a0:	00ac0018 	mult	a1,t4
    25a4:	240bff80 	addiu	t3,zero,-128
    25a8:	00096200 	sll	t4,t1,0x8
    25ac:	01894823 	subu	t1,t4,t1
    25b0:	00094a03 	sra	t1,t1,0x8
    25b4:	01695821 	addu	t3,t3,t1
    25b8:	00006012 	mflo	t4
    25bc:	0581ff42 	bgez	t4,0x22c8
    25c0:	ac4b0008 	sw	t3,8(v0)
    25c4:	8c6c0010 	lw	t4,16(v1)
    25c8:	8c49000c 	lw	t1,12(v0)
    25cc:	00ac0018 	mult	a1,t4
    25d0:	240bff80 	addiu	t3,zero,-128
    25d4:	00096200 	sll	t4,t1,0x8
    25d8:	01894823 	subu	t1,t4,t1
    25dc:	00094a03 	sra	t1,t1,0x8
    25e0:	01695821 	addu	t3,t3,t1
    25e4:	00008012 	mflo	s0
    25e8:	0601ff42 	bgez	s0,0x22f4
    25ec:	ac4b000c 	sw	t3,12(v0)
    25f0:	8c6c0014 	lw	t4,20(v1)
    25f4:	8c490010 	lw	t1,16(v0)
    25f8:	00ac0018 	mult	a1,t4
    25fc:	240bff80 	addiu	t3,zero,-128
    2600:	00096200 	sll	t4,t1,0x8
    2604:	01894823 	subu	t1,t4,t1
    2608:	00094a03 	sra	t1,t1,0x8
    260c:	01695821 	addu	t3,t3,t1
    2610:	00008812 	mflo	s1
    2614:	0621ff42 	bgez	s1,0x2320
    2618:	ac4b0010 	sw	t3,16(v0)
    261c:	080008c9 	j	0x2324
    2620:	240cff80 	addiu	t4,zero,-128
    2624:	8ced0004 	lw	t5,4(a3)
    2628:	8d243b20 	lw	a0,15136(t1)
    262c:	004d0018 	mult	v0,t5
    2630:	2405ff80 	addiu	a1,zero,-128
    2634:	00046a00 	sll	t5,a0,0x8
    2638:	01a42023 	subu	a0,t5,a0
    263c:	00042203 	sra	a0,a0,0x8
    2640:	00a42821 	addu	a1,a1,a0
    2644:	0000f012 	mflo	s8
    2648:	07c1ff59 	bgez	s8,0x23b0
    264c:	ad253b20 	sw	a1,15136(t1)
    2650:	8ce90008 	lw	t1,8(a3)
    2654:	8cc40004 	lw	a0,4(a2)
    2658:	00490018 	mult	v0,t1
    265c:	2405ff80 	addiu	a1,zero,-128
    2660:	00044a00 	sll	t1,a0,0x8
    2664:	01242023 	subu	a0,t1,a0
    2668:	00042203 	sra	a0,a0,0x8
    266c:	00a42821 	addu	a1,a1,a0
    2670:	00002012 	mflo	a0
    2674:	0481ff59 	bgez	a0,0x23dc
    2678:	acc50004 	sw	a1,4(a2)
    267c:	8ce9000c 	lw	t1,12(a3)
    2680:	8cc40008 	lw	a0,8(a2)
    2684:	00490018 	mult	v0,t1
    2688:	2405ff80 	addiu	a1,zero,-128
    268c:	00044a00 	sll	t1,a0,0x8
    2690:	01242023 	subu	a0,t1,a0
    2694:	00042203 	sra	a0,a0,0x8
    2698:	00a42821 	addu	a1,a1,a0
    269c:	acc50008 	sw	a1,8(a2)
    26a0:	00002812 	mflo	a1
    26a4:	04a1ff59 	bgez	a1,0x240c
    26a8:	00000000 	sll	zero,zero,0x0
    26ac:	8ce90010 	lw	t1,16(a3)
    26b0:	8cc4000c 	lw	a0,12(a2)
    26b4:	00490018 	mult	v0,t1
    26b8:	2405ff80 	addiu	a1,zero,-128
    26bc:	00044a00 	sll	t1,a0,0x8
    26c0:	01242023 	subu	a0,t1,a0
    26c4:	00042203 	sra	a0,a0,0x8
    26c8:	00a42821 	addu	a1,a1,a0
    26cc:	00004812 	mflo	t1
    26d0:	0521ff59 	bgez	t1,0x2438
    26d4:	acc5000c 	sw	a1,12(a2)
    26d8:	8ce90014 	lw	t1,20(a3)
    26dc:	8cc40010 	lw	a0,16(a2)
    26e0:	00490018 	mult	v0,t1
    26e4:	2405ff80 	addiu	a1,zero,-128
    26e8:	00044a00 	sll	t1,a0,0x8
    26ec:	01242023 	subu	a0,t1,a0
    26f0:	00042203 	sra	a0,a0,0x8
    26f4:	00a42821 	addu	a1,a1,a0
    26f8:	00008012 	mflo	s0
    26fc:	0601ff59 	bgez	s0,0x2464
    2700:	acc50010 	sw	a1,16(a2)
    2704:	0800091a 	j	0x2468
    2708:	2409ff80 	addiu	t1,zero,-128
    270c:	27bdffd0 	addiu	sp,sp,-48
    2710:	afb2001c 	sw	s2,28(sp)
    2714:	afb10018 	sw	s1,24(sp)
    2718:	3c120000 	lui	s2,0x0
    271c:	24110020 	addiu	s1,zero,32
    2720:	ae5133ec 	sw	s1,13292(s2)
    2724:	afb00014 	sw	s0,20(sp)
    2728:	3c120000 	lui	s2,0x0
    272c:	24100008 	addiu	s0,zero,8
    2730:	ae503420 	sw	s0,13344(s2)
    2734:	3c120000 	lui	s2,0x0
    2738:	ae513488 	sw	s1,13448(s2)
    273c:	3c110000 	lui	s1,0x0
    2740:	ae303438 	sw	s0,13368(s1)
    2744:	3c100000 	lui	s0,0x0
    2748:	ae00343c 	sw	zero,13372(s0)
    274c:	3c100000 	lui	s0,0x0
    2750:	ae0034a8 	sw	zero,13480(s0)
    2754:	3c100000 	lui	s0,0x0
    2758:	ae003484 	sw	zero,13444(s0)
    275c:	3c100000 	lui	s0,0x0
    2760:	ae003490 	sw	zero,13456(s0)
    2764:	3c100000 	lui	s0,0x0
    2768:	ae00349c 	sw	zero,13468(s0)
    276c:	3c100000 	lui	s0,0x0
    2770:	ae0034c0 	sw	zero,13504(s0)
    2774:	3c100000 	lui	s0,0x0
    2778:	ae0033d0 	sw	zero,13264(s0)
    277c:	3c100000 	lui	s0,0x0
    2780:	ae0033b8 	sw	zero,13240(s0)
    2784:	3c100000 	lui	s0,0x0
    2788:	ae003478 	sw	zero,13432(s0)
    278c:	3c100000 	lui	s0,0x0
    2790:	ae003440 	sw	zero,13376(s0)
    2794:	3c100000 	lui	s0,0x0
    2798:	ae003474 	sw	zero,13428(s0)
    279c:	3c100000 	lui	s0,0x0
    27a0:	ae003448 	sw	zero,13384(s0)
    27a4:	3c100000 	lui	s0,0x0
    27a8:	ae0033f8 	sw	zero,13304(s0)
    27ac:	3c100000 	lui	s0,0x0
    27b0:	ae0034a4 	sw	zero,13476(s0)
    27b4:	3c100000 	lui	s0,0x0
    27b8:	ae003424 	sw	zero,13348(s0)
    27bc:	3c100000 	lui	s0,0x0
    27c0:	ae003428 	sw	zero,13352(s0)
    27c4:	3c100000 	lui	s0,0x0
    27c8:	ae0033b4 	sw	zero,13236(s0)
    27cc:	3c100000 	lui	s0,0x0
    27d0:	ae0033cc 	sw	zero,13260(s0)
    27d4:	3c100000 	lui	s0,0x0
    27d8:	ae00348c 	sw	zero,13452(s0)
    27dc:	3c100000 	lui	s0,0x0
    27e0:	ae0034ac 	sw	zero,13484(s0)
    27e4:	3c100000 	lui	s0,0x0
    27e8:	ae003460 	sw	zero,13408(s0)
    27ec:	3c100000 	lui	s0,0x0
    27f0:	ae003498 	sw	zero,13464(s0)
    27f4:	3c100000 	lui	s0,0x0
    27f8:	afbf002c 	sw	ra,44(sp)
    27fc:	afb50028 	sw	s5,40(sp)
    2800:	afb40024 	sw	s4,36(sp)
    2804:	afb30020 	sw	s3,32(sp)
    2808:	ae0034a0 	sw	zero,13472(s0)
    280c:	3c100000 	lui	s0,0x0
    2810:	ae00340c 	sw	zero,13324(s0)
    2814:	3c100000 	lui	s0,0x0
    2818:	3c0f0000 	lui	t7,0x0
    281c:	ae0033d8 	sw	zero,13272(s0)
    2820:	3c100000 	lui	s0,0x0
    2824:	25e3372c 	addiu	v1,t7,14124
    2828:	3c020000 	lui	v0,0x0
    282c:	3c190000 	lui	t9,0x0
    2830:	3c180000 	lui	t8,0x0
    2834:	3c0e0000 	lui	t6,0x0
    2838:	3c0d0000 	lui	t5,0x0
    283c:	3c0c0000 	lui	t4,0x0
    2840:	3c0b0000 	lui	t3,0x0
    2844:	ae0034b8 	sw	zero,13496(s0)
    2848:	3c100000 	lui	s0,0x0
    284c:	244a36d0 	addiu	t2,v0,14032
    2850:	272938d4 	addiu	t1,t9,14548
    2854:	270836e8 	addiu	t0,t8,14056
    2858:	25c73b20 	addiu	a3,t6,15136
    285c:	25a63b50 	addiu	a2,t5,15184
    2860:	25853b38 	addiu	a1,t4,15160
    2864:	25643adc 	addiu	a0,t3,15068
    2868:	ae003410 	sw	zero,13328(s0)
    286c:	ac4036d0 	sw	zero,14032(v0)
    2870:	ac600014 	sw	zero,20(v1)
    2874:	ac600004 	sw	zero,4(v1)
    2878:	ac600008 	sw	zero,8(v1)
    287c:	ac60000c 	sw	zero,12(v1)
    2880:	ac600010 	sw	zero,16(v1)
    2884:	3c100000 	lui	s0,0x0
    2888:	3c020000 	lui	v0,0x0
    288c:	3c030000 	lui	v1,0x0
    2890:	ae0033d4 	sw	zero,13268(s0)
    2894:	af2038d4 	sw	zero,14548(t9)
    2898:	ad400014 	sw	zero,20(t2)
    289c:	ad200014 	sw	zero,20(t1)
    28a0:	ad000014 	sw	zero,20(t0)
    28a4:	af0036e8 	sw	zero,14056(t8)
    28a8:	ade0372c 	sw	zero,14124(t7)
    28ac:	ad400004 	sw	zero,4(t2)
    28b0:	ad200004 	sw	zero,4(t1)
    28b4:	ad000004 	sw	zero,4(t0)
    28b8:	ad400008 	sw	zero,8(t2)
    28bc:	ad200008 	sw	zero,8(t1)
    28c0:	ad000008 	sw	zero,8(t0)
    28c4:	ad40000c 	sw	zero,12(t2)
    28c8:	ad20000c 	sw	zero,12(t1)
    28cc:	ad00000c 	sw	zero,12(t0)
    28d0:	ad400010 	sw	zero,16(t2)
    28d4:	ad200010 	sw	zero,16(t1)
    28d8:	ad000010 	sw	zero,16(t0)
    28dc:	adc03b20 	sw	zero,15136(t6)
    28e0:	ada03b50 	sw	zero,15184(t5)
    28e4:	ad803b38 	sw	zero,15160(t4)
    28e8:	ad603adc 	sw	zero,15068(t3)
    28ec:	244238ec 	addiu	v0,v0,14572
    28f0:	ace00004 	sw	zero,4(a3)
    28f4:	2463394c 	addiu	v1,v1,14668
    28f8:	acc00004 	sw	zero,4(a2)
    28fc:	aca00004 	sw	zero,4(a1)
    2900:	ac800004 	sw	zero,4(a0)
    2904:	ace00008 	sw	zero,8(a3)
    2908:	acc00008 	sw	zero,8(a2)
    290c:	aca00008 	sw	zero,8(a1)
    2910:	ac800008 	sw	zero,8(a0)
    2914:	ace00014 	sw	zero,20(a3)
    2918:	acc00014 	sw	zero,20(a2)
    291c:	aca00014 	sw	zero,20(a1)
    2920:	ac800014 	sw	zero,20(a0)
    2924:	ace0000c 	sw	zero,12(a3)
    2928:	acc0000c 	sw	zero,12(a2)
    292c:	aca0000c 	sw	zero,12(a1)
    2930:	ac80000c 	sw	zero,12(a0)
    2934:	ace00010 	sw	zero,16(a3)
    2938:	acc00010 	sw	zero,16(a2)
    293c:	aca00010 	sw	zero,16(a1)
    2940:	ac800010 	sw	zero,16(a0)
    2944:	ac400000 	sw	zero,0(v0)
    2948:	24420004 	addiu	v0,v0,4
    294c:	1443fffd 	bne	v0,v1,0x2944
    2950:	3c050000 	lui	a1,0x0
    2954:	3c040000 	lui	a0,0x0
    2958:	24a33af4 	addiu	v1,a1,15092
    295c:	24823700 	addiu	v0,a0,14080
    2960:	3c110000 	lui	s1,0x0
    2964:	3c120000 	lui	s2,0x0
    2968:	ac600028 	sw	zero,40(v1)
    296c:	ac400028 	sw	zero,40(v0)
    2970:	aca03af4 	sw	zero,15092(a1)
    2974:	ac803700 	sw	zero,14080(a0)
    2978:	ac600004 	sw	zero,4(v1)
    297c:	ac400004 	sw	zero,4(v0)
    2980:	ac600008 	sw	zero,8(v1)
    2984:	ac400008 	sw	zero,8(v0)
    2988:	ac60000c 	sw	zero,12(v1)
    298c:	ac40000c 	sw	zero,12(v0)
    2990:	ac600010 	sw	zero,16(v1)
    2994:	ac400010 	sw	zero,16(v0)
    2998:	ac600014 	sw	zero,20(v1)
    299c:	ac400014 	sw	zero,20(v0)
    29a0:	ac600018 	sw	zero,24(v1)
    29a4:	ac400018 	sw	zero,24(v0)
    29a8:	ac60001c 	sw	zero,28(v1)
    29ac:	ac40001c 	sw	zero,28(v0)
    29b0:	ac600020 	sw	zero,32(v1)
    29b4:	ac400020 	sw	zero,32(v0)
    29b8:	ac600024 	sw	zero,36(v1)
    29bc:	ac400024 	sw	zero,36(v0)
    29c0:	26312f00 	addiu	s1,s1,12032
    29c4:	26523744 	addiu	s2,s2,14148
    29c8:	00008021 	addu	s0,zero,zero
    29cc:	24130064 	addiu	s3,zero,100
    29d0:	8e240000 	lw	a0,0(s1)
    29d4:	8e250004 	lw	a1,4(s1)
    29d8:	0c0005e2 	jal	0x1788
    29dc:	26310008 	addiu	s1,s1,8
    29e0:	00101843 	sra	v1,s0,0x1
    29e4:	00031880 	sll	v1,v1,0x2
    29e8:	02431821 	addu	v1,s2,v1
    29ec:	26100002 	addiu	s0,s0,2
    29f0:	1613fff7 	bne	s0,s3,0x29d0
    29f4:	ac620000 	sw	v0,0(v1)
    29f8:	3c110000 	lui	s1,0x0
    29fc:	2631394c 	addiu	s1,s1,14668
    2a00:	00008021 	addu	s0,zero,zero
    2a04:	3c150000 	lui	s5,0x0
    2a08:	3c140000 	lui	s4,0x0
    2a0c:	24130064 	addiu	s3,zero,100
    2a10:	00101043 	sra	v0,s0,0x1
    2a14:	00021080 	sll	v0,v0,0x2
    2a18:	02421021 	addu	v0,s2,v0
    2a1c:	8c440000 	lw	a0,0(v0)
    2a20:	0c00022f 	jal	0x8bc
    2a24:	26100002 	addiu	s0,s0,2
    2a28:	8ea33404 	lw	v1,13316(s5)
    2a2c:	8e823434 	lw	v0,13364(s4)
    2a30:	ae230000 	sw	v1,0(s1)
    2a34:	ae220004 	sw	v0,4(s1)
    2a38:	1613fff5 	bne	s0,s3,0x2a10
    2a3c:	26310008 	addiu	s1,s1,8
    2a40:	8fbf002c 	lw	ra,44(sp)
    2a44:	8fb50028 	lw	s5,40(sp)
    2a48:	8fb40024 	lw	s4,36(sp)
    2a4c:	8fb30020 	lw	s3,32(sp)
    2a50:	8fb2001c 	lw	s2,28(sp)
    2a54:	8fb10018 	lw	s1,24(sp)
    2a58:	8fb00014 	lw	s0,20(sp)
    2a5c:	03e00008 	jr	ra
    2a60:	27bd0030 	addiu	sp,sp,48
    2a64:	27bdffe8 	addiu	sp,sp,-24
    2a68:	afbf0014 	sw	ra,20(sp)
    2a6c:	0c0009c3 	jal	0x270c
    2a70:	00000000 	sll	zero,zero,0x0
    2a74:	3c080000 	lui	t0,0x0
    2a78:	3c070000 	lui	a3,0x0
    2a7c:	25083744 	addiu	t0,t0,14148
    2a80:	24e73090 	addiu	a3,a3,12432
    2a84:	00001821 	addu	v1,zero,zero
    2a88:	00001021 	addu	v0,zero,zero
    2a8c:	240600c8 	addiu	a2,zero,200
    2a90:	01032821 	addu	a1,t0,v1
    2a94:	00e32021 	addu	a0,a3,v1
    2a98:	8ca50000 	lw	a1,0(a1)
    2a9c:	8c840000 	lw	a0,0(a0)
    2aa0:	00000000 	sll	zero,zero,0x0
    2aa4:	10a40002 	beq	a1,a0,0x2ab0
    2aa8:	24630004 	addiu	v1,v1,4
    2aac:	24020001 	addiu	v0,zero,1
    2ab0:	1466fff8 	bne	v1,a2,0x2a94
    2ab4:	01032821 	addu	a1,t0,v1
    2ab8:	3c080000 	lui	t0,0x0
    2abc:	3c070000 	lui	a3,0x0
    2ac0:	2508394c 	addiu	t0,t0,14668
    2ac4:	24e73220 	addiu	a3,a3,12832
    2ac8:	00001821 	addu	v1,zero,zero
    2acc:	24060190 	addiu	a2,zero,400
    2ad0:	01032821 	addu	a1,t0,v1
    2ad4:	00e32021 	addu	a0,a3,v1
    2ad8:	8ca50000 	lw	a1,0(a1)
    2adc:	8c840000 	lw	a0,0(a0)
    2ae0:	00000000 	sll	zero,zero,0x0
    2ae4:	10a40002 	beq	a1,a0,0x2af0
    2ae8:	24630004 	addiu	v1,v1,4
    2aec:	24020001 	addiu	v0,zero,1
    2af0:	1466fff8 	bne	v1,a2,0x2ad4
    2af4:	01032821 	addu	a1,t0,v1
    2af8:	8fbf0014 	lw	ra,20(sp)
    2afc:	00000000 	sll	zero,zero,0x0
    2b00:	03e00008 	jr	ra
    2b04:	27bd0018 	addiu	sp,sp,24
	...

Disassembly of section .rodata:

00002b10 <.rodata>:
    2b10:	0000000c 	syscall
    2b14:	ffffffd4 	0xffffffd4
    2b18:	ffffffd4 	0xffffffd4
    2b1c:	000000d4 	0xd4
    2b20:	00000030 	0x30
    2b24:	fffffd90 	0xfffffd90
    2b28:	00000080 	sll	zero,zero,0x2
    2b2c:	000005a8 	0x5a8
    2b30:	fffffcb8 	0xfffffcb8
    2b34:	fffff36c 	0xfffff36c
    2b38:	00000edc 	0xedc
    2b3c:	00003c90 	0x3c90
    2b40:	00003c90 	0x3c90
    2b44:	00000edc 	0xedc
    2b48:	fffff36c 	0xfffff36c
    2b4c:	fffffcb8 	0xfffffcb8
    2b50:	000005a8 	0x5a8
    2b54:	00000080 	sll	zero,zero,0x2
    2b58:	fffffd90 	0xfffffd90
    2b5c:	00000030 	0x30
    2b60:	000000d4 	0xd4
    2b64:	ffffffd4 	0xffffffd4
    2b68:	ffffffd4 	0xffffffd4
    2b6c:	0000000c 	syscall
    2b70:	00000000 	sll	zero,zero,0x0
    2b74:	ffffb018 	0xffffb018
    2b78:	ffffcda0 	0xffffcda0
    2b7c:	ffffdcf8 	0xffffdcf8
    2b80:	ffffe770 	0xffffe770
    2b84:	ffffef70 	0xffffef70
    2b88:	fffff5e8 	0xfffff5e8
    2b8c:	fffffb50 	0xfffffb50
    2b90:	00004fe8 	0x4fe8
    2b94:	00003260 	0x3260
    2b98:	00002308 	0x2308
    2b9c:	00001890 	0x1890
    2ba0:	00001090 	0x1090
    2ba4:	00000a18 	0xa18
    2ba8:	000004b0 	0x4b0
    2bac:	00000000 	sll	zero,zero,0x0
    2bb0:	ffffff78 	0xffffff78
    2bb4:	ffffff78 	0xffffff78
    2bb8:	ffffff78 	0xffffff78
    2bbc:	ffffff78 	0xffffff78
    2bc0:	ffff9f18 	0xffff9f18
    2bc4:	ffffaa70 	0xffffaa70
    2bc8:	ffffb5c0 	0xffffb5c0
    2bcc:	ffffbec0 	0xffffbec0
    2bd0:	ffffc578 	0xffffc578
    2bd4:	ffffcb38 	0xffffcb38
    2bd8:	ffffd008 	0xffffd008
    2bdc:	ffffd448 	0xffffd448
    2be0:	ffffd808 	0xffffd808
    2be4:	ffffdb70 	0xffffdb70
    2be8:	ffffde80 	0xffffde80
    2bec:	ffffe150 	0xffffe150
    2bf0:	ffffe3e8 	0xffffe3e8
    2bf4:	ffffe650 	0xffffe650
    2bf8:	ffffe890 	0xffffe890
    2bfc:	ffffeab0 	0xffffeab0
    2c00:	ffffecb0 	0xffffecb0
    2c04:	ffffee90 	0xffffee90
    2c08:	fffff058 	0xfffff058
    2c0c:	fffff208 	0xfffff208
    2c10:	fffff3a0 	0xfffff3a0
    2c14:	fffff528 	0xfffff528
    2c18:	fffff6a0 	0xfffff6a0
    2c1c:	fffff810 	0xfffff810
    2c20:	fffff968 	0xfffff968
    2c24:	fffffab0 	0xfffffab0
    2c28:	fffffbf0 	0xfffffbf0
    2c2c:	fffffd28 	0xfffffd28
    2c30:	000060e8 	0x60e8
    2c34:	00005590 	0x5590
    2c38:	00004a40 	sll	t1,zero,0x9
    2c3c:	00004140 	sll	t0,zero,0x5
    2c40:	00003a88 	0x3a88
    2c44:	000034c8 	0x34c8
    2c48:	00002ff8 	0x2ff8
    2c4c:	00002bb8 	0x2bb8
    2c50:	000027f8 	0x27f8
    2c54:	00002490 	0x2490
    2c58:	00002180 	sll	a0,zero,0x6
    2c5c:	00001eb0 	0x1eb0
    2c60:	00001c18 	0x1c18
    2c64:	000019b0 	0x19b0
    2c68:	00001770 	0x1770
    2c6c:	00001550 	0x1550
    2c70:	00001350 	0x1350
    2c74:	00001170 	0x1170
    2c78:	00000fa8 	0xfa8
    2c7c:	00000df8 	0xdf8
    2c80:	00000c60 	0xc60
    2c84:	00000ad8 	0xad8
    2c88:	00000960 	0x960
    2c8c:	000007f0 	0x7f0
    2c90:	00000698 	0x698
    2c94:	00000550 	0x550
    2c98:	00000410 	0x410
    2c9c:	000002d8 	0x2d8
    2ca0:	000001b0 	0x1b0
    2ca4:	00000088 	0x88
    2ca8:	fffffe50 	0xfffffe50
    2cac:	ffffff78 	0xffffff78
    2cb0:	ffffffc4 	0xffffffc4
    2cb4:	00000be2 	0xbe2
    2cb8:	000004ae 	0x4ae
    2cbc:	0000021a 	0x21a
    2cc0:	0000014e 	0x14e
    2cc4:	000000ac 	0xac
    2cc8:	0000003a 	0x3a
    2ccc:	ffffffe2 	0xffffffe2
    2cd0:	00000be2 	0xbe2
    2cd4:	000004ae 	0x4ae
    2cd8:	0000021a 	0x21a
    2cdc:	0000014e 	0x14e
    2ce0:	000000ac 	0xac
    2ce4:	0000003a 	0x3a
    2ce8:	ffffffe2 	0xffffffe2
    2cec:	ffffffc4 	0xffffffc4
    2cf0:	00000800 	sll	at,zero,0x0
    2cf4:	0000082d 	0x82d
    2cf8:	0000085b 	0x85b
    2cfc:	0000088a 	0x88a
    2d00:	000008b9 	0x8b9
    2d04:	000008ea 	0x8ea
    2d08:	0000091c 	0x91c
    2d0c:	0000094f 	0x94f
    2d10:	00000983 	sra	at,zero,0x6
    2d14:	000009b9 	0x9b9
    2d18:	000009ef 	0x9ef
    2d1c:	00000a27 	0xa27
    2d20:	00000a60 	0xa60
    2d24:	00000a9a 	0xa9a
    2d28:	00000ad6 	0xad6
    2d2c:	00000b12 	0xb12
    2d30:	00000b50 	0xb50
    2d34:	00000b90 	0xb90
    2d38:	00000bd1 	0xbd1
    2d3c:	00000c13 	0xc13
    2d40:	00000c56 	0xc56
    2d44:	00000c9c 	0xc9c
    2d48:	00000ce2 	0xce2
    2d4c:	00000d2b 	0xd2b
    2d50:	00000d74 	0xd74
    2d54:	00000dc0 	sll	at,zero,0x17
    2d58:	00000e0d 	break	0x0,0x38
    2d5c:	00000e5c 	0xe5c
    2d60:	00000eac 	0xeac
    2d64:	00000efe 	0xefe
    2d68:	00000f52 	0xf52
    2d6c:	00000fa8 	0xfa8
    2d70:	00000118 	0x118
    2d74:	00000240 	sll	zero,zero,0x9
    2d78:	00000370 	0x370
    2d7c:	000004b0 	0x4b0
    2d80:	000005f0 	0x5f0
    2d84:	00000748 	0x748
    2d88:	000008a0 	0x8a0
    2d8c:	00000a18 	0xa18
    2d90:	00000b90 	0xb90
    2d94:	00000d30 	0xd30
    2d98:	00000ec8 	0xec8
    2d9c:	00001090 	0x1090
    2da0:	00001258 	0x1258
    2da4:	00001450 	0x1450
    2da8:	00001650 	0x1650
    2dac:	00001890 	0x1890
    2db0:	00001ad0 	0x1ad0
    2db4:	00001d60 	0x1d60
    2db8:	00001ff8 	0x1ff8
    2dbc:	00002308 	0x2308
    2dc0:	00002618 	0x2618
    2dc4:	000029d8 	0x29d8
    2dc8:	00002d90 	0x2d90
    2dcc:	00003260 	0x3260
    2dd0:	00003728 	0x3728
    2dd4:	00003de0 	0x3de0
    2dd8:	00004498 	0x4498
    2ddc:	00004fe8 	0x4fe8
    2de0:	00005b38 	0x5b38
    2de4:	00007fff 	0x7fff
    2de8:	0000003d 	0x3d
    2dec:	0000003c 	0x3c
    2df0:	0000003b 	0x3b
    2df4:	0000003a 	0x3a
    2df8:	00000039 	0x39
    2dfc:	00000038 	0x38
    2e00:	00000037 	0x37
    2e04:	00000036 	0x36
    2e08:	00000035 	0x35
    2e0c:	00000034 	0x34
    2e10:	00000033 	0x33
    2e14:	00000032 	0x32
    2e18:	00000031 	0x31
    2e1c:	00000030 	0x30
    2e20:	0000002f 	0x2f
    2e24:	0000002e 	0x2e
    2e28:	0000002d 	0x2d
    2e2c:	0000002c 	0x2c
    2e30:	0000002b 	sltu	zero,zero,zero
    2e34:	0000002a 	slt	zero,zero,zero
    2e38:	00000029 	0x29
    2e3c:	00000028 	0x28
    2e40:	00000027 	nor	zero,zero,zero
    2e44:	00000026 	xor	zero,zero,zero
    2e48:	00000025 	or	zero,zero,zero
    2e4c:	00000024 	and	zero,zero,zero
    2e50:	00000023 	negu	zero,zero
    2e54:	00000022 	neg	zero,zero
    2e58:	00000021 	addu	zero,zero,zero
    2e5c:	00000020 	add	zero,zero,zero
    2e60:	00000020 	add	zero,zero,zero
    2e64:	0000003f 	0x3f
    2e68:	0000003e 	0x3e
    2e6c:	0000001f 	0x1f
    2e70:	0000001e 	0x1e
    2e74:	0000001d 	0x1d
    2e78:	0000001c 	0x1c
    2e7c:	0000001b 	divu	zero,zero,zero
    2e80:	0000001a 	div	zero,zero,zero
    2e84:	00000019 	multu	zero,zero
    2e88:	00000018 	mult	zero,zero
    2e8c:	00000017 	0x17
    2e90:	00000016 	0x16
    2e94:	00000015 	0x15
    2e98:	00000014 	0x14
    2e9c:	00000013 	mtlo	zero
    2ea0:	00000012 	mflo	zero
    2ea4:	00000011 	mthi	zero
    2ea8:	00000010 	mfhi	zero
    2eac:	0000000f 	0xf
    2eb0:	0000000e 	0xe
    2eb4:	0000000d 	break
    2eb8:	0000000c 	syscall
    2ebc:	0000000b 	0xb
    2ec0:	0000000a 	0xa
    2ec4:	00000009 	jalr	zero,zero
    2ec8:	00000008 	jr	zero
    2ecc:	00000007 	srav	zero,zero,zero
    2ed0:	00000006 	srlv	zero,zero,zero
    2ed4:	00000005 	0x5
    2ed8:	00000004 	sllv	zero,zero,zero
    2edc:	00000004 	sllv	zero,zero,zero
    2ee0:	ffffe310 	0xffffe310
    2ee4:	fffff9b0 	0xfffff9b0
    2ee8:	00001cf0 	0x1cf0
    2eec:	00000650 	0x650
    2ef0:	0000031e 	0x31e
    2ef4:	ffffff2a 	0xffffff2a
    2ef8:	0000031e 	0x31e
    2efc:	ffffff2a 	0xffffff2a
    2f00:	00000044 	0x44
    2f04:	00000044 	0x44
    2f08:	00000044 	0x44
    2f0c:	00000044 	0x44
    2f10:	00000044 	0x44
    2f14:	00000044 	0x44
    2f18:	00000044 	0x44
    2f1c:	00000044 	0x44
    2f20:	00000044 	0x44
    2f24:	00000044 	0x44
    2f28:	00000044 	0x44
    2f2c:	00000044 	0x44
    2f30:	00000044 	0x44
    2f34:	00000044 	0x44
    2f38:	00000044 	0x44
    2f3c:	00000044 	0x44
    2f40:	00000044 	0x44
    2f44:	00000043 	sra	zero,zero,0x1
    2f48:	00000043 	sra	zero,zero,0x1
    2f4c:	00000043 	sra	zero,zero,0x1
    2f50:	00000043 	sra	zero,zero,0x1
    2f54:	00000043 	sra	zero,zero,0x1
    2f58:	00000043 	sra	zero,zero,0x1
    2f5c:	00000043 	sra	zero,zero,0x1
    2f60:	00000042 	srl	zero,zero,0x1
    2f64:	00000042 	srl	zero,zero,0x1
    2f68:	00000042 	srl	zero,zero,0x1
    2f6c:	00000042 	srl	zero,zero,0x1
    2f70:	00000042 	srl	zero,zero,0x1
    2f74:	00000042 	srl	zero,zero,0x1
    2f78:	00000041 	0x41
    2f7c:	00000041 	0x41
    2f80:	00000041 	0x41
    2f84:	00000041 	0x41
    2f88:	00000041 	0x41
    2f8c:	00000040 	sll	zero,zero,0x1
    2f90:	00000040 	sll	zero,zero,0x1
    2f94:	00000040 	sll	zero,zero,0x1
    2f98:	00000040 	sll	zero,zero,0x1
    2f9c:	00000040 	sll	zero,zero,0x1
    2fa0:	00000040 	sll	zero,zero,0x1
    2fa4:	00000040 	sll	zero,zero,0x1
    2fa8:	00000040 	sll	zero,zero,0x1
    2fac:	0000003f 	0x3f
    2fb0:	0000003f 	0x3f
    2fb4:	0000003f 	0x3f
    2fb8:	0000003f 	0x3f
    2fbc:	0000003f 	0x3f
    2fc0:	0000003e 	0x3e
    2fc4:	0000003e 	0x3e
    2fc8:	0000003e 	0x3e
    2fcc:	0000003e 	0x3e
    2fd0:	0000003e 	0x3e
    2fd4:	0000003e 	0x3e
    2fd8:	0000003d 	0x3d
    2fdc:	0000003d 	0x3d
    2fe0:	0000003d 	0x3d
    2fe4:	0000003d 	0x3d
    2fe8:	0000003d 	0x3d
    2fec:	0000003d 	0x3d
    2ff0:	0000003c 	0x3c
    2ff4:	0000003c 	0x3c
    2ff8:	0000003c 	0x3c
    2ffc:	0000003c 	0x3c
    3000:	0000003c 	0x3c
    3004:	0000003c 	0x3c
    3008:	0000003c 	0x3c
    300c:	0000003c 	0x3c
    3010:	0000003c 	0x3c
    3014:	0000003b 	0x3b
    3018:	0000003b 	0x3b
    301c:	0000003b 	0x3b
    3020:	0000003b 	0x3b
    3024:	0000003b 	0x3b
    3028:	0000003b 	0x3b
    302c:	0000003b 	0x3b
    3030:	0000003b 	0x3b
    3034:	0000003b 	0x3b
    3038:	0000003b 	0x3b
    303c:	0000003b 	0x3b
    3040:	0000003b 	0x3b
    3044:	0000003b 	0x3b
    3048:	0000003b 	0x3b
    304c:	0000003b 	0x3b
    3050:	0000003b 	0x3b
    3054:	0000003b 	0x3b
    3058:	0000003b 	0x3b
    305c:	0000003b 	0x3b
    3060:	0000003b 	0x3b
    3064:	0000003b 	0x3b
    3068:	0000003b 	0x3b
    306c:	0000003b 	0x3b
    3070:	0000003c 	0x3c
    3074:	0000003c 	0x3c
    3078:	0000003c 	0x3c
    307c:	0000003c 	0x3c
    3080:	0000003c 	0x3c
    3084:	0000003c 	0x3c
    3088:	0000003c 	0x3c
    308c:	0000003c 	0x3c
    3090:	000000fd 	0xfd
    3094:	000000de 	0xde
    3098:	00000077 	0x77
    309c:	000000ba 	0xba
    30a0:	000000f4 	0xf4
    30a4:	00000092 	0x92
    30a8:	00000020 	add	zero,zero,zero
    30ac:	000000a0 	0xa0
    30b0:	000000ec 	0xec
    30b4:	000000ed 	0xed
    30b8:	000000ee 	0xee
    30bc:	000000f0 	0xf0
    30c0:	000000f1 	0xf1
    30c4:	000000f1 	0xf1
    30c8:	000000f2 	0xf2
    30cc:	000000f3 	0xf3
    30d0:	000000f4 	0xf4
    30d4:	000000f3 	0xf3
    30d8:	000000f4 	0xf4
    30dc:	000000f5 	0xf5
    30e0:	000000f4 	0xf4
    30e4:	000000f4 	0xf4
    30e8:	000000f5 	0xf5
    30ec:	000000f5 	0xf5
    30f0:	000000f5 	0xf5
    30f4:	000000f6 	0xf6
    30f8:	000000f6 	0xf6
    30fc:	000000f7 	0xf7
    3100:	000000f7 	0xf7
    3104:	000000f7 	0xf7
    3108:	000000f7 	0xf7
    310c:	000000f8 	0xf8
    3110:	000000f6 	0xf6
    3114:	000000f7 	0xf7
    3118:	000000f9 	0xf9
    311c:	000000f7 	0xf7
    3120:	000000f8 	0xf8
    3124:	000000f7 	0xf7
    3128:	000000f8 	0xf8
    312c:	000000f7 	0xf7
    3130:	000000f8 	0xf8
    3134:	000000f7 	0xf7
    3138:	000000f8 	0xf8
    313c:	000000f7 	0xf7
    3140:	000000f8 	0xf8
    3144:	000000f8 	0xf8
    3148:	000000f6 	0xf6
    314c:	000000f8 	0xf8
    3150:	000000f7 	0xf7
    3154:	000000f8 	0xf8
	...
    3224:	ffffffff 	0xffffffff
    3228:	ffffffff 	0xffffffff
	...
    3234:	ffffffff 	0xffffffff
	...
    3240:	ffffffff 	0xffffffff
    3244:	ffffffff 	0xffffffff
	...
    3250:	00000001 	0x1
    3254:	00000001 	0x1
    3258:	00000000 	sll	zero,zero,0x0
    325c:	fffffffe 	0xfffffffe
    3260:	ffffffff 	0xffffffff
    3264:	fffffffe 	0xfffffffe
    3268:	00000000 	sll	zero,zero,0x0
    326c:	fffffffd 	0xfffffffd
    3270:	00000001 	0x1
	...
    327c:	fffffffc 	0xfffffffc
    3280:	00000001 	0x1
    3284:	00000001 	0x1
    3288:	00000002 	srl	zero,zero,0x0
    328c:	0000000b 	0xb
    3290:	00000014 	0x14
    3294:	00000012 	mflo	zero
    3298:	00000014 	0x14
    329c:	00000016 	0x16
    32a0:	0000001c 	0x1c
    32a4:	0000001b 	divu	zero,zero,zero
    32a8:	0000001f 	0x1f
    32ac:	0000001f 	0x1f
    32b0:	00000022 	neg	zero,zero
    32b4:	0000001f 	0x1f
    32b8:	00000022 	neg	zero,zero
    32bc:	00000022 	neg	zero,zero
    32c0:	00000026 	xor	zero,zero,zero
    32c4:	00000025 	or	zero,zero,zero
    32c8:	0000002a 	slt	zero,zero,zero
    32cc:	0000002a 	slt	zero,zero,zero
    32d0:	0000002c 	0x2c
    32d4:	00000029 	0x29
    32d8:	0000002b 	sltu	zero,zero,zero
    32dc:	0000002a 	slt	zero,zero,zero
    32e0:	0000002f 	0x2f
    32e4:	0000002d 	0x2d
    32e8:	0000002f 	0x2f
    32ec:	0000002c 	0x2c
    32f0:	0000002d 	0x2d
    32f4:	0000002b 	sltu	zero,zero,zero
    32f8:	0000002e 	0x2e
    32fc:	0000002d 	0x2d
    3300:	00000030 	0x30
    3304:	0000002e 	0x2e
    3308:	00000031 	0x31
    330c:	00000030 	0x30
    3310:	00000033 	0x33
    3314:	00000031 	0x31
    3318:	00000034 	0x34
    331c:	00000034 	0x34
    3320:	00000037 	0x37
    3324:	00000035 	0x35
    3328:	00000038 	0x38
    332c:	00000037 	0x37
    3330:	0000003a 	0x3a
    3334:	00000039 	0x39
    3338:	0000003b 	0x3b
    333c:	00000039 	0x39
    3340:	0000003c 	0x3c
    3344:	0000003c 	0x3c
    3348:	0000003c 	0x3c
    334c:	00000036 	0x36
    3350:	00000036 	0x36
    3354:	00000035 	0x35
    3358:	0000003c 	0x3c
    335c:	0000003e 	0x3e
    3360:	0000003e 	0x3e
    3364:	00000036 	0x36
    3368:	00000037 	0x37
    336c:	00000038 	0x38
    3370:	0000003b 	0x3b
    3374:	00000035 	0x35
    3378:	00000036 	0x36
    337c:	00000038 	0x38
    3380:	0000003b 	0x3b
    3384:	00000035 	0x35
    3388:	00000038 	0x38
    338c:	0000003a 	0x3a
    3390:	0000003b 	0x3b
    3394:	00000035 	0x35
    3398:	00000038 	0x38
    339c:	0000003a 	0x3a
    33a0:	0000003c 	0x3c
    33a4:	00000036 	0x36
    33a8:	00000037 	0x37
    33ac:	00000039 	0x39

Disassembly of section .bss:

000034d0 <.bss>:
	...
